; ModuleID = 'C:/WORK/sobel_variable/axi_sobel/axi_sobel/sobel_rd_prj/solution1/.autopilot/db/a.o.2.bc'
target datalayout = "e-p:32:32:32-i1:8:8-i8:8:8-i16:16:16-i32:32:32-i64:64:64-f32:32:32-f64:64:64-v64:64:64-v128:128:128-a0:0:64-f80:32:32-n8:16:32"
target triple = "i386-pc-mingw32"

%sobel_operator_ret = type { i8, i8, i8 }
%struct.RGB = type { %"struct.ap_uint<8>", %"struct.ap_uint<8>", %"struct.ap_uint<8>" }
%"struct.ap_axiu<32,1,1,1>" = type { %"struct.ap_uint<32>", %"struct.ap_uint<4>", %"struct.ap_uint<1>", %"struct.ap_uint<1>", %"struct.ap_uint<1>" }
%"struct.ap_int_base<1,false>" = type { %"struct.conv_cint<1,false,true>" }
%"struct.ap_int_base<32,false>" = type { %"struct.conv_cint<32,false,true>" }
%"struct.ap_int_base<4,false>" = type { %"struct.conv_cint<4,false,true>" }
%"struct.ap_int_base<8,false>" = type { %"struct.conv_cint<8,false,true>" }
%"struct.ap_uint<1>" = type { %"struct.ap_int_base<1,false>" }
%"struct.ap_uint<32>" = type { %"struct.ap_int_base<32,false>" }
%"struct.ap_uint<4>" = type { %"struct.ap_int_base<4,false>" }
%"struct.ap_uint<8>" = type { %"struct.ap_int_base<8,false>" }
%"struct.ap_window<unsigned char,3,3>" = type { [3 x [3 x i8]] }
%"struct.conv_cint<1,false,true>" = type { %"struct.ssdm_int<1,false>" }
%"struct.conv_cint<32,false,true>" = type { %"struct.ssdm_int<32,false>" }
%"struct.conv_cint<4,false,true>" = type { %"struct.ssdm_int<4,false>" }
%"struct.conv_cint<8,false,true>" = type { %"struct.ssdm_int<8,false>" }
%"struct.ssdm_int<1,false>" = type { i1 }
%"struct.ssdm_int<32,false>" = type { i32 }
%"struct.ssdm_int<4,false>" = type { i4 }
%"struct.ssdm_int<8,false>" = type { i8 }
%"struct.std::ios_base::Init" = type <{ i8 }>

@.str20 = private constant [1 x i8] zeroinitializer, align 1 ; <[1 x i8]*> [#uses=33]
@.str24 = private constant [14 x i8] c"aesl_label_11\00", align 1 ; <[14 x i8]*> [#uses=2]
@.str25 = private constant [14 x i8] c"aesl_label_10\00", align 1 ; <[14 x i8]*> [#uses=2]
@.str26 = private constant [8 x i8] c"ap_fifo\00", align 1 ; <[8 x i8]*> [#uses=2]
@.str27 = private constant [5 x i8] c"AXIS\00", align 1 ; <[5 x i8]*> [#uses=4]
@.str28 = private constant [25 x i8] c"-bus_bundle INPUT_STREAM\00", align 1 ; <[25 x i8]*> [#uses=1]
@.str29 = private constant [126 x i8] c"{inter_pix_data_V TDATA} {inter_pix_strb_V TSTRB} {inter_pix_user_V TUSER} {inter_pix_last_V TLAST} {inter_pix_tdest_V TDEST}\00", align 4 ; <[126 x i8]*> [#uses=1]
@.str30 = private constant [14 x i8] c"aesl_label_13\00", align 1 ; <[14 x i8]*> [#uses=2]
@.str31 = private constant [14 x i8] c"aesl_label_12\00", align 1 ; <[14 x i8]*> [#uses=2]
@.str32 = private constant [26 x i8] c"-bus_bundle OUTPUT_STREAM\00", align 1 ; <[26 x i8]*> [#uses=1]
@.str33 = private constant [116 x i8] c"{out_pix_data_V TDATA} {out_pix_strb_V TSTRB} {out_pix_user_V TUSER} {out_pix_last_V TLAST} {out_pix_tdest_V TDEST}\00", align 4 ; <[116 x i8]*> [#uses=1]
@.str34 = private constant [14 x i8] c"aesl_label_14\00", align 1 ; <[14 x i8]*> [#uses=2]
@.str35 = private constant [8 x i8] c"ap_none\00", align 1 ; <[8 x i8]*> [#uses=2]
@.str36 = private constant [14 x i8] c"aesl_label_15\00", align 1 ; <[14 x i8]*> [#uses=2]
@.str37 = private constant [14 x i8] c"aesl_label_16\00", align 1 ; <[14 x i8]*> [#uses=2]
@.str38 = private constant [10 x i8] c"AXI_SLAVE\00", align 1 ; <[10 x i8]*> [#uses=3]
@.str39 = private constant [24 x i8] c"-bus_bundle CONTROL_BUS\00", align 1 ; <[24 x i8]*> [#uses=3]
@.str40 = private constant [14 x i8] c"aesl_label_17\00", align 1 ; <[14 x i8]*> [#uses=2]
@.str41 = private constant [14 x i8] c"aesl_label_18\00", align 1 ; <[14 x i8]*> [#uses=2]
@.str42 = private constant [66 x i8] c"{ap_start START} {ap_done DONE} {ap_idle IDLE} {ap_return RETURN}\00", align 4 ; <[66 x i8]*> [#uses=1]
@.str43 = private constant [14 x i8] c"aesl_label_19\00", align 1 ; <[14 x i8]*> [#uses=2]
@llvm.global_ctors.0 = appending global [1 x i32] [i32 65535] ; <[1 x i32]*> [#uses=0]
@llvm.global_ctors.1 = appending global [1 x void ()*] [void ()* @_GLOBAL__I__Z5rgb2y6ap_rgbILi8ELi8ELi8EE] ; <[1 x void ()*]*> [#uses=0]
@llvm.global_dtors.0 = appending global [1 x i32] [i32 65535] ; <[1 x i32]*> [#uses=0]
@llvm.global_dtors.1 = appending global [1 x void ()*] [void ()* @_GLOBAL__D__Z5rgb2y6ap_rgbILi8ELi8ELi8EE] ; <[1 x void ()*]*> [#uses=0]

declare void @llvm.dbg.declare(metadata, metadata) nounwind readnone

declare void @_ssdm_op_SpecFifo(...) nounwind

declare void @_ssdm_op_SpecWire(...) nounwind

declare void @_ssdm_SpecLoopFlatten(...) nounwind

declare void @_ssdm_SpecDependence(...) nounwind

declare void @_ssdm_op_SpecPipeline(...) nounwind

declare void @llvm.dbg.value(metadata, i64, metadata) nounwind readnone

declare void @_GLOBAL__I__Z5rgb2y6ap_rgbILi8ELi8ELi8EE() nounwind

declare void @_GLOBAL__D__Z5rgb2y6ap_rgbILi8ELi8ELi8EE() nounwind

declare i32 @_ssdm_op_SpecRegionBegin(...)

declare i32 @_ssdm_op_SpecRegionEnd(...)

declare void @_ssdm_op_SpecIFCore(...)

declare i8 @_ssdm_op_PartSelect.i8.i32.i32.i32(i32, i32, i32) nounwind readnone

declare i24 @_ssdm_op_BitConcatenate.i24.i8.i8.i8(i8, i8, i8) nounwind readnone

define void @sobel_filter(i32* %inter_pix.data.V, i4* %inter_pix.strb.V, i1* %inter_pix.user.V, i1* %inter_pix.last.V, i1* %inter_pix.tdest.V, i32* %out_pix.data.V, i4* %out_pix.strb.V, i1* %out_pix.user.V, i1* %out_pix.last.V, i1* %out_pix.tdest.V, i32 %rows, i32 %cols) nounwind {
entry:
  %"buff_A.M[0]" = alloca [1920 x i8], align 1    ; <[1920 x i8]*> [#uses=3]
  %"buff_A.M[1]" = alloca [1920 x i8], align 1    ; <[1920 x i8]*> [#uses=2]
  %"buff_A.M[2]" = alloca [1920 x i8], align 1    ; <[1920 x i8]*> [#uses=3]
  call void @llvm.dbg.value(metadata !{i32* %inter_pix.data.V}, i64 0, metadata !362)
  call void @llvm.dbg.value(metadata !{i4* %inter_pix.strb.V}, i64 0, metadata !1295)
  call void @llvm.dbg.value(metadata !{i1* %inter_pix.user.V}, i64 0, metadata !1307)
  call void @llvm.dbg.value(metadata !{i1* %inter_pix.last.V}, i64 0, metadata !1319)
  call void @llvm.dbg.value(metadata !{i1* %inter_pix.tdest.V}, i64 0, metadata !1320)
  call void @llvm.dbg.value(metadata !{i32* %out_pix.data.V}, i64 0, metadata !1321)
  call void @llvm.dbg.value(metadata !{i4* %out_pix.strb.V}, i64 0, metadata !1323)
  call void @llvm.dbg.value(metadata !{i1* %out_pix.user.V}, i64 0, metadata !1324)
  call void @llvm.dbg.value(metadata !{i1* %out_pix.last.V}, i64 0, metadata !1325)
  call void @llvm.dbg.value(metadata !{i1* %out_pix.tdest.V}, i64 0, metadata !1326)
  call void @llvm.dbg.value(metadata !{i32 %rows}, i64 0, metadata !1327)
  call void @llvm.dbg.value(metadata !{i32 %cols}, i64 0, metadata !1328)
  call void @llvm.dbg.declare(metadata !{[1920 x i8]* %"buff_A.M[0]"}, metadata !1329), !dbg !1361
  call void @llvm.dbg.declare(metadata !{[1920 x i8]* %"buff_A.M[1]"}, metadata !1362), !dbg !1361
  call void @llvm.dbg.declare(metadata !{[1920 x i8]* %"buff_A.M[2]"}, metadata !1363), !dbg !1361
  %tmp.1 = call i32 (...)* @_ssdm_op_SpecRegionBegin([14 x i8]* @.str24) nounwind, !dbg !1364 ; <i32> [#uses=1]
  %tmp.2 = call i32 (...)* @_ssdm_op_SpecRegionBegin([14 x i8]* @.str25) nounwind, !dbg !1364 ; <i32> [#uses=1]
  call void (...)* @_ssdm_op_SpecFifo(i32* %inter_pix.data.V, i4* %inter_pix.strb.V, i1* %inter_pix.user.V, i1* %inter_pix.last.V, i1* %inter_pix.tdest.V, [8 x i8]* @.str26, [1 x i8]* @.str20), !dbg !1364
  %0 = call i32 (...)* @_ssdm_op_SpecRegionEnd([14 x i8]* @.str25, i32 %tmp.2) nounwind, !dbg !1364 ; <i32> [#uses=0]
  call void (...)* @_ssdm_op_SpecIFCore(i32* %inter_pix.data.V, i4* %inter_pix.strb.V, i1* %inter_pix.user.V, i1* %inter_pix.last.V, i1* %inter_pix.tdest.V, [1 x i8]* @.str20, [5 x i8]* @.str27, [1 x i8]* @.str20, [1 x i8]* @.str20, [1 x i8]* @.str20, [25 x i8]* @.str28) nounwind, !dbg !1364
  call void (...)* @_ssdm_op_SpecIFCore(i32* %inter_pix.data.V, i4* %inter_pix.strb.V, i1* %inter_pix.user.V, i1* %inter_pix.last.V, i1* %inter_pix.tdest.V, [1 x i8]* @.str20, [5 x i8]* @.str27, [1 x i8]* @.str20, [1 x i8]* @.str20, [126 x i8]* @.str29, [1 x i8]* @.str20) nounwind, !dbg !1364
  %1 = call i32 (...)* @_ssdm_op_SpecRegionEnd([14 x i8]* @.str24, i32 %tmp.1) nounwind, !dbg !1364 ; <i32> [#uses=0]
  %tmp.3 = call i32 (...)* @_ssdm_op_SpecRegionBegin([14 x i8]* @.str30) nounwind, !dbg !1365 ; <i32> [#uses=1]
  %tmp.4 = call i32 (...)* @_ssdm_op_SpecRegionBegin([14 x i8]* @.str31) nounwind, !dbg !1365 ; <i32> [#uses=1]
  call void (...)* @_ssdm_op_SpecFifo(i32* %out_pix.data.V, i4* %out_pix.strb.V, i1* %out_pix.user.V, i1* %out_pix.last.V, i1* %out_pix.tdest.V, [8 x i8]* @.str26, [1 x i8]* @.str20), !dbg !1365
  %2 = call i32 (...)* @_ssdm_op_SpecRegionEnd([14 x i8]* @.str31, i32 %tmp.4) nounwind, !dbg !1365 ; <i32> [#uses=0]
  call void (...)* @_ssdm_op_SpecIFCore(i32* %out_pix.data.V, i4* %out_pix.strb.V, i1* %out_pix.user.V, i1* %out_pix.last.V, i1* %out_pix.tdest.V, [1 x i8]* @.str20, [5 x i8]* @.str27, [1 x i8]* @.str20, [1 x i8]* @.str20, [1 x i8]* @.str20, [26 x i8]* @.str32) nounwind, !dbg !1365
  call void (...)* @_ssdm_op_SpecIFCore(i32* %out_pix.data.V, i4* %out_pix.strb.V, i1* %out_pix.user.V, i1* %out_pix.last.V, i1* %out_pix.tdest.V, [1 x i8]* @.str20, [5 x i8]* @.str27, [1 x i8]* @.str20, [1 x i8]* @.str20, [116 x i8]* @.str33, [1 x i8]* @.str20) nounwind, !dbg !1365
  %3 = call i32 (...)* @_ssdm_op_SpecRegionEnd([14 x i8]* @.str30, i32 %tmp.3) nounwind, !dbg !1365 ; <i32> [#uses=0]
  %tmp.5 = call i32 (...)* @_ssdm_op_SpecRegionBegin([14 x i8]* @.str34) nounwind, !dbg !1366 ; <i32> [#uses=1]
  call void (...)* @_ssdm_op_SpecWire(i32 %rows, [8 x i8]* @.str35, [1 x i8]* @.str20) nounwind, !dbg !1366
  %4 = call i32 (...)* @_ssdm_op_SpecRegionEnd([14 x i8]* @.str34, i32 %tmp.5) nounwind, !dbg !1366 ; <i32> [#uses=0]
  %tmp.8 = call i32 (...)* @_ssdm_op_SpecRegionBegin([14 x i8]* @.str36) nounwind, !dbg !1367 ; <i32> [#uses=1]
  call void (...)* @_ssdm_op_SpecWire(i32 %cols, [8 x i8]* @.str35, [1 x i8]* @.str20) nounwind, !dbg !1367
  %5 = call i32 (...)* @_ssdm_op_SpecRegionEnd([14 x i8]* @.str36, i32 %tmp.8) nounwind, !dbg !1367 ; <i32> [#uses=0]
  %tmp.9 = call i32 (...)* @_ssdm_op_SpecRegionBegin([14 x i8]* @.str37) nounwind, !dbg !1368 ; <i32> [#uses=1]
  call void (...)* @_ssdm_op_SpecIFCore(i32 %rows, [1 x i8]* @.str20, [10 x i8]* @.str38, [1 x i8]* @.str20, [1 x i8]* @.str20, [1 x i8]* @.str20, [24 x i8]* @.str39) nounwind, !dbg !1368
  %6 = call i32 (...)* @_ssdm_op_SpecRegionEnd([14 x i8]* @.str37, i32 %tmp.9) nounwind, !dbg !1368 ; <i32> [#uses=0]
  %tmp.6 = call i32 (...)* @_ssdm_op_SpecRegionBegin([14 x i8]* @.str40) nounwind, !dbg !1369 ; <i32> [#uses=1]
  call void (...)* @_ssdm_op_SpecIFCore(i32 %cols, [1 x i8]* @.str20, [10 x i8]* @.str38, [1 x i8]* @.str20, [1 x i8]* @.str20, [1 x i8]* @.str20, [24 x i8]* @.str39) nounwind, !dbg !1369
  %7 = call i32 (...)* @_ssdm_op_SpecRegionEnd([14 x i8]* @.str40, i32 %tmp.6) nounwind, !dbg !1369 ; <i32> [#uses=0]
  %tmp.10 = call i32 (...)* @_ssdm_op_SpecRegionBegin([14 x i8]* @.str41) nounwind, !dbg !1370 ; <i32> [#uses=1]
  call void (...)* @_ssdm_op_SpecIFCore(i32 0, [1 x i8]* @.str20, [10 x i8]* @.str38, [1 x i8]* @.str20, [1 x i8]* @.str20, [66 x i8]* @.str42, [24 x i8]* @.str39) nounwind, !dbg !1370
  %8 = call i32 (...)* @_ssdm_op_SpecRegionEnd([14 x i8]* @.str41, i32 %tmp.10) nounwind, !dbg !1370 ; <i32> [#uses=0]
  call void @llvm.dbg.value(metadata !{i32 0}, i64 0, metadata !1371), !dbg !1372
  %tmp2 = add i32 %cols, 1                        ; <i32> [#uses=2]
  %tmp15.cast = trunc i32 %tmp2 to i31            ; <i31> [#uses=1]
  %tmp3 = add i32 %rows, 1                        ; <i32> [#uses=2]
  %tmp16.cast = trunc i32 %tmp3 to i31            ; <i31> [#uses=1]
  %tmp1 = icmp sgt i32 %tmp2, 0                   ; <i1> [#uses=1]
  %smax2 = select i1 %tmp1, i31 %tmp15.cast, i31 0 ; <i31> [#uses=1]
  %tmp4 = icmp sgt i32 %tmp3, 0                   ; <i1> [#uses=1]
  %smax = select i1 %tmp4, i31 %tmp16.cast, i31 0 ; <i31> [#uses=1]
  br label %bb23, !dbg !1372

bb1:                                              ; preds = %bb21
  %tmp.13 = call i32 (...)* @_ssdm_op_SpecRegionBegin([14 x i8]* @.str43) nounwind, !dbg !1373 ; <i32> [#uses=1]
  call void (...)* @_ssdm_SpecLoopFlatten(i32 1, [1 x i8]* @.str20) nounwind, !dbg !1375
  call void (...)* @_ssdm_SpecDependence([1920 x i8]* %"buff_A.M[0]", [1920 x i8]* %"buff_A.M[1]", [1920 x i8]* %"buff_A.M[2]", i32 0, i32 0, i32 -1, i32 0, i32 1) nounwind, !dbg !1376
  call void (...)* @_ssdm_op_SpecPipeline(i32 1, i32 1, i32 1, [1 x i8]* @.str20) nounwind, !dbg !1377
  %tmp. = icmp slt i32 %ColIndex.assign.cast, %cols, !dbg !1378 ; <i1> [#uses=5]
  br i1 %tmp., label %bb.i.0, label %bb3, !dbg !1378

bb.i.0:                                           ; preds = %bb1
  %"buff_A.M[1].addr" = getelementptr [1920 x i8]* %"buff_A.M[1]", i32 0, i32 %ColIndex.assign.cast ; <i8*> [#uses=2]
  %"buff_A.M[1].load" = load i8* %"buff_A.M[1].addr", align 1, !dbg !1379 ; <i8> [#uses=1]
  %"buff_A.M[2].addr" = getelementptr [1920 x i8]* %"buff_A.M[2]", i32 0, i32 %ColIndex.assign.cast ; <i8*> [#uses=1]
  store i8 %"buff_A.M[1].load", i8* %"buff_A.M[2].addr", align 1, !dbg !1379
  %"buff_A.M[0].addr" = getelementptr [1920 x i8]* %"buff_A.M[0]", i32 0, i32 %ColIndex.assign.cast ; <i8*> [#uses=1]
  %return_value.1 = load i8* %"buff_A.M[0].addr", align 1, !dbg !1379 ; <i8> [#uses=2]
  store i8 %return_value.1, i8* %"buff_A.M[1].addr", align 1, !dbg !1379
  call void @llvm.dbg.value(metadata !{i32 0}, i64 0, metadata !1383) nounwind
  call void @llvm.dbg.value(metadata !{i31 %ColIndex.assign}, i64 0, metadata !1384) nounwind
  call void @llvm.dbg.value(metadata !{i8 %return_value.1}, i64 0, metadata !1385) nounwind, !dbg !1388
  call void @llvm.dbg.value(metadata !{i8 %return_value.1}, i64 0, metadata !1390), !dbg !1389
  br label %bb3, !dbg !1389

bb3:                                              ; preds = %bb.i.0, %bb1
  %temp.4 = phi i8 [ %return_value.1, %bb.i.0 ], [ %temp.1, %bb1 ] ; <i8> [#uses=2]
  call void @llvm.dbg.value(metadata !{i8 %temp.4}, i64 0, metadata !1390)
  %tmp.11 = icmp slt i32 %row.cast, %rows, !dbg !1391 ; <i1> [#uses=1]
  %tmp.12 = and i1 %tmp., %tmp.11, !dbg !1391     ; <i1> [#uses=1]
  br i1 %tmp.12, label %bb5, label %bb.i463.0_ifconv, !dbg !1391

bb5:                                              ; preds = %bb3
  %input_pixel.data.V = volatile load i32* %inter_pix.data.V, align 4, !dbg !1392 ; <i32> [#uses=3]
  call void @llvm.dbg.value(metadata !{i32 %input_pixel.data.V}, i64 0, metadata !1397), !dbg !1392
  %input_pixel.strb.V.0 = volatile load i4* %inter_pix.strb.V, align 1, !dbg !1399 ; <i4> [#uses=0]
  call void @llvm.dbg.value(metadata !{i4 %input_pixel.strb.V.0}, i64 0, metadata !1401), !dbg !1399
  %input_pixel.user.V.0 = volatile load i1* %inter_pix.user.V, align 1, !dbg !1402 ; <i1> [#uses=0]
  call void @llvm.dbg.value(metadata !{i1 %input_pixel.user.V.0}, i64 0, metadata !1404), !dbg !1402
  %input_pixel.last.V.0 = volatile load i1* %inter_pix.last.V, align 1, !dbg !1402 ; <i1> [#uses=0]
  call void @llvm.dbg.value(metadata !{i1 %input_pixel.last.V.0}, i64 0, metadata !1405), !dbg !1402
  %input_pixel.tdest.V.0 = volatile load i1* %inter_pix.tdest.V, align 1, !dbg !1402 ; <i1> [#uses=0]
  call void @llvm.dbg.value(metadata !{i1 %input_pixel.tdest.V.0}, i64 0, metadata !1406), !dbg !1402
  call void @llvm.dbg.value(metadata !1407, i64 0, metadata !1408)
  call void @llvm.dbg.value(metadata !{i32 0}, i64 0, metadata !1409)
  call void @llvm.dbg.value(metadata !1407, i64 0, metadata !1410)
  call void @llvm.dbg.value(metadata !{i32 0}, i64 0, metadata !1412)
  call void @llvm.dbg.value(metadata !{i32 0}, i64 0, metadata !1413), !dbg !1417
  call void @llvm.dbg.value(metadata !{i32 %input_pixel.data.V}, i64 0, metadata !1429), !dbg !1417
  %new_pix.B.V = call i8 @_ssdm_op_PartSelect.i8.i32.i32.i32(i32 %input_pixel.data.V, i32 0, i32 7), !dbg !1417 ; <i8> [#uses=2]
  call void @llvm.dbg.value(metadata !{i8 %new_pix.B.V}, i64 0, metadata !1430), !dbg !1442
  call void @llvm.dbg.value(metadata !1444, i64 0, metadata !1408)
  call void @llvm.dbg.value(metadata !{i32 8}, i64 0, metadata !1409)
  call void @llvm.dbg.value(metadata !1444, i64 0, metadata !1410)
  call void @llvm.dbg.value(metadata !{i32 8}, i64 0, metadata !1412)
  call void @llvm.dbg.value(metadata !{i32 0}, i64 0, metadata !1413), !dbg !1445
  call void @llvm.dbg.value(metadata !{i32 %input_pixel.data.V}, i64 0, metadata !1429), !dbg !1445
  %new_pix.G.V = call i8 @_ssdm_op_PartSelect.i8.i32.i32.i32(i32 %input_pixel.data.V, i32 8, i32 15), !dbg !1445 ; <i8> [#uses=3]
  call void @llvm.dbg.value(metadata !{i8 %new_pix.G.V}, i64 0, metadata !1449), !dbg !1450
  call void @llvm.dbg.value(metadata !1451, i64 0, metadata !1408)
  call void @llvm.dbg.value(metadata !1452, i64 0, metadata !1409)
  call void @llvm.dbg.value(metadata !1451, i64 0, metadata !1410)
  call void @llvm.dbg.value(metadata !1452, i64 0, metadata !1412)
  call void @llvm.dbg.value(metadata !{i32 0}, i64 0, metadata !1413), !dbg !1453
  call void @llvm.dbg.value(metadata !{i32 %input_pixel.data.V}, i64 0, metadata !1429), !dbg !1453
  %new_pix.R.V = call i8 @_ssdm_op_PartSelect.i8.i32.i32.i32(i32 %input_pixel.data.V, i32 16, i32 23), !dbg !1453 ; <i8> [#uses=3]
  call void @llvm.dbg.value(metadata !{i8 %new_pix.R.V}, i64 0, metadata !1457), !dbg !1458
  call void @llvm.dbg.value(metadata !{i8 %new_pix.B.V}, i64 0, metadata !1459), !dbg !1461
  call void @llvm.dbg.value(metadata !{i8 %new_pix.G.V}, i64 0, metadata !1464), !dbg !1461
  call void @llvm.dbg.value(metadata !{i8 %new_pix.R.V}, i64 0, metadata !1465), !dbg !1461
  call void @llvm.dbg.value(metadata !{i8 %new_pix.B.V}, i64 0, metadata !1466), !dbg !1471
  call void @llvm.dbg.value(metadata !{i8 %new_pix.G.V}, i64 0, metadata !1473), !dbg !1471
  call void @llvm.dbg.value(metadata !{i8 %new_pix.R.V}, i64 0, metadata !1474), !dbg !1471
  %retval.i.i.cast1 = zext i8 %new_pix.R.V to i9, !dbg !1475 ; <i9> [#uses=1]
  %retval.i.i.cast = zext i8 %new_pix.R.V to i14, !dbg !1475 ; <i14> [#uses=1]
  %_shl.i = shl i14 %retval.i.i.cast, 6, !dbg !1475 ; <i14> [#uses=1]
  %_shl.i.cast = zext i14 %_shl.i to i16, !dbg !1475 ; <i16> [#uses=1]
  %_shl1.i = shl i9 %retval.i.i.cast1, 1, !dbg !1475 ; <i9> [#uses=1]
  %_shl1.i.cast = zext i9 %_shl1.i to i16, !dbg !1475 ; <i16> [#uses=1]
  %retval.i5.i.cast1 = zext i8 %new_pix.G.V to i9, !dbg !1475 ; <i9> [#uses=1]
  %retval.i5.i.cast = zext i8 %new_pix.G.V to i15, !dbg !1475 ; <i15> [#uses=1]
  %_shl2.i = shl i15 %retval.i5.i.cast, 7, !dbg !1475 ; <i15> [#uses=1]
  %_shl2.i.cast = zext i15 %_shl2.i to i16, !dbg !1475 ; <i16> [#uses=1]
  %retval.i2.i.cast = zext i8 %new_pix.B.V to i13, !dbg !1475 ; <i13> [#uses=1]
  %tmp.2.i = mul i13 %retval.i2.i.cast, 25, !dbg !1475 ; <i13> [#uses=1]
  %tmp5 = add i16 %_shl1.i.cast, %_shl2.i.cast, !dbg !1475 ; <i16> [#uses=1]
  %tmp = add i16 %tmp5, %_shl.i.cast, !dbg !1475  ; <i16> [#uses=1]
  %tmp6 = add i9 %retval.i5.i.cast1, 128, !dbg !1475 ; <i9> [#uses=1]
  %tmp31.cast = zext i9 %tmp6 to i13, !dbg !1475  ; <i13> [#uses=1]
  %tmp7 = add i13 %tmp31.cast, %tmp.2.i, !dbg !1475 ; <i13> [#uses=1]
  %tmp30.cast = zext i13 %tmp7 to i16, !dbg !1475 ; <i16> [#uses=1]
  %tmp.5.i = add i16 %tmp30.cast, %tmp, !dbg !1475 ; <i16> [#uses=1]
  %tmp.6.i = lshr i16 %tmp.5.i, 8                 ; <i16> [#uses=1]
  %tmp.7.i = trunc i16 %tmp.6.i to i8, !dbg !1475 ; <i8> [#uses=1]
  %y = add i8 %tmp.7.i, 16, !dbg !1475            ; <i8> [#uses=1]
  call void @llvm.dbg.value(metadata !{i8 %y}, i64 0, metadata !1478), !dbg !1475
  call void @llvm.dbg.value(metadata !{i8 %y}, i64 0, metadata !1479)
  call void @llvm.dbg.value(metadata !{i31 %ColIndex.assign}, i64 0, metadata !1480)
  %"buff_A.M[0].addr.1" = getelementptr [1920 x i8]* %"buff_A.M[0]", i32 0, i32 %ColIndex.assign.cast ; <i8*> [#uses=1]
  store i8 %y, i8* %"buff_A.M[0].addr.1", align 1, !dbg !1481
  br label %bb.i463.0_ifconv, !dbg !1472

bb.i463.0_ifconv:                                 ; preds = %bb5, %bb3
  %tempx.R.V.4 = phi i8 [ %new_pix.R.V, %bb5 ], [ %tempx.R.V.1, %bb3 ] ; <i8> [#uses=3]
  %tempx.G.V.4 = phi i8 [ %new_pix.G.V, %bb5 ], [ %tempx.G.V.1, %bb3 ] ; <i8> [#uses=3]
  %tempx.B.V.4 = phi i8 [ %new_pix.B.V, %bb5 ], [ %tempx.B.V.1, %bb3 ] ; <i8> [#uses=2]
  call void @llvm.dbg.value(metadata !{i8 %tempx.R.V.4}, i64 0, metadata !1465)
  call void @llvm.dbg.value(metadata !{i8 %tempx.G.V.4}, i64 0, metadata !1464)
  call void @llvm.dbg.value(metadata !{i8 %tempx.B.V.4}, i64 0, metadata !1459)
  call void @llvm.dbg.value(metadata !{i32 0}, i64 0, metadata !1483) nounwind, !dbg !1486
  call void @llvm.dbg.value(metadata !{i8 %"buff_C.M[0][0]"}, i64 0, metadata !1488), !dbg !1492
  call void @llvm.dbg.value(metadata !{i32 1}, i64 0, metadata !1483) nounwind, !dbg !1486
  call void @llvm.dbg.value(metadata !{i8 %"buff_C.M[0][1].3"}, i64 0, metadata !1493), !dbg !1492
  call void @llvm.dbg.value(metadata !{i32 2}, i64 0, metadata !1483) nounwind, !dbg !1486
  call void @llvm.dbg.value(metadata !{i32 1}, i64 0, metadata !1494) nounwind, !dbg !1495
  call void @llvm.dbg.value(metadata !{i32 0}, i64 0, metadata !1483) nounwind, !dbg !1486
  call void @llvm.dbg.value(metadata !{i8 %"buff_C.M[1][0]"}, i64 0, metadata !1496), !dbg !1492
  call void @llvm.dbg.value(metadata !{i32 1}, i64 0, metadata !1483) nounwind, !dbg !1486
  call void @llvm.dbg.value(metadata !{i8 %"buff_C.M[1][1].2"}, i64 0, metadata !1497), !dbg !1492
  call void @llvm.dbg.value(metadata !{i32 2}, i64 0, metadata !1483) nounwind, !dbg !1486
  call void @llvm.dbg.value(metadata !{i32 2}, i64 0, metadata !1494) nounwind, !dbg !1495
  call void @llvm.dbg.value(metadata !{i32 0}, i64 0, metadata !1483) nounwind, !dbg !1486
  call void @llvm.dbg.value(metadata !{i8 %"buff_C.M[2][0]"}, i64 0, metadata !1498), !dbg !1492
  call void @llvm.dbg.value(metadata !{i32 1}, i64 0, metadata !1483) nounwind, !dbg !1486
  call void @llvm.dbg.value(metadata !{i8 %"buff_C.M[2][1].3"}, i64 0, metadata !1499), !dbg !1492
  call void @llvm.dbg.value(metadata !{i32 2}, i64 0, metadata !1483) nounwind, !dbg !1486
  call void @llvm.dbg.value(metadata !{i32 3}, i64 0, metadata !1494) nounwind, !dbg !1495
  call void @llvm.dbg.value(metadata !{i32 2}, i64 0, metadata !1383) nounwind
  call void @llvm.dbg.value(metadata !{i31 %ColIndex.assign}, i64 0, metadata !1384) nounwind
  %"buff_A.M[2].addr.1" = getelementptr [1920 x i8]* %"buff_A.M[2]", i32 0, i32 %ColIndex.assign.cast ; <i8*> [#uses=1]
  %return_value.2 = load i8* %"buff_A.M[2].addr.1", align 1, !dbg !1500 ; <i8> [#uses=1]
  call void @llvm.dbg.value(metadata !{i8 %return_value.2}, i64 0, metadata !1385) nounwind, !dbg !1500
  call void @llvm.dbg.value(metadata !{i8 %return_value.2}, i64 0, metadata !1502)
  call void @llvm.dbg.value(metadata !{i32 0}, i64 0, metadata !1503)
  call void @llvm.dbg.value(metadata !{i32 2}, i64 0, metadata !1504)
  call void @llvm.dbg.value(metadata !{i8 %return_value.2}, i64 0, metadata !1505), !dbg !1506
  call void @llvm.dbg.value(metadata !{i8 %temp.4}, i64 0, metadata !1502)
  call void @llvm.dbg.value(metadata !{i32 1}, i64 0, metadata !1503)
  call void @llvm.dbg.value(metadata !{i32 2}, i64 0, metadata !1504)
  call void @llvm.dbg.value(metadata !{i8 %temp.4}, i64 0, metadata !1508), !dbg !1509
  call void @llvm.dbg.value(metadata !{i8 %tempx.B.V.4}, i64 0, metadata !1466), !dbg !1511
  call void @llvm.dbg.value(metadata !{i8 %tempx.G.V.4}, i64 0, metadata !1473), !dbg !1511
  call void @llvm.dbg.value(metadata !{i8 %tempx.R.V.4}, i64 0, metadata !1474), !dbg !1511
  %retval.i.i1.cast1 = zext i8 %tempx.R.V.4 to i9, !dbg !1513 ; <i9> [#uses=1]
  %retval.i.i1.cast = zext i8 %tempx.R.V.4 to i14, !dbg !1513 ; <i14> [#uses=1]
  %_shl.i1 = shl i14 %retval.i.i1.cast, 6, !dbg !1513 ; <i14> [#uses=1]
  %_shl.i1.cast = zext i14 %_shl.i1 to i16, !dbg !1513 ; <i16> [#uses=1]
  %_shl1.i1 = shl i9 %retval.i.i1.cast1, 1, !dbg !1513 ; <i9> [#uses=1]
  %_shl1.i1.cast = zext i9 %_shl1.i1 to i16, !dbg !1513 ; <i16> [#uses=1]
  %retval.i5.i1.cast1 = zext i8 %tempx.G.V.4 to i9, !dbg !1513 ; <i9> [#uses=1]
  %retval.i5.i1.cast = zext i8 %tempx.G.V.4 to i15, !dbg !1513 ; <i15> [#uses=1]
  %_shl2.i1 = shl i15 %retval.i5.i1.cast, 7, !dbg !1513 ; <i15> [#uses=1]
  %_shl2.i1.cast = zext i15 %_shl2.i1 to i16, !dbg !1513 ; <i16> [#uses=1]
  %retval.i2.i1.cast = zext i8 %tempx.B.V.4 to i13, !dbg !1513 ; <i13> [#uses=1]
  %tmp.2.i1 = mul i13 %retval.i2.i1.cast, 25, !dbg !1513 ; <i13> [#uses=1]
  %tmp8 = add i16 %_shl1.i1.cast, %_shl2.i1.cast, !dbg !1513 ; <i16> [#uses=1]
  %tmp9 = add i16 %tmp8, %_shl.i1.cast, !dbg !1513 ; <i16> [#uses=1]
  %tmp10 = add i9 %retval.i5.i1.cast1, 128, !dbg !1513 ; <i9> [#uses=1]
  %tmp35.cast = zext i9 %tmp10 to i13, !dbg !1513 ; <i13> [#uses=1]
  %tmp11 = add i13 %tmp35.cast, %tmp.2.i1, !dbg !1513 ; <i13> [#uses=1]
  %tmp34.cast = zext i13 %tmp11 to i16, !dbg !1513 ; <i16> [#uses=1]
  %tmp.5.i1 = add i16 %tmp34.cast, %tmp9, !dbg !1513 ; <i16> [#uses=1]
  %tmp.6.i1 = lshr i16 %tmp.5.i1, 8               ; <i16> [#uses=1]
  %tmp.7.i1 = trunc i16 %tmp.6.i1 to i8, !dbg !1513 ; <i8> [#uses=1]
  %y.1 = add i8 %tmp.7.i1, 16, !dbg !1513         ; <i8> [#uses=1]
  call void @llvm.dbg.value(metadata !{i8 %y.1}, i64 0, metadata !1478), !dbg !1513
  call void @llvm.dbg.value(metadata !{i8 %y.1}, i64 0, metadata !1502)
  call void @llvm.dbg.value(metadata !{i32 2}, i64 0, metadata !1503)
  call void @llvm.dbg.value(metadata !{i32 2}, i64 0, metadata !1504)
  call void @llvm.dbg.value(metadata !{i8 %y.1}, i64 0, metadata !1514), !dbg !1515
  %"buff_C.M[1][2].4" = select i1 %tmp., i8 %temp.4, i8 %"buff_C.M[1][1].2" ; <i8> [#uses=2]
  call void @llvm.dbg.value(metadata !{i8 %"buff_C.M[1][2].4"}, i64 0, metadata !1508)
  %"buff_C.M[0][2].4" = select i1 %tmp., i8 %return_value.2, i8 %"buff_C.M[0][1].3" ; <i8> [#uses=2]
  call void @llvm.dbg.value(metadata !{i8 %"buff_C.M[0][2].4"}, i64 0, metadata !1505)
  %"buff_C.M[2][2].4" = select i1 %tmp., i8 %y.1, i8 %"buff_C.M[2][1].3", !dbg !1516 ; <i8> [#uses=2]
  call void @llvm.dbg.value(metadata !{i8 %"buff_C.M[2][2].4"}, i64 0, metadata !1514)
  call void @llvm.dbg.value(metadata !{i8 %"buff_C.M[1][2].4"}, i64 0, metadata !1508)
  call void @llvm.dbg.value(metadata !{i8 %"buff_C.M[0][2].4"}, i64 0, metadata !1505)
  call void @llvm.dbg.value(metadata !{i8 %"buff_C.M[2][2].4"}, i64 0, metadata !1514)
  %icmp = icmp ult i31 %ColIndex.assign, 2, !dbg !1523 ; <i1> [#uses=2]
  %or.cond = or i1 %icmp1, %icmp, !dbg !1523      ; <i1> [#uses=2]
  %tmp.14 = add nsw i32 %rows, -1, !dbg !1523     ; <i32> [#uses=1]
  %tmp.15 = icmp slt i32 %tmp.14, %row.cast, !dbg !1523 ; <i1> [#uses=2]
  %tmp.16 = add nsw i32 %cols, -1, !dbg !1523     ; <i32> [#uses=1]
  %tmp.17 = icmp slt i32 %tmp.16, %ColIndex.assign.cast, !dbg !1523 ; <i1> [#uses=2]
  call void @llvm.dbg.value(metadata !{i8 0}, i64 0, metadata !1524)
  call void @llvm.dbg.value(metadata !{i8 0}, i64 0, metadata !1527)
  call void @llvm.dbg.value(metadata !{i8 0}, i64 0, metadata !1528)
  call void @llvm.dbg.value(metadata !{i8 %"buff_C.M[0][0]"}, i64 0, metadata !1529)
  call void @llvm.dbg.value(metadata !{i8 %"buff_C.M[0][1].3"}, i64 0, metadata !1531)
  call void @llvm.dbg.value(metadata !{i8 %"buff_C.M[0][2].4"}, i64 0, metadata !1532)
  call void @llvm.dbg.value(metadata !{i8 %"buff_C.M[1][0]"}, i64 0, metadata !1533)
  call void @llvm.dbg.value(metadata !{i8* null}, i64 0, metadata !1534)
  call void @llvm.dbg.value(metadata !{i8 %"buff_C.M[1][2].4"}, i64 0, metadata !1536)
  call void @llvm.dbg.value(metadata !{i8 %"buff_C.M[2][0]"}, i64 0, metadata !1537)
  call void @llvm.dbg.value(metadata !{i8 %"buff_C.M[2][1].3"}, i64 0, metadata !1538)
  call void @llvm.dbg.value(metadata !{i8 %"buff_C.M[2][2].4"}, i64 0, metadata !1539)
  call void @llvm.dbg.value(metadata !{i16 0}, i64 0, metadata !1540), !dbg !1541
  call void @llvm.dbg.value(metadata !{i16 0}, i64 0, metadata !1542), !dbg !1543
  call void @llvm.dbg.value(metadata !{i8 0}, i64 0, metadata !1544)
  call void @llvm.dbg.value(metadata !{i8 0}, i64 0, metadata !1549)
  call void @llvm.dbg.value(metadata !{i8 0}, i64 0, metadata !1550)
  call void @llvm.dbg.value(metadata !{i8 0}, i64 0, metadata !1551), !dbg !1552
  call void @llvm.dbg.value(metadata !{i8 %"buff_C.M[0][0]"}, i64 0, metadata !1553)
  call void @llvm.dbg.value(metadata !{i8 %"buff_C.M[0][1].3"}, i64 0, metadata !1557)
  call void @llvm.dbg.value(metadata !{i8 %"buff_C.M[0][2].4"}, i64 0, metadata !1558)
  call void @llvm.dbg.value(metadata !{i8 %"buff_C.M[1][0]"}, i64 0, metadata !1559)
  call void @llvm.dbg.value(metadata !{i8* null}, i64 0, metadata !1560)
  call void @llvm.dbg.value(metadata !{i8 %"buff_C.M[1][2].4"}, i64 0, metadata !1561)
  call void @llvm.dbg.value(metadata !{i8 %"buff_C.M[2][0]"}, i64 0, metadata !1562)
  call void @llvm.dbg.value(metadata !{i8 %"buff_C.M[2][1].3"}, i64 0, metadata !1563)
  call void @llvm.dbg.value(metadata !{i8 %"buff_C.M[2][2].4"}, i64 0, metadata !1564)
  call void @llvm.dbg.value(metadata !{i32 0}, i64 0, metadata !1565) nounwind
  call void @llvm.dbg.value(metadata !{i32 0}, i64 0, metadata !1566) nounwind
  call void @llvm.dbg.value(metadata !{i8 %"buff_C.M[0][0]"}, i64 0, metadata !1567) nounwind, !dbg !1568
  %y_weight.cast = zext i8 %"buff_C.M[0][0]" to i9 ; <i9> [#uses=2]
  call void @llvm.dbg.value(metadata !{i8 %"buff_C.M[0][0]"}, i64 0, metadata !1553)
  call void @llvm.dbg.value(metadata !{i8 %"buff_C.M[0][1].3"}, i64 0, metadata !1557)
  call void @llvm.dbg.value(metadata !{i8 %"buff_C.M[0][2].4"}, i64 0, metadata !1558)
  call void @llvm.dbg.value(metadata !{i8 %"buff_C.M[1][0]"}, i64 0, metadata !1559)
  call void @llvm.dbg.value(metadata !{i8* null}, i64 0, metadata !1560)
  call void @llvm.dbg.value(metadata !{i8 %"buff_C.M[1][2].4"}, i64 0, metadata !1561)
  call void @llvm.dbg.value(metadata !{i8 %"buff_C.M[2][0]"}, i64 0, metadata !1562)
  call void @llvm.dbg.value(metadata !{i8 %"buff_C.M[2][1].3"}, i64 0, metadata !1563)
  call void @llvm.dbg.value(metadata !{i8 %"buff_C.M[2][2].4"}, i64 0, metadata !1564)
  call void @llvm.dbg.value(metadata !{i32 0}, i64 0, metadata !1565) nounwind
  call void @llvm.dbg.value(metadata !{i32 0}, i64 0, metadata !1566) nounwind
  call void @llvm.dbg.value(metadata !{i8 %"buff_C.M[0][0]"}, i64 0, metadata !1567) nounwind, !dbg !1516
  call void @llvm.dbg.value(metadata !{i8 1}, i64 0, metadata !1570), !dbg !1571
  call void @llvm.dbg.value(metadata !{i8 %"buff_C.M[0][0]"}, i64 0, metadata !1553)
  call void @llvm.dbg.value(metadata !{i8 %"buff_C.M[0][1].3"}, i64 0, metadata !1557)
  call void @llvm.dbg.value(metadata !{i8 %"buff_C.M[0][2].4"}, i64 0, metadata !1558)
  call void @llvm.dbg.value(metadata !{i8 %"buff_C.M[1][0]"}, i64 0, metadata !1559)
  call void @llvm.dbg.value(metadata !{i8* null}, i64 0, metadata !1560)
  call void @llvm.dbg.value(metadata !{i8 %"buff_C.M[1][2].4"}, i64 0, metadata !1561)
  call void @llvm.dbg.value(metadata !{i8 %"buff_C.M[2][0]"}, i64 0, metadata !1562)
  call void @llvm.dbg.value(metadata !{i8 %"buff_C.M[2][1].3"}, i64 0, metadata !1563)
  call void @llvm.dbg.value(metadata !{i8 %"buff_C.M[2][2].4"}, i64 0, metadata !1564)
  call void @llvm.dbg.value(metadata !{i32 0}, i64 0, metadata !1565) nounwind
  call void @llvm.dbg.value(metadata !{i32 1}, i64 0, metadata !1566) nounwind
  call void @llvm.dbg.value(metadata !{i8 %"buff_C.M[0][1].3"}, i64 0, metadata !1567) nounwind, !dbg !1568
  %tmp.1.0.1.i.cast = zext i8 %"buff_C.M[0][1].3" to i9 ; <i9> [#uses=1]
  call void @llvm.dbg.value(metadata !{i8 %"buff_C.M[0][0]"}, i64 0, metadata !1553)
  call void @llvm.dbg.value(metadata !{i8 %"buff_C.M[0][1].3"}, i64 0, metadata !1557)
  call void @llvm.dbg.value(metadata !{i8 %"buff_C.M[0][2].4"}, i64 0, metadata !1558)
  call void @llvm.dbg.value(metadata !{i8 %"buff_C.M[1][0]"}, i64 0, metadata !1559)
  call void @llvm.dbg.value(metadata !{i8* null}, i64 0, metadata !1560)
  call void @llvm.dbg.value(metadata !{i8 %"buff_C.M[1][2].4"}, i64 0, metadata !1561)
  call void @llvm.dbg.value(metadata !{i8 %"buff_C.M[2][0]"}, i64 0, metadata !1562)
  call void @llvm.dbg.value(metadata !{i8 %"buff_C.M[2][1].3"}, i64 0, metadata !1563)
  call void @llvm.dbg.value(metadata !{i8 %"buff_C.M[2][2].4"}, i64 0, metadata !1564)
  call void @llvm.dbg.value(metadata !{i32 0}, i64 0, metadata !1565) nounwind
  call void @llvm.dbg.value(metadata !{i32 1}, i64 0, metadata !1566) nounwind
  call void @llvm.dbg.value(metadata !{i8 %"buff_C.M[0][1].3"}, i64 0, metadata !1567) nounwind, !dbg !1516
  %tmp.5.0.1.i = shl i9 %tmp.1.0.1.i.cast, 1, !dbg !1519 ; <i9> [#uses=1]
  %tmp.5.0.1.i.cast = zext i9 %tmp.5.0.1.i to i10, !dbg !1519 ; <i10> [#uses=1]
  call void @llvm.dbg.value(metadata !{i8 2}, i64 0, metadata !1570), !dbg !1571
  call void @llvm.dbg.value(metadata !{i8 %"buff_C.M[0][0]"}, i64 0, metadata !1553)
  call void @llvm.dbg.value(metadata !{i8 %"buff_C.M[0][1].3"}, i64 0, metadata !1557)
  call void @llvm.dbg.value(metadata !{i8 %"buff_C.M[0][2].4"}, i64 0, metadata !1558)
  call void @llvm.dbg.value(metadata !{i8 %"buff_C.M[1][0]"}, i64 0, metadata !1559)
  call void @llvm.dbg.value(metadata !{i8* null}, i64 0, metadata !1560)
  call void @llvm.dbg.value(metadata !{i8 %"buff_C.M[1][2].4"}, i64 0, metadata !1561)
  call void @llvm.dbg.value(metadata !{i8 %"buff_C.M[2][0]"}, i64 0, metadata !1562)
  call void @llvm.dbg.value(metadata !{i8 %"buff_C.M[2][1].3"}, i64 0, metadata !1563)
  call void @llvm.dbg.value(metadata !{i8 %"buff_C.M[2][2].4"}, i64 0, metadata !1564)
  call void @llvm.dbg.value(metadata !{i32 0}, i64 0, metadata !1565) nounwind
  call void @llvm.dbg.value(metadata !{i32 2}, i64 0, metadata !1566) nounwind
  call void @llvm.dbg.value(metadata !{i8 %"buff_C.M[0][2].4"}, i64 0, metadata !1567) nounwind, !dbg !1568
  %tmp.1.0.2.i.cast = zext i8 %"buff_C.M[0][2].4" to i9, !dbg !1569 ; <i9> [#uses=2]
  %x_weight = sub i9 %tmp.1.0.2.i.cast, %y_weight.cast, !dbg !1569 ; <i9> [#uses=1]
  %x_weight.cast = sext i9 %x_weight to i11, !dbg !1569 ; <i11> [#uses=1]
  call void @llvm.dbg.value(metadata !{i9 %x_weight}, i64 0, metadata !1540)
  call void @llvm.dbg.value(metadata !{i9 %x_weight}, i64 0, metadata !1540)
  call void @llvm.dbg.value(metadata !{i9 %x_weight}, i64 0, metadata !1540)
  call void @llvm.dbg.value(metadata !{i9 %x_weight}, i64 0, metadata !1540), !dbg !1569
  call void @llvm.dbg.value(metadata !{i8 %"buff_C.M[0][0]"}, i64 0, metadata !1553)
  call void @llvm.dbg.value(metadata !{i8 %"buff_C.M[0][1].3"}, i64 0, metadata !1557)
  call void @llvm.dbg.value(metadata !{i8 %"buff_C.M[0][2].4"}, i64 0, metadata !1558)
  call void @llvm.dbg.value(metadata !{i8 %"buff_C.M[1][0]"}, i64 0, metadata !1559)
  call void @llvm.dbg.value(metadata !{i8* null}, i64 0, metadata !1560)
  call void @llvm.dbg.value(metadata !{i8 %"buff_C.M[1][2].4"}, i64 0, metadata !1561)
  call void @llvm.dbg.value(metadata !{i8 %"buff_C.M[2][0]"}, i64 0, metadata !1562)
  call void @llvm.dbg.value(metadata !{i8 %"buff_C.M[2][1].3"}, i64 0, metadata !1563)
  call void @llvm.dbg.value(metadata !{i8 %"buff_C.M[2][2].4"}, i64 0, metadata !1564)
  call void @llvm.dbg.value(metadata !{i32 0}, i64 0, metadata !1565) nounwind
  call void @llvm.dbg.value(metadata !{i32 2}, i64 0, metadata !1566) nounwind
  call void @llvm.dbg.value(metadata !{i8 %"buff_C.M[0][2].4"}, i64 0, metadata !1567) nounwind, !dbg !1516
  %tmp12 = add i9 %y_weight.cast, %tmp.1.0.2.i.cast, !dbg !1519 ; <i9> [#uses=1]
  %tmp36.cast = zext i9 %tmp12 to i10, !dbg !1519 ; <i10> [#uses=1]
  %y_weight = add i10 %tmp36.cast, %tmp.5.0.1.i.cast, !dbg !1519 ; <i10> [#uses=1]
  %y_weight.2.cast = zext i10 %y_weight to i11, !dbg !1519 ; <i11> [#uses=1]
  call void @llvm.dbg.value(metadata !{i10 %y_weight}, i64 0, metadata !1542)
  call void @llvm.dbg.value(metadata !{i10 %y_weight}, i64 0, metadata !1542)
  call void @llvm.dbg.value(metadata !{i10 %y_weight}, i64 0, metadata !1542)
  call void @llvm.dbg.value(metadata !{i10 %y_weight}, i64 0, metadata !1542)
  call void @llvm.dbg.value(metadata !{i10 %y_weight}, i64 0, metadata !1542)
  call void @llvm.dbg.value(metadata !{i10 %y_weight}, i64 0, metadata !1542)
  call void @llvm.dbg.value(metadata !{i10 %y_weight}, i64 0, metadata !1542)
  call void @llvm.dbg.value(metadata !{i10 %y_weight}, i64 0, metadata !1542)
  call void @llvm.dbg.value(metadata !{i10 %y_weight}, i64 0, metadata !1542), !dbg !1519
  call void @llvm.dbg.value(metadata !{i8 3}, i64 0, metadata !1570), !dbg !1571
  call void @llvm.dbg.value(metadata !{i8 %"buff_C.M[0][0]"}, i64 0, metadata !1553)
  call void @llvm.dbg.value(metadata !{i8 %"buff_C.M[0][1].3"}, i64 0, metadata !1557)
  call void @llvm.dbg.value(metadata !{i8 %"buff_C.M[0][2].4"}, i64 0, metadata !1558)
  call void @llvm.dbg.value(metadata !{i8 %"buff_C.M[1][0]"}, i64 0, metadata !1559)
  call void @llvm.dbg.value(metadata !{i8* null}, i64 0, metadata !1560)
  call void @llvm.dbg.value(metadata !{i8 %"buff_C.M[1][2].4"}, i64 0, metadata !1561)
  call void @llvm.dbg.value(metadata !{i8 %"buff_C.M[2][0]"}, i64 0, metadata !1562)
  call void @llvm.dbg.value(metadata !{i8 %"buff_C.M[2][1].3"}, i64 0, metadata !1563)
  call void @llvm.dbg.value(metadata !{i8 %"buff_C.M[2][2].4"}, i64 0, metadata !1564)
  call void @llvm.dbg.value(metadata !{i32 1}, i64 0, metadata !1565) nounwind
  call void @llvm.dbg.value(metadata !{i32 0}, i64 0, metadata !1566) nounwind
  call void @llvm.dbg.value(metadata !{i8 %"buff_C.M[1][0]"}, i64 0, metadata !1567) nounwind, !dbg !1568
  %tmp.1.1.0.i.cast = zext i8 %"buff_C.M[1][0]" to i9, !dbg !1569 ; <i9> [#uses=1]
  %_shl.i2 = shl i9 %tmp.1.1.0.i.cast, 1, !dbg !1569 ; <i9> [#uses=1]
  %_shl.i2.cast = zext i9 %_shl.i2 to i11, !dbg !1569 ; <i11> [#uses=1]
  %x_weight.1 = sub i11 %x_weight.cast, %_shl.i2.cast, !dbg !1569 ; <i11> [#uses=1]
  call void @llvm.dbg.value(metadata !{i11 %x_weight.1}, i64 0, metadata !1540)
  call void @llvm.dbg.value(metadata !{i11 %x_weight.1}, i64 0, metadata !1540)
  call void @llvm.dbg.value(metadata !{i11 %x_weight.1}, i64 0, metadata !1540), !dbg !1569
  call void @llvm.dbg.value(metadata !{i8 %"buff_C.M[0][0]"}, i64 0, metadata !1553)
  call void @llvm.dbg.value(metadata !{i8 %"buff_C.M[0][1].3"}, i64 0, metadata !1557)
  call void @llvm.dbg.value(metadata !{i8 %"buff_C.M[0][2].4"}, i64 0, metadata !1558)
  call void @llvm.dbg.value(metadata !{i8 %"buff_C.M[1][0]"}, i64 0, metadata !1559)
  call void @llvm.dbg.value(metadata !{i8* null}, i64 0, metadata !1560)
  call void @llvm.dbg.value(metadata !{i8 %"buff_C.M[1][2].4"}, i64 0, metadata !1561)
  call void @llvm.dbg.value(metadata !{i8 %"buff_C.M[2][0]"}, i64 0, metadata !1562)
  call void @llvm.dbg.value(metadata !{i8 %"buff_C.M[2][1].3"}, i64 0, metadata !1563)
  call void @llvm.dbg.value(metadata !{i8 %"buff_C.M[2][2].4"}, i64 0, metadata !1564)
  call void @llvm.dbg.value(metadata !{i32 1}, i64 0, metadata !1565) nounwind
  call void @llvm.dbg.value(metadata !{i32 0}, i64 0, metadata !1566) nounwind
  call void @llvm.dbg.value(metadata !{i8 %"buff_C.M[1][0]"}, i64 0, metadata !1567) nounwind, !dbg !1516
  call void @llvm.dbg.value(metadata !{i10 %y_weight}, i64 0, metadata !1542), !dbg !1519
  call void @llvm.dbg.value(metadata !{i8 1}, i64 0, metadata !1570), !dbg !1571
  call void @llvm.dbg.value(metadata !{i8 %"buff_C.M[0][0]"}, i64 0, metadata !1553)
  call void @llvm.dbg.value(metadata !{i8 %"buff_C.M[0][1].3"}, i64 0, metadata !1557)
  call void @llvm.dbg.value(metadata !{i8 %"buff_C.M[0][2].4"}, i64 0, metadata !1558)
  call void @llvm.dbg.value(metadata !{i8 %"buff_C.M[1][0]"}, i64 0, metadata !1559)
  call void @llvm.dbg.value(metadata !{i8* null}, i64 0, metadata !1560)
  call void @llvm.dbg.value(metadata !{i8 %"buff_C.M[1][2].4"}, i64 0, metadata !1561)
  call void @llvm.dbg.value(metadata !{i8 %"buff_C.M[2][0]"}, i64 0, metadata !1562)
  call void @llvm.dbg.value(metadata !{i8 %"buff_C.M[2][1].3"}, i64 0, metadata !1563)
  call void @llvm.dbg.value(metadata !{i8 %"buff_C.M[2][2].4"}, i64 0, metadata !1564)
  call void @llvm.dbg.value(metadata !{i32 1}, i64 0, metadata !1565) nounwind
  call void @llvm.dbg.value(metadata !{i32 1}, i64 0, metadata !1566) nounwind
  call void @llvm.dbg.value(metadata !{i11 %x_weight.1}, i64 0, metadata !1540), !dbg !1569
  call void @llvm.dbg.value(metadata !{i8 %"buff_C.M[0][0]"}, i64 0, metadata !1553)
  call void @llvm.dbg.value(metadata !{i8 %"buff_C.M[0][1].3"}, i64 0, metadata !1557)
  call void @llvm.dbg.value(metadata !{i8 %"buff_C.M[0][2].4"}, i64 0, metadata !1558)
  call void @llvm.dbg.value(metadata !{i8 %"buff_C.M[1][0]"}, i64 0, metadata !1559)
  call void @llvm.dbg.value(metadata !{i8* null}, i64 0, metadata !1560)
  call void @llvm.dbg.value(metadata !{i8 %"buff_C.M[1][2].4"}, i64 0, metadata !1561)
  call void @llvm.dbg.value(metadata !{i8 %"buff_C.M[2][0]"}, i64 0, metadata !1562)
  call void @llvm.dbg.value(metadata !{i8 %"buff_C.M[2][1].3"}, i64 0, metadata !1563)
  call void @llvm.dbg.value(metadata !{i8 %"buff_C.M[2][2].4"}, i64 0, metadata !1564)
  call void @llvm.dbg.value(metadata !{i32 1}, i64 0, metadata !1565) nounwind
  call void @llvm.dbg.value(metadata !{i32 1}, i64 0, metadata !1566) nounwind
  call void @llvm.dbg.value(metadata !{i10 %y_weight}, i64 0, metadata !1542), !dbg !1519
  call void @llvm.dbg.value(metadata !{i8 2}, i64 0, metadata !1570), !dbg !1571
  call void @llvm.dbg.value(metadata !{i8 %"buff_C.M[0][0]"}, i64 0, metadata !1553)
  call void @llvm.dbg.value(metadata !{i8 %"buff_C.M[0][1].3"}, i64 0, metadata !1557)
  call void @llvm.dbg.value(metadata !{i8 %"buff_C.M[0][2].4"}, i64 0, metadata !1558)
  call void @llvm.dbg.value(metadata !{i8 %"buff_C.M[1][0]"}, i64 0, metadata !1559)
  call void @llvm.dbg.value(metadata !{i8* null}, i64 0, metadata !1560)
  call void @llvm.dbg.value(metadata !{i8 %"buff_C.M[1][2].4"}, i64 0, metadata !1561)
  call void @llvm.dbg.value(metadata !{i8 %"buff_C.M[2][0]"}, i64 0, metadata !1562)
  call void @llvm.dbg.value(metadata !{i8 %"buff_C.M[2][1].3"}, i64 0, metadata !1563)
  call void @llvm.dbg.value(metadata !{i8 %"buff_C.M[2][2].4"}, i64 0, metadata !1564)
  call void @llvm.dbg.value(metadata !{i32 1}, i64 0, metadata !1565) nounwind
  call void @llvm.dbg.value(metadata !{i32 2}, i64 0, metadata !1566) nounwind
  call void @llvm.dbg.value(metadata !{i8 %"buff_C.M[1][2].4"}, i64 0, metadata !1567) nounwind, !dbg !1568
  %tmp.1.1.2.i.cast = zext i8 %"buff_C.M[1][2].4" to i9, !dbg !1569 ; <i9> [#uses=1]
  %tmp.3.1.2.i = shl i9 %tmp.1.1.2.i.cast, 1, !dbg !1569 ; <i9> [#uses=1]
  %tmp.3.1.2.i.cast = zext i9 %tmp.3.1.2.i to i11, !dbg !1569 ; <i11> [#uses=1]
  %x_weight.2 = add i11 %tmp.3.1.2.i.cast, %x_weight.1, !dbg !1569 ; <i11> [#uses=1]
  call void @llvm.dbg.value(metadata !{i11 %x_weight.2}, i64 0, metadata !1540)
  call void @llvm.dbg.value(metadata !{i11 %x_weight.2}, i64 0, metadata !1540)
  call void @llvm.dbg.value(metadata !{i11 %x_weight.2}, i64 0, metadata !1540)
  call void @llvm.dbg.value(metadata !{i11 %x_weight.2}, i64 0, metadata !1540), !dbg !1569
  call void @llvm.dbg.value(metadata !{i8 %"buff_C.M[0][0]"}, i64 0, metadata !1553)
  call void @llvm.dbg.value(metadata !{i8 %"buff_C.M[0][1].3"}, i64 0, metadata !1557)
  call void @llvm.dbg.value(metadata !{i8 %"buff_C.M[0][2].4"}, i64 0, metadata !1558)
  call void @llvm.dbg.value(metadata !{i8 %"buff_C.M[1][0]"}, i64 0, metadata !1559)
  call void @llvm.dbg.value(metadata !{i8* null}, i64 0, metadata !1560)
  call void @llvm.dbg.value(metadata !{i8 %"buff_C.M[1][2].4"}, i64 0, metadata !1561)
  call void @llvm.dbg.value(metadata !{i8 %"buff_C.M[2][0]"}, i64 0, metadata !1562)
  call void @llvm.dbg.value(metadata !{i8 %"buff_C.M[2][1].3"}, i64 0, metadata !1563)
  call void @llvm.dbg.value(metadata !{i8 %"buff_C.M[2][2].4"}, i64 0, metadata !1564)
  call void @llvm.dbg.value(metadata !{i32 1}, i64 0, metadata !1565) nounwind
  call void @llvm.dbg.value(metadata !{i32 2}, i64 0, metadata !1566) nounwind
  call void @llvm.dbg.value(metadata !{i8 %"buff_C.M[1][2].4"}, i64 0, metadata !1567) nounwind, !dbg !1516
  call void @llvm.dbg.value(metadata !{i10 %y_weight}, i64 0, metadata !1542), !dbg !1519
  call void @llvm.dbg.value(metadata !{i8 3}, i64 0, metadata !1570), !dbg !1571
  call void @llvm.dbg.value(metadata !{i8 %"buff_C.M[0][0]"}, i64 0, metadata !1553)
  call void @llvm.dbg.value(metadata !{i8 %"buff_C.M[0][1].3"}, i64 0, metadata !1557)
  call void @llvm.dbg.value(metadata !{i8 %"buff_C.M[0][2].4"}, i64 0, metadata !1558)
  call void @llvm.dbg.value(metadata !{i8 %"buff_C.M[1][0]"}, i64 0, metadata !1559)
  call void @llvm.dbg.value(metadata !{i8* null}, i64 0, metadata !1560)
  call void @llvm.dbg.value(metadata !{i8 %"buff_C.M[1][2].4"}, i64 0, metadata !1561)
  call void @llvm.dbg.value(metadata !{i8 %"buff_C.M[2][0]"}, i64 0, metadata !1562)
  call void @llvm.dbg.value(metadata !{i8 %"buff_C.M[2][1].3"}, i64 0, metadata !1563)
  call void @llvm.dbg.value(metadata !{i8 %"buff_C.M[2][2].4"}, i64 0, metadata !1564)
  call void @llvm.dbg.value(metadata !{i32 2}, i64 0, metadata !1565) nounwind
  call void @llvm.dbg.value(metadata !{i32 0}, i64 0, metadata !1566) nounwind
  call void @llvm.dbg.value(metadata !{i8 %"buff_C.M[2][0]"}, i64 0, metadata !1567) nounwind, !dbg !1568
  %tmp.1.2.0.i.cast = zext i8 %"buff_C.M[2][0]" to i11, !dbg !1569 ; <i11> [#uses=2]
  %x_weight.3 = sub i11 %x_weight.2, %tmp.1.2.0.i.cast, !dbg !1569 ; <i11> [#uses=1]
  call void @llvm.dbg.value(metadata !{i11 %x_weight.3}, i64 0, metadata !1540)
  call void @llvm.dbg.value(metadata !{i11 %x_weight.3}, i64 0, metadata !1540)
  call void @llvm.dbg.value(metadata !{i11 %x_weight.3}, i64 0, metadata !1540), !dbg !1569
  call void @llvm.dbg.value(metadata !{i8 %"buff_C.M[0][0]"}, i64 0, metadata !1553)
  call void @llvm.dbg.value(metadata !{i8 %"buff_C.M[0][1].3"}, i64 0, metadata !1557)
  call void @llvm.dbg.value(metadata !{i8 %"buff_C.M[0][2].4"}, i64 0, metadata !1558)
  call void @llvm.dbg.value(metadata !{i8 %"buff_C.M[1][0]"}, i64 0, metadata !1559)
  call void @llvm.dbg.value(metadata !{i8* null}, i64 0, metadata !1560)
  call void @llvm.dbg.value(metadata !{i8 %"buff_C.M[1][2].4"}, i64 0, metadata !1561)
  call void @llvm.dbg.value(metadata !{i8 %"buff_C.M[2][0]"}, i64 0, metadata !1562)
  call void @llvm.dbg.value(metadata !{i8 %"buff_C.M[2][1].3"}, i64 0, metadata !1563)
  call void @llvm.dbg.value(metadata !{i8 %"buff_C.M[2][2].4"}, i64 0, metadata !1564)
  call void @llvm.dbg.value(metadata !{i32 2}, i64 0, metadata !1565) nounwind
  call void @llvm.dbg.value(metadata !{i32 0}, i64 0, metadata !1566) nounwind
  call void @llvm.dbg.value(metadata !{i8 %"buff_C.M[2][0]"}, i64 0, metadata !1567) nounwind, !dbg !1516
  %y_weight.1 = sub i11 %y_weight.2.cast, %tmp.1.2.0.i.cast, !dbg !1519 ; <i11> [#uses=1]
  call void @llvm.dbg.value(metadata !{i11 %y_weight.1}, i64 0, metadata !1542)
  call void @llvm.dbg.value(metadata !{i11 %y_weight.1}, i64 0, metadata !1542), !dbg !1519
  call void @llvm.dbg.value(metadata !{i8 1}, i64 0, metadata !1570), !dbg !1571
  call void @llvm.dbg.value(metadata !{i8 %"buff_C.M[0][0]"}, i64 0, metadata !1553)
  call void @llvm.dbg.value(metadata !{i8 %"buff_C.M[0][1].3"}, i64 0, metadata !1557)
  call void @llvm.dbg.value(metadata !{i8 %"buff_C.M[0][2].4"}, i64 0, metadata !1558)
  call void @llvm.dbg.value(metadata !{i8 %"buff_C.M[1][0]"}, i64 0, metadata !1559)
  call void @llvm.dbg.value(metadata !{i8* null}, i64 0, metadata !1560)
  call void @llvm.dbg.value(metadata !{i8 %"buff_C.M[1][2].4"}, i64 0, metadata !1561)
  call void @llvm.dbg.value(metadata !{i8 %"buff_C.M[2][0]"}, i64 0, metadata !1562)
  call void @llvm.dbg.value(metadata !{i8 %"buff_C.M[2][1].3"}, i64 0, metadata !1563)
  call void @llvm.dbg.value(metadata !{i8 %"buff_C.M[2][2].4"}, i64 0, metadata !1564)
  call void @llvm.dbg.value(metadata !{i32 2}, i64 0, metadata !1565) nounwind
  call void @llvm.dbg.value(metadata !{i32 1}, i64 0, metadata !1566) nounwind
  call void @llvm.dbg.value(metadata !{i8 %"buff_C.M[2][1].3"}, i64 0, metadata !1567) nounwind, !dbg !1568
  %tmp.1.2.1.i.cast = zext i8 %"buff_C.M[2][1].3" to i9, !dbg !1569 ; <i9> [#uses=1]
  call void @llvm.dbg.value(metadata !{i11 %x_weight.3}, i64 0, metadata !1540), !dbg !1569
  call void @llvm.dbg.value(metadata !{i8 %"buff_C.M[0][0]"}, i64 0, metadata !1553)
  call void @llvm.dbg.value(metadata !{i8 %"buff_C.M[0][1].3"}, i64 0, metadata !1557)
  call void @llvm.dbg.value(metadata !{i8 %"buff_C.M[0][2].4"}, i64 0, metadata !1558)
  call void @llvm.dbg.value(metadata !{i8 %"buff_C.M[1][0]"}, i64 0, metadata !1559)
  call void @llvm.dbg.value(metadata !{i8* null}, i64 0, metadata !1560)
  call void @llvm.dbg.value(metadata !{i8 %"buff_C.M[1][2].4"}, i64 0, metadata !1561)
  call void @llvm.dbg.value(metadata !{i8 %"buff_C.M[2][0]"}, i64 0, metadata !1562)
  call void @llvm.dbg.value(metadata !{i8 %"buff_C.M[2][1].3"}, i64 0, metadata !1563)
  call void @llvm.dbg.value(metadata !{i8 %"buff_C.M[2][2].4"}, i64 0, metadata !1564)
  call void @llvm.dbg.value(metadata !{i32 2}, i64 0, metadata !1565) nounwind
  call void @llvm.dbg.value(metadata !{i32 1}, i64 0, metadata !1566) nounwind
  call void @llvm.dbg.value(metadata !{i8 %"buff_C.M[2][1].3"}, i64 0, metadata !1567) nounwind, !dbg !1516
  %_shl11.i = shl i9 %tmp.1.2.1.i.cast, 1, !dbg !1519 ; <i9> [#uses=1]
  %_shl11.i.cast = zext i9 %_shl11.i to i11, !dbg !1519 ; <i11> [#uses=1]
  %y_weight.2 = sub i11 %y_weight.1, %_shl11.i.cast, !dbg !1519 ; <i11> [#uses=1]
  call void @llvm.dbg.value(metadata !{i11 %y_weight.2}, i64 0, metadata !1542)
  call void @llvm.dbg.value(metadata !{i11 %y_weight.2}, i64 0, metadata !1542), !dbg !1519
  call void @llvm.dbg.value(metadata !{i8 2}, i64 0, metadata !1570), !dbg !1571
  call void @llvm.dbg.value(metadata !{i8 %"buff_C.M[0][0]"}, i64 0, metadata !1553)
  call void @llvm.dbg.value(metadata !{i8 %"buff_C.M[0][1].3"}, i64 0, metadata !1557)
  call void @llvm.dbg.value(metadata !{i8 %"buff_C.M[0][2].4"}, i64 0, metadata !1558)
  call void @llvm.dbg.value(metadata !{i8 %"buff_C.M[1][0]"}, i64 0, metadata !1559)
  call void @llvm.dbg.value(metadata !{i8* null}, i64 0, metadata !1560)
  call void @llvm.dbg.value(metadata !{i8 %"buff_C.M[1][2].4"}, i64 0, metadata !1561)
  call void @llvm.dbg.value(metadata !{i8 %"buff_C.M[2][0]"}, i64 0, metadata !1562)
  call void @llvm.dbg.value(metadata !{i8 %"buff_C.M[2][1].3"}, i64 0, metadata !1563)
  call void @llvm.dbg.value(metadata !{i8 %"buff_C.M[2][2].4"}, i64 0, metadata !1564)
  call void @llvm.dbg.value(metadata !{i32 2}, i64 0, metadata !1565) nounwind
  call void @llvm.dbg.value(metadata !{i32 2}, i64 0, metadata !1566) nounwind
  call void @llvm.dbg.value(metadata !{i8 %"buff_C.M[2][2].4"}, i64 0, metadata !1567) nounwind, !dbg !1568
  %tmp.1.2.2.i.cast = zext i8 %"buff_C.M[2][2].4" to i11, !dbg !1569 ; <i11> [#uses=2]
  %x_weight.4 = add i11 %x_weight.3, %tmp.1.2.2.i.cast, !dbg !1569 ; <i11> [#uses=3]
  %x_weight.4.cast = trunc i11 %x_weight.4 to i8  ; <i8> [#uses=1]
  call void @llvm.dbg.value(metadata !{i11 %x_weight.4}, i64 0, metadata !1540)
  call void @llvm.dbg.value(metadata !{i11 %x_weight.4}, i64 0, metadata !1540)
  call void @llvm.dbg.value(metadata !{i11 %x_weight.4}, i64 0, metadata !1540), !dbg !1569
  call void @llvm.dbg.value(metadata !{i8 %"buff_C.M[0][0]"}, i64 0, metadata !1553)
  call void @llvm.dbg.value(metadata !{i8 %"buff_C.M[0][1].3"}, i64 0, metadata !1557)
  call void @llvm.dbg.value(metadata !{i8 %"buff_C.M[0][2].4"}, i64 0, metadata !1558)
  call void @llvm.dbg.value(metadata !{i8 %"buff_C.M[1][0]"}, i64 0, metadata !1559)
  call void @llvm.dbg.value(metadata !{i8* null}, i64 0, metadata !1560)
  call void @llvm.dbg.value(metadata !{i8 %"buff_C.M[1][2].4"}, i64 0, metadata !1561)
  call void @llvm.dbg.value(metadata !{i8 %"buff_C.M[2][0]"}, i64 0, metadata !1562)
  call void @llvm.dbg.value(metadata !{i8 %"buff_C.M[2][1].3"}, i64 0, metadata !1563)
  call void @llvm.dbg.value(metadata !{i8 %"buff_C.M[2][2].4"}, i64 0, metadata !1564)
  call void @llvm.dbg.value(metadata !{i32 2}, i64 0, metadata !1565) nounwind
  call void @llvm.dbg.value(metadata !{i32 2}, i64 0, metadata !1566) nounwind
  call void @llvm.dbg.value(metadata !{i8 %"buff_C.M[2][2].4"}, i64 0, metadata !1567) nounwind, !dbg !1516
  %y_weight.3 = sub i11 %y_weight.2, %tmp.1.2.2.i.cast, !dbg !1519 ; <i11> [#uses=3]
  %y_weight.5.cast = trunc i11 %y_weight.3 to i8  ; <i8> [#uses=1]
  call void @llvm.dbg.value(metadata !{i11 %y_weight.3}, i64 0, metadata !1542)
  call void @llvm.dbg.value(metadata !{i11 %y_weight.3}, i64 0, metadata !1542)
  call void @llvm.dbg.value(metadata !{i11 %y_weight.3}, i64 0, metadata !1542), !dbg !1519
  call void @llvm.dbg.value(metadata !{i8 3}, i64 0, metadata !1570), !dbg !1571
  %tmp.18 = trunc i11 %x_weight.4 to i8           ; <i8> [#uses=1]
  %neg.i.cast = sub i8 0, %tmp.18                 ; <i8> [#uses=1]
  %signbit = lshr i11 %x_weight.4, 10, !dbg !1572 ; <i11> [#uses=1]
  %signbit1 = trunc i11 %signbit to i1, !dbg !1572 ; <i1> [#uses=1]
  %abs.i = select i1 %signbit1, i8 %neg.i.cast, i8 %x_weight.4.cast ; <i8> [#uses=1]
  %tmp.20 = trunc i11 %y_weight.3 to i8           ; <i8> [#uses=1]
  %neg7.i.cast = sub i8 0, %tmp.20                ; <i8> [#uses=1]
  %signbit2 = lshr i11 %y_weight.3, 10, !dbg !1572 ; <i11> [#uses=1]
  %signbit3 = trunc i11 %signbit2 to i1, !dbg !1572 ; <i1> [#uses=1]
  %abs9.i = select i1 %signbit3, i8 %neg7.i.cast, i8 %y_weight.5.cast ; <i8> [#uses=1]
  %tmp.i2 = add i8 %abs9.i, %abs.i, !dbg !1573    ; <i8> [#uses=3]
  %edge_val = xor i8 %tmp.i2, -1, !dbg !1573      ; <i8> [#uses=1]
  call void @llvm.dbg.value(metadata !{i8 %edge_val}, i64 0, metadata !1574), !dbg !1573
  %tmp.8.i = icmp ult i8 %tmp.i2, 55, !dbg !1575  ; <i1> [#uses=2]
  %tmp..i = icmp ugt i8 %tmp.i2, -101, !dbg !1576 ; <i1> [#uses=1]
  call void @llvm.dbg.value(metadata !{i8 0}, i64 0, metadata !1574), !dbg !1577
  %sel_tmp6.demorgan = or i1 %or.cond, %tmp.15    ; <i1> [#uses=2]
  %sel_tmp6 = xor i1 %sel_tmp6.demorgan, true     ; <i1> [#uses=1]
  %sel_tmp7 = and i1 %tmp.17, %sel_tmp6           ; <i1> [#uses=1]
  %sel_tmp9.demorgan = or i1 %icmp1, %icmp, !dbg !1523 ; <i1> [#uses=1]
  %sel_tmp9 = xor i1 %sel_tmp9.demorgan, true, !dbg !1523 ; <i1> [#uses=1]
  %sel_tmp = and i1 %tmp.15, %sel_tmp9            ; <i1> [#uses=1]
  %tmp.21 = or i1 %sel_tmp, %sel_tmp7, !dbg !1578 ; <i1> [#uses=1]
  %sel_tmp1 = select i1 %tmp.21, i8 0, i8 %edge_val, !dbg !1578 ; <i8> [#uses=1]
  %sel_tmp17.demorgan = or i1 %sel_tmp6.demorgan, %tmp.17 ; <i1> [#uses=2]
  %sel_tmp19.demorgan = or i1 %sel_tmp17.demorgan, %tmp.8.i ; <i1> [#uses=1]
  %sel_tmp2 = xor i1 %sel_tmp19.demorgan, true    ; <i1> [#uses=1]
  %sel_tmp3 = and i1 %tmp..i, %sel_tmp2           ; <i1> [#uses=1]
  %tmp.22 = or i1 %sel_tmp3, %or.cond, !dbg !1578 ; <i1> [#uses=1]
  %sel_tmp4 = select i1 %tmp.22, i8 0, i8 %sel_tmp1, !dbg !1578 ; <i8> [#uses=1]
  %sel_tmp5 = xor i1 %sel_tmp17.demorgan, true    ; <i1> [#uses=1]
  %sel_tmp8 = and i1 %tmp.8.i, %sel_tmp5          ; <i1> [#uses=1]
  %edge.G.V = select i1 %sel_tmp8, i8 -1, i8 %sel_tmp4, !dbg !1578 ; <i8> [#uses=3]
  call void @llvm.dbg.value(metadata !{i8 %edge.G.V}, i64 0, metadata !1835)
  call void @llvm.dbg.value(metadata !{i8 %edge.G.V}, i64 0, metadata !1837)
  call void @llvm.dbg.value(metadata !{i8 %edge.G.V}, i64 0, metadata !1838), !dbg !1839
  %tmp.19 = icmp ne i31 %ColIndex.assign, 0, !dbg !1841 ; <i1> [#uses=1]
  %or.cond1 = and i1 %tmp.7, %tmp.19, !dbg !1841  ; <i1> [#uses=1]
  br i1 %or.cond1, label %bb16, label %bb20, !dbg !1841

bb16:                                             ; preds = %bb.i463.0_ifconv
  call void @llvm.dbg.value(metadata !1842, i64 0, metadata !1843)
  call void @llvm.dbg.value(metadata !{i8 -1}, i64 0, metadata !1845), !dbg !1847
  call void @llvm.dbg.value(metadata !{i32 0}, i64 0, metadata !1849)
  call void @llvm.dbg.value(metadata !{i16 0}, i64 0, metadata !2061), !dbg !2102
  call void @llvm.dbg.value(metadata !{i32 8}, i64 0, metadata !2116), !dbg !2117
  call void @llvm.dbg.value(metadata !{i32 8}, i64 0, metadata !2118), !dbg !2119
  call void @llvm.dbg.value(metadata !{i16 0}, i64 0, metadata !2120), !dbg !2122
  call void @llvm.dbg.value(metadata !{i16 0}, i64 0, metadata !2123), !dbg !2122
  call void @llvm.dbg.value(metadata !{i8 %edge.G.V}, i64 0, metadata !2124), !dbg !2122
  call void @llvm.dbg.value(metadata !{i16 0}, i64 0, metadata !2125), !dbg !2127
  call void @llvm.dbg.value(metadata !{i8 %edge.G.V}, i64 0, metadata !2128), !dbg !2127
  call void @llvm.dbg.value(metadata !{i32 0}, i64 0, metadata !2129)
  call void @llvm.dbg.value(metadata !{i40 0}, i64 0, metadata !2131), !dbg !2139
  call void @llvm.dbg.value(metadata !{i32 32}, i64 0, metadata !2141), !dbg !2142
  call void @llvm.dbg.value(metadata !{i32 8}, i64 0, metadata !2143), !dbg !2144
  call void @llvm.dbg.value(metadata !{i40 0}, i64 0, metadata !2145), !dbg !1578
  call void @llvm.dbg.value(metadata !{i40 0}, i64 0, metadata !2147), !dbg !1578
  call void @llvm.dbg.value(metadata !{i8 %edge.G.V}, i64 0, metadata !2148), !dbg !1578
  call void @llvm.dbg.value(metadata !{i40 0}, i64 0, metadata !2149), !dbg !2151
  %tmp.23 = call i24 @_ssdm_op_BitConcatenate.i24.i8.i8.i8(i8 %edge.G.V, i8 %edge.G.V, i8 %edge.G.V) ; <i24> [#uses=1]
  %__Repl2__ = zext i24 %tmp.23 to i32, !dbg !2152 ; <i32> [#uses=1]
  call void @llvm.dbg.value(metadata !{i32 0}, i64 0, metadata !2129)
  call void @llvm.dbg.value(metadata !{i40 0}, i64 0, metadata !2153), !dbg !2188
  call void @llvm.dbg.value(metadata !{i32 8}, i64 0, metadata !2202), !dbg !2203
  call void @llvm.dbg.value(metadata !{i32 32}, i64 0, metadata !2204), !dbg !2205
  call void @llvm.dbg.value(metadata !{i40 0}, i64 0, metadata !2206), !dbg !2208
  call void @llvm.dbg.value(metadata !{i40 0}, i64 0, metadata !2209), !dbg !2208
  call void @llvm.dbg.value(metadata !{i32 %__Repl2__}, i64 0, metadata !2210), !dbg !2208
  call void @llvm.dbg.value(metadata !{i40 0}, i64 0, metadata !2211), !dbg !2213
  call void @llvm.dbg.value(metadata !{i8 -1}, i64 0, metadata !2214), !dbg !2213
  call void @llvm.dbg.value(metadata !{i32 %__Repl2__}, i64 0, metadata !2215), !dbg !2217
  call void @llvm.dbg.value(metadata !1444, i64 0, metadata !2218)
  call void @llvm.dbg.value(metadata !2220, i64 0, metadata !2221), !dbg !2222
  call void @llvm.dbg.value(metadata !{i32 1}, i64 0, metadata !2224)
  call void @llvm.dbg.value(metadata !2226, i64 0, metadata !2227), !dbg !2228
  call void @llvm.dbg.value(metadata !{i32 1}, i64 0, metadata !2224)
  call void @llvm.dbg.value(metadata !2226, i64 0, metadata !2230), !dbg !2231
  %output_pixel.last.V = icmp eq i32 %ColIndex.assign.cast, %cols, !dbg !2233 ; <i1> [#uses=1]
  call void @llvm.dbg.value(metadata !{i32 0}, i64 0, metadata !2224)
  call void @llvm.dbg.value(metadata !{i1 %output_pixel.last.V}, i64 0, metadata !2234), !dbg !2235
  volatile store i32 %__Repl2__, i32* %out_pix.data.V, align 4, !dbg !2237
  volatile store i4 -1, i4* %out_pix.strb.V, align 1, !dbg !2240
  volatile store i1 true, i1* %out_pix.user.V, align 1, !dbg !2241
  volatile store i1 %output_pixel.last.V, i1* %out_pix.last.V, align 1, !dbg !2241
  volatile store i1 true, i1* %out_pix.tdest.V, align 1, !dbg !2241
  br label %bb20, !dbg !2239

bb20:                                             ; preds = %bb16, %bb.i463.0_ifconv
  %9 = call i32 (...)* @_ssdm_op_SpecRegionEnd([14 x i8]* @.str43, i32 %tmp.13) nounwind, !dbg !2242 ; <i32> [#uses=0]
  %col = add i31 %ColIndex.assign, 1, !dbg !2243  ; <i31> [#uses=1]
  call void @llvm.dbg.value(metadata !{i31 %col}, i64 0, metadata !2244), !dbg !2243
  br label %bb21, !dbg !2243

bb21:                                             ; preds = %bb21.preheader, %bb20
  %"buff_C.M[1][1].2" = phi i8 [ %"buff_C.M[1][2]", %bb21.preheader ], [ %"buff_C.M[1][2].4", %bb20 ] ; <i8> [#uses=3]
  %"buff_C.M[1][0]" = phi i8 [ %"buff_C.M[1][1]", %bb21.preheader ], [ %"buff_C.M[1][1].2", %bb20 ] ; <i8> [#uses=2]
  %"buff_C.M[2][0]" = phi i8 [ %"buff_C.M[2][1]", %bb21.preheader ], [ %"buff_C.M[2][1].3", %bb20 ] ; <i8> [#uses=2]
  %"buff_C.M[0][1].3" = phi i8 [ %"buff_C.M[0][2]", %bb21.preheader ], [ %"buff_C.M[0][2].4", %bb20 ] ; <i8> [#uses=4]
  %"buff_C.M[0][0]" = phi i8 [ %"buff_C.M[0][1]", %bb21.preheader ], [ %"buff_C.M[0][1].3", %bb20 ] ; <i8> [#uses=2]
  %"buff_C.M[2][1].3" = phi i8 [ %"buff_C.M[2][2]", %bb21.preheader ], [ %"buff_C.M[2][2].4", %bb20 ] ; <i8> [#uses=4]
  %tempx.R.V.1 = phi i8 [ %tempx.R.V, %bb21.preheader ], [ %tempx.R.V.4, %bb20 ] ; <i8> [#uses=2]
  %tempx.G.V.1 = phi i8 [ %tempx.G.V, %bb21.preheader ], [ %tempx.G.V.4, %bb20 ] ; <i8> [#uses=2]
  %tempx.B.V.1 = phi i8 [ %tempx.B.V, %bb21.preheader ], [ %tempx.B.V.4, %bb20 ] ; <i8> [#uses=2]
  %ColIndex.assign = phi i31 [ 0, %bb21.preheader ], [ %col, %bb20 ] ; <i31> [#uses=5]
  %temp.1 = phi i8 [ %temp, %bb21.preheader ], [ %temp.4, %bb20 ] ; <i8> [#uses=2]
  %ColIndex.assign.cast = zext i31 %ColIndex.assign to i32 ; <i32> [#uses=8]
  call void @llvm.dbg.value(metadata !{i8 %"buff_C.M[1][1].2"}, i64 0, metadata !1508)
  call void @llvm.dbg.value(metadata !{i8 %"buff_C.M[1][0]"}, i64 0, metadata !1497)
  call void @llvm.dbg.value(metadata !{i8 %"buff_C.M[2][0]"}, i64 0, metadata !1499)
  call void @llvm.dbg.value(metadata !{i8 %"buff_C.M[0][1].3"}, i64 0, metadata !1505)
  call void @llvm.dbg.value(metadata !{i8 %"buff_C.M[0][0]"}, i64 0, metadata !1493)
  call void @llvm.dbg.value(metadata !{i8 %"buff_C.M[2][1].3"}, i64 0, metadata !1514)
  call void @llvm.dbg.value(metadata !{i8 %tempx.R.V.1}, i64 0, metadata !1465)
  call void @llvm.dbg.value(metadata !{i8 %tempx.G.V.1}, i64 0, metadata !1464)
  call void @llvm.dbg.value(metadata !{i8 %tempx.B.V.1}, i64 0, metadata !1459)
  call void @llvm.dbg.value(metadata !{i31 %ColIndex.assign}, i64 0, metadata !2245) nounwind
  call void @llvm.dbg.value(metadata !{i31 %ColIndex.assign}, i64 0, metadata !2244)
  call void @llvm.dbg.value(metadata !{i8 %temp.1}, i64 0, metadata !1390)
  %exitcond3 = icmp eq i31 %ColIndex.assign, %smax2, !dbg !2243 ; <i1> [#uses=1]
  br i1 %exitcond3, label %bb22, label %bb1, !dbg !2243

bb22:                                             ; preds = %bb21
  %temp.1.lcssa = phi i8 [ %temp.1, %bb21 ]       ; <i8> [#uses=1]
  %tempx.B.V.1.lcssa = phi i8 [ %tempx.B.V.1, %bb21 ] ; <i8> [#uses=1]
  %tempx.G.V.1.lcssa = phi i8 [ %tempx.G.V.1, %bb21 ] ; <i8> [#uses=1]
  %tempx.R.V.1.lcssa = phi i8 [ %tempx.R.V.1, %bb21 ] ; <i8> [#uses=1]
  %"buff_C.M[2][1].3.lcssa" = phi i8 [ %"buff_C.M[2][1].3", %bb21 ] ; <i8> [#uses=1]
  %"buff_C.M[0][0].lcssa" = phi i8 [ %"buff_C.M[0][0]", %bb21 ] ; <i8> [#uses=1]
  %"buff_C.M[0][1].3.lcssa" = phi i8 [ %"buff_C.M[0][1].3", %bb21 ] ; <i8> [#uses=1]
  %"buff_C.M[2][0].lcssa" = phi i8 [ %"buff_C.M[2][0]", %bb21 ] ; <i8> [#uses=1]
  %"buff_C.M[1][0].lcssa" = phi i8 [ %"buff_C.M[1][0]", %bb21 ] ; <i8> [#uses=1]
  %"buff_C.M[1][1].2.lcssa" = phi i8 [ %"buff_C.M[1][1].2", %bb21 ] ; <i8> [#uses=1]
  %row.1 = add i31 %row, 1, !dbg !1372            ; <i31> [#uses=1]
  call void @llvm.dbg.value(metadata !{i31 %row.1}, i64 0, metadata !1371), !dbg !1372
  br label %bb23, !dbg !1372

bb23:                                             ; preds = %bb22, %entry
  %"buff_C.M[1][2]" = phi i8 [ undef, %entry ], [ %"buff_C.M[1][1].2.lcssa", %bb22 ] ; <i8> [#uses=1]
  %"buff_C.M[1][1]" = phi i8 [ undef, %entry ], [ %"buff_C.M[1][0].lcssa", %bb22 ] ; <i8> [#uses=1]
  %"buff_C.M[2][1]" = phi i8 [ undef, %entry ], [ %"buff_C.M[2][0].lcssa", %bb22 ] ; <i8> [#uses=1]
  %"buff_C.M[0][2]" = phi i8 [ undef, %entry ], [ %"buff_C.M[0][1].3.lcssa", %bb22 ] ; <i8> [#uses=1]
  %"buff_C.M[0][1]" = phi i8 [ undef, %entry ], [ %"buff_C.M[0][0].lcssa", %bb22 ] ; <i8> [#uses=1]
  %"buff_C.M[2][2]" = phi i8 [ undef, %entry ], [ %"buff_C.M[2][1].3.lcssa", %bb22 ] ; <i8> [#uses=1]
  %tempx.R.V = phi i8 [ undef, %entry ], [ %tempx.R.V.1.lcssa, %bb22 ] ; <i8> [#uses=1]
  %tempx.G.V = phi i8 [ undef, %entry ], [ %tempx.G.V.1.lcssa, %bb22 ] ; <i8> [#uses=1]
  %tempx.B.V = phi i8 [ undef, %entry ], [ %tempx.B.V.1.lcssa, %bb22 ] ; <i8> [#uses=1]
  %row = phi i31 [ 0, %entry ], [ %row.1, %bb22 ] ; <i31> [#uses=5]
  %temp = phi i8 [ undef, %entry ], [ %temp.1.lcssa, %bb22 ] ; <i8> [#uses=1]
  %row.cast = zext i31 %row to i32                ; <i32> [#uses=2]
  call void @llvm.dbg.value(metadata !{i8 %"buff_C.M[1][2]"}, i64 0, metadata !1508)
  call void @llvm.dbg.value(metadata !{i8 %"buff_C.M[1][1]"}, i64 0, metadata !1497)
  call void @llvm.dbg.value(metadata !{i8 %"buff_C.M[2][1]"}, i64 0, metadata !1499)
  call void @llvm.dbg.value(metadata !{i8 %"buff_C.M[0][2]"}, i64 0, metadata !1505)
  call void @llvm.dbg.value(metadata !{i8 %"buff_C.M[0][1]"}, i64 0, metadata !1493)
  call void @llvm.dbg.value(metadata !{i8 %"buff_C.M[2][2]"}, i64 0, metadata !1514)
  call void @llvm.dbg.value(metadata !{i8 %tempx.R.V}, i64 0, metadata !1465)
  call void @llvm.dbg.value(metadata !{i8 %tempx.G.V}, i64 0, metadata !1464)
  call void @llvm.dbg.value(metadata !{i8 %tempx.B.V}, i64 0, metadata !1459)
  call void @llvm.dbg.value(metadata !{i31 %row}, i64 0, metadata !1371)
  call void @llvm.dbg.value(metadata !{i8 %temp}, i64 0, metadata !1390)
  %exitcond = icmp eq i31 %row, %smax, !dbg !1372 ; <i1> [#uses=1]
  br i1 %exitcond, label %bb24, label %bb21.preheader, !dbg !1372

bb21.preheader:                                   ; preds = %bb23
  %icmp1 = icmp ult i31 %row, 2, !dbg !1523       ; <i1> [#uses=2]
  %tmp.7 = icmp ne i31 %row, 0, !dbg !1841        ; <i1> [#uses=1]
  br label %bb21

bb24:                                             ; preds = %bb23
  ret void, !dbg !2246
}

!llvm.dbg.gv = !{!0, !361}

!0 = metadata !{i32 458804, i32 0, metadata !1, metadata !"y_op", metadata !"y_op", metadata !"", metadata !3, i32 78, metadata !360, i1 true, i1 true, null} ; [ DW_TAG_variable ]
!1 = metadata !{i32 458798, i32 0, metadata !2, metadata !"sobel_operator", metadata !"sobel_operator", metadata !"_Z14sobel_operatorP9ap_windowIhLi3ELi3EE", metadata !3, i32 61, metadata !4, i1 false, i1 true, i32 0, i32 0, null, i1 false} ; [ DW_TAG_subprogram ]
!2 = metadata !{i32 458769, i32 0, i32 4, metadata !"sobel.pragma.2.cpp", metadata !"C:\5CWORK\5Csobel_variable\5Caxi_sobel\5Caxi_sobel/C:/WORK/sobel_variable/axi_sobel/axi_sobel/sobel_rd_prj/solution1/.autopilot/db", metadata !"4.2.1 (Based on Apple Inc. build 5658) (LLVM build)", i1 true, i1 false, metadata !"", i32 0} ; [ DW_TAG_compile_unit ]
!3 = metadata !{i32 458769, i32 0, i32 4, metadata !"sobel.cpp", metadata !"C:\5CWORK\5Csobel_variable\5Caxi_sobel\5Caxi_sobel/", metadata !"4.2.1 (Based on Apple Inc. build 5658) (LLVM build)", i1 false, i1 false, metadata !"", i32 0} ; [ DW_TAG_compile_unit ]
!4 = metadata !{i32 458773, metadata !2, metadata !"", metadata !2, i32 0, i64 0, i64 0, i64 0, i32 0, null, metadata !5, i32 0, null} ; [ DW_TAG_subroutine_type ]
!5 = metadata !{metadata !6, metadata !333}
!6 = metadata !{i32 458774, metadata !2, metadata !"RGB", metadata !7, i32 176, i64 0, i64 0, i64 0, i32 0, metadata !8} ; [ DW_TAG_typedef ]
!7 = metadata !{i32 458769, i32 0, i32 4, metadata !"ap_video.h", metadata !"C:\5CWORK\5Csobel_variable\5Caxi_sobel\5Caxi_sobel/", metadata !"4.2.1 (Based on Apple Inc. build 5658) (LLVM build)", i1 false, i1 false, metadata !"", i32 0} ; [ DW_TAG_compile_unit ]
!8 = metadata !{i32 458771, metadata !2, metadata !"ap_rgb<8,8,8>", metadata !7, i32 54, i64 24, i64 8, i64 0, i32 0, null, metadata !9, i32 0, null} ; [ DW_TAG_structure_type ]
!9 = metadata !{metadata !10, metadata !321, metadata !322, metadata !323, metadata !330}
!10 = metadata !{i32 458765, metadata !8, metadata !"B", metadata !7, i32 55, i64 8, i64 8, i64 0, i32 0, metadata !11} ; [ DW_TAG_member ]
!11 = metadata !{i32 458771, metadata !2, metadata !"ap_uint<8>", metadata !12, i32 134, i64 8, i64 8, i64 0, i32 0, null, metadata !13, i32 0, null} ; [ DW_TAG_structure_type ]
!12 = metadata !{i32 458769, i32 0, i32 4, metadata !"ap_int.h", metadata !"C:\5CWORK\5Csobel_variable\5Caxi_sobel\5Caxi_sobel/C:/Xilinx/Vivado_HLS/2012.2/common/technology/autopilot", metadata !"4.2.1 (Based on Apple Inc. build 5658) (LLVM build)", i1 false, i1 false, metadata !"", i32 0} ; [ DW_TAG_compile_unit ]
!13 = metadata !{metadata !14, metadata !253, metadata !257, metadata !260, metadata !263, metadata !266, metadata !269, metadata !272, metadata !275, metadata !278, metadata !281, metadata !284, metadata !287, metadata !290, metadata !293, metadata !296, metadata !299, metadata !302, metadata !309, metadata !314, metadata !318}
!14 = metadata !{i32 458780, metadata !2, metadata !"", null, i32 0, i64 0, i64 0, i64 0, i32 0, metadata !15} ; [ DW_TAG_inheritance ]
!15 = metadata !{i32 458771, metadata !2, metadata !"ap_int_base<8,false>", metadata !16, i32 1306, i64 8, i64 8, i64 0, i32 0, null, metadata !17, i32 0, null} ; [ DW_TAG_structure_type ]
!16 = metadata !{i32 458769, i32 0, i32 4, metadata !"ap_int_syn.h", metadata !"C:\5CWORK\5Csobel_variable\5Caxi_sobel\5Caxi_sobel/C:/Xilinx/Vivado_HLS/2012.2/common/technology/autopilot", metadata !"4.2.1 (Based on Apple Inc. build 5658) (LLVM build)", i1 false, i1 false, metadata !"", i32 0} ; [ DW_TAG_compile_unit ]
!17 = metadata !{metadata !18, metadata !43, metadata !47, metadata !51, metadata !55, metadata !59, metadata !63, metadata !67, metadata !71, metadata !75, metadata !79, metadata !83, metadata !87, metadata !90, metadata !94, metadata !98, metadata !104, metadata !107, metadata !112, metadata !117, metadata !122, metadata !123, metadata !127, metadata !130, metadata !133, metadata !136, metadata !139, metadata !142, metadata !146, metadata !149, metadata !152, metadata !155, metadata !159, metadata !162, metadata !165, metadata !166, metadata !170, metadata !173, metadata !176, metadata !177, metadata !178, metadata !179, metadata !180, metadata !183, metadata !184, metadata !187, metadata !188, metadata !189, metadata !190, metadata !191, metadata !192, metadata !193, metadata !194, metadata !197, metadata !198, metadata !201, metadata !205, metadata !206, metadata !207, metadata !211, metadata !212, metadata !215, metadata !216, metadata !220, metadata !221, metadata !222, metadata !223, metadata !226, metadata !227, metadata !228, metadata !229, metadata !230, metadata !231, metadata !232, metadata !233, metadata !234, metadata !235, metadata !236, metadata !237, metadata !247, metadata !250}
!18 = metadata !{i32 458780, metadata !2, metadata !"", null, i32 0, i64 0, i64 0, i64 0, i32 0, metadata !19} ; [ DW_TAG_inheritance ]
!19 = metadata !{i32 458771, metadata !2, metadata !"conv_cint<8,false,true>", metadata !16, i32 1269, i64 8, i64 8, i64 0, i32 0, null, metadata !20, i32 0, null} ; [ DW_TAG_structure_type ]
!20 = metadata !{metadata !21, metadata !31, metadata !35}
!21 = metadata !{i32 458780, metadata !2, metadata !"", null, i32 0, i64 0, i64 0, i64 0, i32 0, metadata !22} ; [ DW_TAG_inheritance ]
!22 = metadata !{i32 458771, metadata !2, metadata !"ssdm_int<8,false>", metadata !23, i32 10, i64 8, i64 8, i64 0, i32 0, null, metadata !24, i32 0, null} ; [ DW_TAG_structure_type ]
!23 = metadata !{i32 458769, i32 0, i32 4, metadata !"autopilot_dt.def", metadata !"C:\5CWORK\5Csobel_variable\5Caxi_sobel\5Caxi_sobel/C:/Xilinx/Vivado_HLS/2012.2/common/technology/autopilot/etc", metadata !"4.2.1 (Based on Apple Inc. build 5658) (LLVM build)", i1 false, i1 false, metadata !"", i32 0} ; [ DW_TAG_compile_unit ]
!24 = metadata !{metadata !25, metadata !27}
!25 = metadata !{i32 458765, metadata !22, metadata !"V", metadata !23, i32 10, i64 8, i64 8, i64 0, i32 0, metadata !26} ; [ DW_TAG_member ]
!26 = metadata !{i32 458788, metadata !2, metadata !"", metadata !2, i32 0, i64 8, i64 8, i64 0, i32 0, i32 7} ; [ DW_TAG_base_type ]
!27 = metadata !{i32 458798, i32 0, metadata !22, metadata !"ssdm_int", metadata !"ssdm_int", metadata !"", metadata !23, i32 10, metadata !28, i1 false, i1 false, i32 0, i32 0, null, i1 false} ; [ DW_TAG_subprogram ]
!28 = metadata !{i32 458773, metadata !2, metadata !"", metadata !2, i32 0, i64 0, i64 0, i64 0, i32 0, null, metadata !29, i32 0, null} ; [ DW_TAG_subroutine_type ]
!29 = metadata !{null, metadata !30}
!30 = metadata !{i32 458767, metadata !2, metadata !"", metadata !2, i32 0, i64 32, i64 32, i64 0, i32 64, metadata !22} ; [ DW_TAG_pointer_type ]
!31 = metadata !{i32 458798, i32 0, metadata !19, metadata !"conv_cint", metadata !"conv_cint", metadata !"", metadata !16, i32 1275, metadata !32, i1 false, i1 false, i32 0, i32 0, null, i1 false} ; [ DW_TAG_subprogram ]
!32 = metadata !{i32 458773, metadata !2, metadata !"", metadata !2, i32 0, i64 0, i64 0, i64 0, i32 0, null, metadata !33, i32 0, null} ; [ DW_TAG_subroutine_type ]
!33 = metadata !{null, metadata !34}
!34 = metadata !{i32 458767, metadata !2, metadata !"", metadata !2, i32 0, i64 32, i64 32, i64 0, i32 64, metadata !19} ; [ DW_TAG_pointer_type ]
!35 = metadata !{i32 458798, i32 0, metadata !19, metadata !"operator ap_ulong", metadata !"operator ap_ulong", metadata !"_ZNK9conv_cintILi8ELb0ELb1EEcvyEv", metadata !16, i32 1276, metadata !36, i1 false, i1 false, i32 0, i32 0, null, i1 false} ; [ DW_TAG_subprogram ]
!36 = metadata !{i32 458773, metadata !2, metadata !"", metadata !2, i32 0, i64 0, i64 0, i64 0, i32 0, null, metadata !37, i32 0, null} ; [ DW_TAG_subroutine_type ]
!37 = metadata !{metadata !38, metadata !41}
!38 = metadata !{i32 458774, metadata !2, metadata !"ap_ulong", metadata !39, i32 812, i64 0, i64 0, i64 0, i32 0, metadata !40} ; [ DW_TAG_typedef ]
!39 = metadata !{i32 458769, i32 0, i32 4, metadata !"math.h", metadata !"C:\5CWORK\5Csobel_variable\5Caxi_sobel\5Caxi_sobel/c:/xilinx/vivado_hls/2012.2/win_x86/tools/llvm_gcc/bin/../lib/gcc/i686-pc-mingw32/4.2.1/../../../../include", metadata !"4.2.1 (Based on Apple Inc. build 5658) (LLVM build)", i1 false, i1 false, metadata !"", i32 0} ; [ DW_TAG_compile_unit ]
!40 = metadata !{i32 458788, metadata !2, metadata !"long long unsigned int", metadata !2, i32 0, i64 64, i64 64, i64 0, i32 0, i32 7} ; [ DW_TAG_base_type ]
!41 = metadata !{i32 458767, metadata !2, metadata !"", metadata !2, i32 0, i64 32, i64 32, i64 0, i32 64, metadata !42} ; [ DW_TAG_pointer_type ]
!42 = metadata !{i32 458790, metadata !2, metadata !"", metadata !2, i32 0, i64 8, i64 8, i64 0, i32 0, metadata !19} ; [ DW_TAG_const_type ]
!43 = metadata !{i32 458798, i32 0, metadata !15, metadata !"ap_int_base", metadata !"ap_int_base", metadata !"", metadata !16, i32 1341, metadata !44, i1 false, i1 false, i32 0, i32 0, null, i1 false} ; [ DW_TAG_subprogram ]
!44 = metadata !{i32 458773, metadata !2, metadata !"", metadata !2, i32 0, i64 0, i64 0, i64 0, i32 0, null, metadata !45, i32 0, null} ; [ DW_TAG_subroutine_type ]
!45 = metadata !{null, metadata !46}
!46 = metadata !{i32 458767, metadata !2, metadata !"", metadata !2, i32 0, i64 32, i64 32, i64 0, i32 64, metadata !15} ; [ DW_TAG_pointer_type ]
!47 = metadata !{i32 458798, i32 0, metadata !15, metadata !"ap_int_base", metadata !"ap_int_base", metadata !"", metadata !16, i32 1363, metadata !48, i1 false, i1 false, i32 0, i32 0, null, i1 false} ; [ DW_TAG_subprogram ]
!48 = metadata !{i32 458773, metadata !2, metadata !"", metadata !2, i32 0, i64 0, i64 0, i64 0, i32 0, null, metadata !49, i32 0, null} ; [ DW_TAG_subroutine_type ]
!49 = metadata !{null, metadata !46, metadata !50}
!50 = metadata !{i32 458788, metadata !2, metadata !"bool", metadata !2, i32 0, i64 8, i64 8, i64 0, i32 0, i32 2} ; [ DW_TAG_base_type ]
!51 = metadata !{i32 458798, i32 0, metadata !15, metadata !"ap_int_base", metadata !"ap_int_base", metadata !"", metadata !16, i32 1364, metadata !52, i1 false, i1 false, i32 0, i32 0, null, i1 false} ; [ DW_TAG_subprogram ]
!52 = metadata !{i32 458773, metadata !2, metadata !"", metadata !2, i32 0, i64 0, i64 0, i64 0, i32 0, null, metadata !53, i32 0, null} ; [ DW_TAG_subroutine_type ]
!53 = metadata !{null, metadata !46, metadata !54}
!54 = metadata !{i32 458788, metadata !2, metadata !"signed char", metadata !2, i32 0, i64 8, i64 8, i64 0, i32 0, i32 6} ; [ DW_TAG_base_type ]
!55 = metadata !{i32 458798, i32 0, metadata !15, metadata !"ap_int_base", metadata !"ap_int_base", metadata !"", metadata !16, i32 1365, metadata !56, i1 false, i1 false, i32 0, i32 0, null, i1 false} ; [ DW_TAG_subprogram ]
!56 = metadata !{i32 458773, metadata !2, metadata !"", metadata !2, i32 0, i64 0, i64 0, i64 0, i32 0, null, metadata !57, i32 0, null} ; [ DW_TAG_subroutine_type ]
!57 = metadata !{null, metadata !46, metadata !58}
!58 = metadata !{i32 458788, metadata !2, metadata !"unsigned char", metadata !2, i32 0, i64 8, i64 8, i64 0, i32 0, i32 8} ; [ DW_TAG_base_type ]
!59 = metadata !{i32 458798, i32 0, metadata !15, metadata !"ap_int_base", metadata !"ap_int_base", metadata !"", metadata !16, i32 1366, metadata !60, i1 false, i1 false, i32 0, i32 0, null, i1 false} ; [ DW_TAG_subprogram ]
!60 = metadata !{i32 458773, metadata !2, metadata !"", metadata !2, i32 0, i64 0, i64 0, i64 0, i32 0, null, metadata !61, i32 0, null} ; [ DW_TAG_subroutine_type ]
!61 = metadata !{null, metadata !46, metadata !62}
!62 = metadata !{i32 458788, metadata !2, metadata !"short int", metadata !2, i32 0, i64 16, i64 16, i64 0, i32 0, i32 5} ; [ DW_TAG_base_type ]
!63 = metadata !{i32 458798, i32 0, metadata !15, metadata !"ap_int_base", metadata !"ap_int_base", metadata !"", metadata !16, i32 1367, metadata !64, i1 false, i1 false, i32 0, i32 0, null, i1 false} ; [ DW_TAG_subprogram ]
!64 = metadata !{i32 458773, metadata !2, metadata !"", metadata !2, i32 0, i64 0, i64 0, i64 0, i32 0, null, metadata !65, i32 0, null} ; [ DW_TAG_subroutine_type ]
!65 = metadata !{null, metadata !46, metadata !66}
!66 = metadata !{i32 458788, metadata !2, metadata !"short unsigned int", metadata !2, i32 0, i64 16, i64 16, i64 0, i32 0, i32 7} ; [ DW_TAG_base_type ]
!67 = metadata !{i32 458798, i32 0, metadata !15, metadata !"ap_int_base", metadata !"ap_int_base", metadata !"", metadata !16, i32 1368, metadata !68, i1 false, i1 false, i32 0, i32 0, null, i1 false} ; [ DW_TAG_subprogram ]
!68 = metadata !{i32 458773, metadata !2, metadata !"", metadata !2, i32 0, i64 0, i64 0, i64 0, i32 0, null, metadata !69, i32 0, null} ; [ DW_TAG_subroutine_type ]
!69 = metadata !{null, metadata !46, metadata !70}
!70 = metadata !{i32 458788, metadata !2, metadata !"int", metadata !2, i32 0, i64 32, i64 32, i64 0, i32 0, i32 5} ; [ DW_TAG_base_type ]
!71 = metadata !{i32 458798, i32 0, metadata !15, metadata !"ap_int_base", metadata !"ap_int_base", metadata !"", metadata !16, i32 1369, metadata !72, i1 false, i1 false, i32 0, i32 0, null, i1 false} ; [ DW_TAG_subprogram ]
!72 = metadata !{i32 458773, metadata !2, metadata !"", metadata !2, i32 0, i64 0, i64 0, i64 0, i32 0, null, metadata !73, i32 0, null} ; [ DW_TAG_subroutine_type ]
!73 = metadata !{null, metadata !46, metadata !74}
!74 = metadata !{i32 458788, metadata !2, metadata !"unsigned int", metadata !2, i32 0, i64 32, i64 32, i64 0, i32 0, i32 7} ; [ DW_TAG_base_type ]
!75 = metadata !{i32 458798, i32 0, metadata !15, metadata !"ap_int_base", metadata !"ap_int_base", metadata !"", metadata !16, i32 1370, metadata !76, i1 false, i1 false, i32 0, i32 0, null, i1 false} ; [ DW_TAG_subprogram ]
!76 = metadata !{i32 458773, metadata !2, metadata !"", metadata !2, i32 0, i64 0, i64 0, i64 0, i32 0, null, metadata !77, i32 0, null} ; [ DW_TAG_subroutine_type ]
!77 = metadata !{null, metadata !46, metadata !78}
!78 = metadata !{i32 458788, metadata !2, metadata !"long int", metadata !2, i32 0, i64 32, i64 32, i64 0, i32 0, i32 5} ; [ DW_TAG_base_type ]
!79 = metadata !{i32 458798, i32 0, metadata !15, metadata !"ap_int_base", metadata !"ap_int_base", metadata !"", metadata !16, i32 1371, metadata !80, i1 false, i1 false, i32 0, i32 0, null, i1 false} ; [ DW_TAG_subprogram ]
!80 = metadata !{i32 458773, metadata !2, metadata !"", metadata !2, i32 0, i64 0, i64 0, i64 0, i32 0, null, metadata !81, i32 0, null} ; [ DW_TAG_subroutine_type ]
!81 = metadata !{null, metadata !46, metadata !82}
!82 = metadata !{i32 458788, metadata !2, metadata !"long unsigned int", metadata !2, i32 0, i64 32, i64 32, i64 0, i32 0, i32 7} ; [ DW_TAG_base_type ]
!83 = metadata !{i32 458798, i32 0, metadata !15, metadata !"ap_int_base", metadata !"ap_int_base", metadata !"", metadata !16, i32 1372, metadata !84, i1 false, i1 false, i32 0, i32 0, null, i1 false} ; [ DW_TAG_subprogram ]
!84 = metadata !{i32 458773, metadata !2, metadata !"", metadata !2, i32 0, i64 0, i64 0, i64 0, i32 0, null, metadata !85, i32 0, null} ; [ DW_TAG_subroutine_type ]
!85 = metadata !{null, metadata !46, metadata !86}
!86 = metadata !{i32 458788, metadata !2, metadata !"long long int", metadata !2, i32 0, i64 64, i64 64, i64 0, i32 0, i32 5} ; [ DW_TAG_base_type ]
!87 = metadata !{i32 458798, i32 0, metadata !15, metadata !"ap_int_base", metadata !"ap_int_base", metadata !"", metadata !16, i32 1373, metadata !88, i1 false, i1 false, i32 0, i32 0, null, i1 false} ; [ DW_TAG_subprogram ]
!88 = metadata !{i32 458773, metadata !2, metadata !"", metadata !2, i32 0, i64 0, i64 0, i64 0, i32 0, null, metadata !89, i32 0, null} ; [ DW_TAG_subroutine_type ]
!89 = metadata !{null, metadata !46, metadata !40}
!90 = metadata !{i32 458798, i32 0, metadata !15, metadata !"ap_int_base", metadata !"ap_int_base", metadata !"", metadata !16, i32 1374, metadata !91, i1 false, i1 false, i32 0, i32 0, null, i1 false} ; [ DW_TAG_subprogram ]
!91 = metadata !{i32 458773, metadata !2, metadata !"", metadata !2, i32 0, i64 0, i64 0, i64 0, i32 0, null, metadata !92, i32 0, null} ; [ DW_TAG_subroutine_type ]
!92 = metadata !{null, metadata !46, metadata !93}
!93 = metadata !{i32 458788, metadata !2, metadata !"float", metadata !2, i32 0, i64 32, i64 32, i64 0, i32 0, i32 4} ; [ DW_TAG_base_type ]
!94 = metadata !{i32 458798, i32 0, metadata !15, metadata !"ap_int_base", metadata !"ap_int_base", metadata !"", metadata !16, i32 1375, metadata !95, i1 false, i1 false, i32 0, i32 0, null, i1 false} ; [ DW_TAG_subprogram ]
!95 = metadata !{i32 458773, metadata !2, metadata !"", metadata !2, i32 0, i64 0, i64 0, i64 0, i32 0, null, metadata !96, i32 0, null} ; [ DW_TAG_subroutine_type ]
!96 = metadata !{null, metadata !46, metadata !97}
!97 = metadata !{i32 458788, metadata !2, metadata !"double", metadata !2, i32 0, i64 64, i64 64, i64 0, i32 0, i32 4} ; [ DW_TAG_base_type ]
!98 = metadata !{i32 458798, i32 0, metadata !15, metadata !"ap_int_base", metadata !"ap_int_base", metadata !"", metadata !16, i32 1402, metadata !99, i1 false, i1 false, i32 0, i32 0, null, i1 false} ; [ DW_TAG_subprogram ]
!99 = metadata !{i32 458773, metadata !2, metadata !"", metadata !2, i32 0, i64 0, i64 0, i64 0, i32 0, null, metadata !100, i32 0, null} ; [ DW_TAG_subroutine_type ]
!100 = metadata !{null, metadata !46, metadata !101}
!101 = metadata !{i32 458767, metadata !2, metadata !"", metadata !2, i32 0, i64 32, i64 32, i64 0, i32 0, metadata !102} ; [ DW_TAG_pointer_type ]
!102 = metadata !{i32 458790, metadata !2, metadata !"", metadata !2, i32 0, i64 8, i64 8, i64 0, i32 0, metadata !103} ; [ DW_TAG_const_type ]
!103 = metadata !{i32 458788, metadata !2, metadata !"char", metadata !2, i32 0, i64 8, i64 8, i64 0, i32 0, i32 6} ; [ DW_TAG_base_type ]
!104 = metadata !{i32 458798, i32 0, metadata !15, metadata !"ap_int_base", metadata !"ap_int_base", metadata !"", metadata !16, i32 1408, metadata !105, i1 false, i1 false, i32 0, i32 0, null, i1 false} ; [ DW_TAG_subprogram ]
!105 = metadata !{i32 458773, metadata !2, metadata !"", metadata !2, i32 0, i64 0, i64 0, i64 0, i32 0, null, metadata !106, i32 0, null} ; [ DW_TAG_subroutine_type ]
!106 = metadata !{null, metadata !46, metadata !101, metadata !54}
!107 = metadata !{i32 458798, i32 0, metadata !15, metadata !"read", metadata !"read", metadata !"_ZNV11ap_int_baseILi8ELb0EE4readEv", metadata !16, i32 1428, metadata !108, i1 false, i1 false, i32 0, i32 0, null, i1 false} ; [ DW_TAG_subprogram ]
!108 = metadata !{i32 458773, metadata !2, metadata !"", metadata !2, i32 0, i64 0, i64 0, i64 0, i32 0, null, metadata !109, i32 0, null} ; [ DW_TAG_subroutine_type ]
!109 = metadata !{metadata !15, metadata !110}
!110 = metadata !{i32 458767, metadata !2, metadata !"", metadata !2, i32 0, i64 32, i64 32, i64 0, i32 64, metadata !111} ; [ DW_TAG_pointer_type ]
!111 = metadata !{i32 458805, metadata !2, metadata !"", metadata !2, i32 0, i64 8, i64 8, i64 0, i32 0, metadata !15} ; [ DW_TAG_volatile_type ]
!112 = metadata !{i32 458798, i32 0, metadata !15, metadata !"write", metadata !"write", metadata !"_ZNV11ap_int_baseILi8ELb0EE5writeERKS0_", metadata !16, i32 1434, metadata !113, i1 false, i1 false, i32 0, i32 0, null, i1 false} ; [ DW_TAG_subprogram ]
!113 = metadata !{i32 458773, metadata !2, metadata !"", metadata !2, i32 0, i64 0, i64 0, i64 0, i32 0, null, metadata !114, i32 0, null} ; [ DW_TAG_subroutine_type ]
!114 = metadata !{null, metadata !110, metadata !115}
!115 = metadata !{i32 458768, metadata !2, metadata !"", metadata !2, i32 0, i64 32, i64 32, i64 0, i32 0, metadata !116} ; [ DW_TAG_reference_type ]
!116 = metadata !{i32 458790, metadata !2, metadata !"", metadata !2, i32 0, i64 8, i64 8, i64 0, i32 0, metadata !15} ; [ DW_TAG_const_type ]
!117 = metadata !{i32 458798, i32 0, metadata !15, metadata !"operator=", metadata !"operator=", metadata !"_ZNV11ap_int_baseILi8ELb0EEaSERVKS0_", metadata !16, i32 1446, metadata !118, i1 false, i1 false, i32 0, i32 0, null, i1 false} ; [ DW_TAG_subprogram ]
!118 = metadata !{i32 458773, metadata !2, metadata !"", metadata !2, i32 0, i64 0, i64 0, i64 0, i32 0, null, metadata !119, i32 0, null} ; [ DW_TAG_subroutine_type ]
!119 = metadata !{null, metadata !110, metadata !120}
!120 = metadata !{i32 458768, metadata !2, metadata !"", metadata !2, i32 0, i64 32, i64 32, i64 0, i32 0, metadata !121} ; [ DW_TAG_reference_type ]
!121 = metadata !{i32 458790, metadata !2, metadata !"", metadata !2, i32 0, i64 8, i64 8, i64 0, i32 0, metadata !111} ; [ DW_TAG_const_type ]
!122 = metadata !{i32 458798, i32 0, metadata !15, metadata !"operator=", metadata !"operator=", metadata !"_ZNV11ap_int_baseILi8ELb0EEaSERKS0_", metadata !16, i32 1455, metadata !113, i1 false, i1 false, i32 0, i32 0, null, i1 false} ; [ DW_TAG_subprogram ]
!123 = metadata !{i32 458798, i32 0, metadata !15, metadata !"operator=", metadata !"operator=", metadata !"_ZN11ap_int_baseILi8ELb0EEaSERVKS0_", metadata !16, i32 1478, metadata !124, i1 false, i1 false, i32 0, i32 0, null, i1 false} ; [ DW_TAG_subprogram ]
!124 = metadata !{i32 458773, metadata !2, metadata !"", metadata !2, i32 0, i64 0, i64 0, i64 0, i32 0, null, metadata !125, i32 0, null} ; [ DW_TAG_subroutine_type ]
!125 = metadata !{metadata !126, metadata !46, metadata !120}
!126 = metadata !{i32 458768, metadata !2, metadata !"ap_int_base<8,false>", metadata !2, i32 0, i64 32, i64 32, i64 0, i32 0, metadata !15} ; [ DW_TAG_reference_type ]
!127 = metadata !{i32 458798, i32 0, metadata !15, metadata !"operator=", metadata !"operator=", metadata !"_ZN11ap_int_baseILi8ELb0EEaSERKS0_", metadata !16, i32 1483, metadata !128, i1 false, i1 false, i32 0, i32 0, null, i1 false} ; [ DW_TAG_subprogram ]
!128 = metadata !{i32 458773, metadata !2, metadata !"", metadata !2, i32 0, i64 0, i64 0, i64 0, i32 0, null, metadata !129, i32 0, null} ; [ DW_TAG_subroutine_type ]
!129 = metadata !{metadata !126, metadata !46, metadata !115}
!130 = metadata !{i32 458798, i32 0, metadata !15, metadata !"operator=", metadata !"operator=", metadata !"_ZN11ap_int_baseILi8ELb0EEaSEPKc", metadata !16, i32 1487, metadata !131, i1 false, i1 false, i32 0, i32 0, null, i1 false} ; [ DW_TAG_subprogram ]
!131 = metadata !{i32 458773, metadata !2, metadata !"", metadata !2, i32 0, i64 0, i64 0, i64 0, i32 0, null, metadata !132, i32 0, null} ; [ DW_TAG_subroutine_type ]
!132 = metadata !{metadata !126, metadata !46, metadata !101}
!133 = metadata !{i32 458798, i32 0, metadata !15, metadata !"set", metadata !"set", metadata !"_ZN11ap_int_baseILi8ELb0EE3setEPKca", metadata !16, i32 1494, metadata !134, i1 false, i1 false, i32 0, i32 0, null, i1 false} ; [ DW_TAG_subprogram ]
!134 = metadata !{i32 458773, metadata !2, metadata !"", metadata !2, i32 0, i64 0, i64 0, i64 0, i32 0, null, metadata !135, i32 0, null} ; [ DW_TAG_subroutine_type ]
!135 = metadata !{metadata !126, metadata !46, metadata !101, metadata !54}
!136 = metadata !{i32 458798, i32 0, metadata !15, metadata !"operator=", metadata !"operator=", metadata !"_ZN11ap_int_baseILi8ELb0EEaSEy", metadata !16, i32 1502, metadata !137, i1 false, i1 false, i32 0, i32 0, null, i1 false} ; [ DW_TAG_subprogram ]
!137 = metadata !{i32 458773, metadata !2, metadata !"", metadata !2, i32 0, i64 0, i64 0, i64 0, i32 0, null, metadata !138, i32 0, null} ; [ DW_TAG_subroutine_type ]
!138 = metadata !{metadata !126, metadata !46, metadata !40}
!139 = metadata !{i32 458798, i32 0, metadata !15, metadata !"operator=", metadata !"operator=", metadata !"_ZN11ap_int_baseILi8ELb0EEaSEx", metadata !16, i32 1507, metadata !140, i1 false, i1 false, i32 0, i32 0, null, i1 false} ; [ DW_TAG_subprogram ]
!140 = metadata !{i32 458773, metadata !2, metadata !"", metadata !2, i32 0, i64 0, i64 0, i64 0, i32 0, null, metadata !141, i32 0, null} ; [ DW_TAG_subroutine_type ]
!141 = metadata !{metadata !126, metadata !46, metadata !86}
!142 = metadata !{i32 458798, i32 0, metadata !15, metadata !"to_int", metadata !"to_int", metadata !"_ZNK11ap_int_baseILi8ELb0EE6to_intEv", metadata !16, i32 1553, metadata !143, i1 false, i1 true, i32 0, i32 0, null, i1 false} ; [ DW_TAG_subprogram ]
!143 = metadata !{i32 458773, metadata !2, metadata !"", metadata !2, i32 0, i64 0, i64 0, i64 0, i32 0, null, metadata !144, i32 0, null} ; [ DW_TAG_subroutine_type ]
!144 = metadata !{metadata !70, metadata !145}
!145 = metadata !{i32 458767, metadata !2, metadata !"", metadata !2, i32 0, i64 32, i64 32, i64 0, i32 64, metadata !116} ; [ DW_TAG_pointer_type ]
!146 = metadata !{i32 458798, i32 0, metadata !15, metadata !"to_uint", metadata !"to_uint", metadata !"_ZNK11ap_int_baseILi8ELb0EE7to_uintEv", metadata !16, i32 1554, metadata !147, i1 false, i1 false, i32 0, i32 0, null, i1 false} ; [ DW_TAG_subprogram ]
!147 = metadata !{i32 458773, metadata !2, metadata !"", metadata !2, i32 0, i64 0, i64 0, i64 0, i32 0, null, metadata !148, i32 0, null} ; [ DW_TAG_subroutine_type ]
!148 = metadata !{metadata !74, metadata !145}
!149 = metadata !{i32 458798, i32 0, metadata !15, metadata !"to_long", metadata !"to_long", metadata !"_ZNK11ap_int_baseILi8ELb0EE7to_longEv", metadata !16, i32 1555, metadata !150, i1 false, i1 false, i32 0, i32 0, null, i1 false} ; [ DW_TAG_subprogram ]
!150 = metadata !{i32 458773, metadata !2, metadata !"", metadata !2, i32 0, i64 0, i64 0, i64 0, i32 0, null, metadata !151, i32 0, null} ; [ DW_TAG_subroutine_type ]
!151 = metadata !{metadata !78, metadata !145}
!152 = metadata !{i32 458798, i32 0, metadata !15, metadata !"to_ulong", metadata !"to_ulong", metadata !"_ZNK11ap_int_baseILi8ELb0EE8to_ulongEv", metadata !16, i32 1556, metadata !153, i1 false, i1 false, i32 0, i32 0, null, i1 false} ; [ DW_TAG_subprogram ]
!153 = metadata !{i32 458773, metadata !2, metadata !"", metadata !2, i32 0, i64 0, i64 0, i64 0, i32 0, null, metadata !154, i32 0, null} ; [ DW_TAG_subroutine_type ]
!154 = metadata !{metadata !82, metadata !145}
!155 = metadata !{i32 458798, i32 0, metadata !15, metadata !"to_int64", metadata !"to_int64", metadata !"_ZNK11ap_int_baseILi8ELb0EE8to_int64Ev", metadata !16, i32 1557, metadata !156, i1 false, i1 false, i32 0, i32 0, null, i1 false} ; [ DW_TAG_subprogram ]
!156 = metadata !{i32 458773, metadata !2, metadata !"", metadata !2, i32 0, i64 0, i64 0, i64 0, i32 0, null, metadata !157, i32 0, null} ; [ DW_TAG_subroutine_type ]
!157 = metadata !{metadata !158, metadata !145}
!158 = metadata !{i32 458774, metadata !2, metadata !"ap_slong", metadata !16, i32 65, i64 0, i64 0, i64 0, i32 0, metadata !86} ; [ DW_TAG_typedef ]
!159 = metadata !{i32 458798, i32 0, metadata !15, metadata !"to_uint64", metadata !"to_uint64", metadata !"_ZNK11ap_int_baseILi8ELb0EE9to_uint64Ev", metadata !16, i32 1558, metadata !160, i1 false, i1 false, i32 0, i32 0, null, i1 false} ; [ DW_TAG_subprogram ]
!160 = metadata !{i32 458773, metadata !2, metadata !"", metadata !2, i32 0, i64 0, i64 0, i64 0, i32 0, null, metadata !161, i32 0, null} ; [ DW_TAG_subroutine_type ]
!161 = metadata !{metadata !38, metadata !145}
!162 = metadata !{i32 458798, i32 0, metadata !15, metadata !"to_double", metadata !"to_double", metadata !"_ZNK11ap_int_baseILi8ELb0EE9to_doubleEv", metadata !16, i32 1559, metadata !163, i1 false, i1 false, i32 0, i32 0, null, i1 false} ; [ DW_TAG_subprogram ]
!163 = metadata !{i32 458773, metadata !2, metadata !"", metadata !2, i32 0, i64 0, i64 0, i64 0, i32 0, null, metadata !164, i32 0, null} ; [ DW_TAG_subroutine_type ]
!164 = metadata !{metadata !97, metadata !145}
!165 = metadata !{i32 458798, i32 0, metadata !15, metadata !"length", metadata !"length", metadata !"_ZNK11ap_int_baseILi8ELb0EE6lengthEv", metadata !16, i32 1572, metadata !143, i1 false, i1 true, i32 0, i32 0, null, i1 false} ; [ DW_TAG_subprogram ]
!166 = metadata !{i32 458798, i32 0, metadata !15, metadata !"length", metadata !"length", metadata !"_ZNVK11ap_int_baseILi8ELb0EE6lengthEv", metadata !16, i32 1573, metadata !167, i1 false, i1 false, i32 0, i32 0, null, i1 false} ; [ DW_TAG_subprogram ]
!167 = metadata !{i32 458773, metadata !2, metadata !"", metadata !2, i32 0, i64 0, i64 0, i64 0, i32 0, null, metadata !168, i32 0, null} ; [ DW_TAG_subroutine_type ]
!168 = metadata !{metadata !70, metadata !169}
!169 = metadata !{i32 458767, metadata !2, metadata !"", metadata !2, i32 0, i64 32, i64 32, i64 0, i32 64, metadata !121} ; [ DW_TAG_pointer_type ]
!170 = metadata !{i32 458798, i32 0, metadata !15, metadata !"reverse", metadata !"reverse", metadata !"_ZN11ap_int_baseILi8ELb0EE7reverseEv", metadata !16, i32 1578, metadata !171, i1 false, i1 false, i32 0, i32 0, null, i1 false} ; [ DW_TAG_subprogram ]
!171 = metadata !{i32 458773, metadata !2, metadata !"", metadata !2, i32 0, i64 0, i64 0, i64 0, i32 0, null, metadata !172, i32 0, null} ; [ DW_TAG_subroutine_type ]
!172 = metadata !{metadata !126, metadata !46}
!173 = metadata !{i32 458798, i32 0, metadata !15, metadata !"iszero", metadata !"iszero", metadata !"_ZNK11ap_int_baseILi8ELb0EE6iszeroEv", metadata !16, i32 1584, metadata !174, i1 false, i1 false, i32 0, i32 0, null, i1 false} ; [ DW_TAG_subprogram ]
!174 = metadata !{i32 458773, metadata !2, metadata !"", metadata !2, i32 0, i64 0, i64 0, i64 0, i32 0, null, metadata !175, i32 0, null} ; [ DW_TAG_subroutine_type ]
!175 = metadata !{metadata !50, metadata !145}
!176 = metadata !{i32 458798, i32 0, metadata !15, metadata !"is_zero", metadata !"is_zero", metadata !"_ZNK11ap_int_baseILi8ELb0EE7is_zeroEv", metadata !16, i32 1589, metadata !174, i1 false, i1 false, i32 0, i32 0, null, i1 false} ; [ DW_TAG_subprogram ]
!177 = metadata !{i32 458798, i32 0, metadata !15, metadata !"sign", metadata !"sign", metadata !"_ZNK11ap_int_baseILi8ELb0EE4signEv", metadata !16, i32 1594, metadata !174, i1 false, i1 false, i32 0, i32 0, null, i1 false} ; [ DW_TAG_subprogram ]
!178 = metadata !{i32 458798, i32 0, metadata !15, metadata !"clear", metadata !"clear", metadata !"_ZN11ap_int_baseILi8ELb0EE5clearEi", metadata !16, i32 1602, metadata !68, i1 false, i1 false, i32 0, i32 0, null, i1 false} ; [ DW_TAG_subprogram ]
!179 = metadata !{i32 458798, i32 0, metadata !15, metadata !"invert", metadata !"invert", metadata !"_ZN11ap_int_baseILi8ELb0EE6invertEi", metadata !16, i32 1608, metadata !68, i1 false, i1 false, i32 0, i32 0, null, i1 false} ; [ DW_TAG_subprogram ]
!180 = metadata !{i32 458798, i32 0, metadata !15, metadata !"test", metadata !"test", metadata !"_ZNK11ap_int_baseILi8ELb0EE4testEi", metadata !16, i32 1616, metadata !181, i1 false, i1 false, i32 0, i32 0, null, i1 false} ; [ DW_TAG_subprogram ]
!181 = metadata !{i32 458773, metadata !2, metadata !"", metadata !2, i32 0, i64 0, i64 0, i64 0, i32 0, null, metadata !182, i32 0, null} ; [ DW_TAG_subroutine_type ]
!182 = metadata !{metadata !50, metadata !145, metadata !70}
!183 = metadata !{i32 458798, i32 0, metadata !15, metadata !"set", metadata !"set", metadata !"_ZN11ap_int_baseILi8ELb0EE3setEi", metadata !16, i32 1622, metadata !68, i1 false, i1 false, i32 0, i32 0, null, i1 false} ; [ DW_TAG_subprogram ]
!184 = metadata !{i32 458798, i32 0, metadata !15, metadata !"set", metadata !"set", metadata !"_ZN11ap_int_baseILi8ELb0EE3setEib", metadata !16, i32 1628, metadata !185, i1 false, i1 false, i32 0, i32 0, null, i1 false} ; [ DW_TAG_subprogram ]
!185 = metadata !{i32 458773, metadata !2, metadata !"", metadata !2, i32 0, i64 0, i64 0, i64 0, i32 0, null, metadata !186, i32 0, null} ; [ DW_TAG_subroutine_type ]
!186 = metadata !{null, metadata !46, metadata !70, metadata !50}
!187 = metadata !{i32 458798, i32 0, metadata !15, metadata !"lrotate", metadata !"lrotate", metadata !"_ZN11ap_int_baseILi8ELb0EE7lrotateEi", metadata !16, i32 1635, metadata !68, i1 false, i1 false, i32 0, i32 0, null, i1 false} ; [ DW_TAG_subprogram ]
!188 = metadata !{i32 458798, i32 0, metadata !15, metadata !"rrotate", metadata !"rrotate", metadata !"_ZN11ap_int_baseILi8ELb0EE7rrotateEi", metadata !16, i32 1644, metadata !68, i1 false, i1 false, i32 0, i32 0, null, i1 false} ; [ DW_TAG_subprogram ]
!189 = metadata !{i32 458798, i32 0, metadata !15, metadata !"set_bit", metadata !"set_bit", metadata !"_ZN11ap_int_baseILi8ELb0EE7set_bitEib", metadata !16, i32 1652, metadata !185, i1 false, i1 false, i32 0, i32 0, null, i1 false} ; [ DW_TAG_subprogram ]
!190 = metadata !{i32 458798, i32 0, metadata !15, metadata !"get_bit", metadata !"get_bit", metadata !"_ZNK11ap_int_baseILi8ELb0EE7get_bitEi", metadata !16, i32 1657, metadata !181, i1 false, i1 false, i32 0, i32 0, null, i1 false} ; [ DW_TAG_subprogram ]
!191 = metadata !{i32 458798, i32 0, metadata !15, metadata !"b_not", metadata !"b_not", metadata !"_ZN11ap_int_baseILi8ELb0EE5b_notEv", metadata !16, i32 1662, metadata !44, i1 false, i1 false, i32 0, i32 0, null, i1 false} ; [ DW_TAG_subprogram ]
!192 = metadata !{i32 458798, i32 0, metadata !15, metadata !"operator++", metadata !"operator++", metadata !"_ZN11ap_int_baseILi8ELb0EEppEv", metadata !16, i32 1733, metadata !171, i1 false, i1 false, i32 0, i32 0, null, i1 false} ; [ DW_TAG_subprogram ]
!193 = metadata !{i32 458798, i32 0, metadata !15, metadata !"operator--", metadata !"operator--", metadata !"_ZN11ap_int_baseILi8ELb0EEmmEv", metadata !16, i32 1737, metadata !171, i1 false, i1 false, i32 0, i32 0, null, i1 false} ; [ DW_TAG_subprogram ]
!194 = metadata !{i32 458798, i32 0, metadata !15, metadata !"operator++", metadata !"operator++", metadata !"_ZN11ap_int_baseILi8ELb0EEppEi", metadata !16, i32 1745, metadata !195, i1 false, i1 false, i32 0, i32 0, null, i1 false} ; [ DW_TAG_subprogram ]
!195 = metadata !{i32 458773, metadata !2, metadata !"", metadata !2, i32 0, i64 0, i64 0, i64 0, i32 0, null, metadata !196, i32 0, null} ; [ DW_TAG_subroutine_type ]
!196 = metadata !{metadata !116, metadata !46, metadata !70}
!197 = metadata !{i32 458798, i32 0, metadata !15, metadata !"operator--", metadata !"operator--", metadata !"_ZN11ap_int_baseILi8ELb0EEmmEi", metadata !16, i32 1750, metadata !195, i1 false, i1 false, i32 0, i32 0, null, i1 false} ; [ DW_TAG_subprogram ]
!198 = metadata !{i32 458798, i32 0, metadata !15, metadata !"operator+", metadata !"operator+", metadata !"_ZN11ap_int_baseILi8ELb0EEpsEv", metadata !16, i32 1759, metadata !199, i1 false, i1 false, i32 0, i32 0, null, i1 false} ; [ DW_TAG_subprogram ]
!199 = metadata !{i32 458773, metadata !2, metadata !"", metadata !2, i32 0, i64 0, i64 0, i64 0, i32 0, null, metadata !200, i32 0, null} ; [ DW_TAG_subroutine_type ]
!200 = metadata !{metadata !15, metadata !46}
!201 = metadata !{i32 458798, i32 0, metadata !15, metadata !"operator-", metadata !"operator-", metadata !"_ZNK11ap_int_baseILi8ELb0EEngEv", metadata !16, i32 1762, metadata !202, i1 false, i1 false, i32 0, i32 0, null, i1 false} ; [ DW_TAG_subprogram ]
!202 = metadata !{i32 458773, metadata !2, metadata !"", metadata !2, i32 0, i64 0, i64 0, i64 0, i32 0, null, metadata !203, i32 0, null} ; [ DW_TAG_subroutine_type ]
!203 = metadata !{metadata !204, metadata !145}
!204 = metadata !{i32 458771, metadata !2, metadata !"ap_int_base<9,true>", metadata !16, i32 1306, i64 0, i64 0, i64 0, i32 4, null, null, i32 0, null} ; [ DW_TAG_structure_type ]
!205 = metadata !{i32 458798, i32 0, metadata !15, metadata !"operator!", metadata !"operator!", metadata !"_ZNK11ap_int_baseILi8ELb0EEntEv", metadata !16, i32 1769, metadata !174, i1 false, i1 false, i32 0, i32 0, null, i1 false} ; [ DW_TAG_subprogram ]
!206 = metadata !{i32 458798, i32 0, metadata !15, metadata !"operator~", metadata !"operator~", metadata !"_ZNK11ap_int_baseILi8ELb0EEcoEv", metadata !16, i32 1776, metadata !202, i1 false, i1 false, i32 0, i32 0, null, i1 false} ; [ DW_TAG_subprogram ]
!207 = metadata !{i32 458798, i32 0, metadata !15, metadata !"range", metadata !"range", metadata !"_ZN11ap_int_baseILi8ELb0EE5rangeEii", metadata !16, i32 1901, metadata !208, i1 false, i1 false, i32 0, i32 0, null, i1 false} ; [ DW_TAG_subprogram ]
!208 = metadata !{i32 458773, metadata !2, metadata !"", metadata !2, i32 0, i64 0, i64 0, i64 0, i32 0, null, metadata !209, i32 0, null} ; [ DW_TAG_subroutine_type ]
!209 = metadata !{metadata !210, metadata !46, metadata !70, metadata !70}
!210 = metadata !{i32 458771, metadata !2, metadata !"ap_range_ref<8,false>", metadata !16, i32 871, i64 0, i64 0, i64 0, i32 4, null, null, i32 0, null} ; [ DW_TAG_structure_type ]
!211 = metadata !{i32 458798, i32 0, metadata !15, metadata !"operator()", metadata !"operator()", metadata !"_ZN11ap_int_baseILi8ELb0EEclEii", metadata !16, i32 1907, metadata !208, i1 false, i1 false, i32 0, i32 0, null, i1 false} ; [ DW_TAG_subprogram ]
!212 = metadata !{i32 458798, i32 0, metadata !15, metadata !"range", metadata !"range", metadata !"_ZNK11ap_int_baseILi8ELb0EE5rangeEii", metadata !16, i32 1913, metadata !213, i1 false, i1 false, i32 0, i32 0, null, i1 false} ; [ DW_TAG_subprogram ]
!213 = metadata !{i32 458773, metadata !2, metadata !"", metadata !2, i32 0, i64 0, i64 0, i64 0, i32 0, null, metadata !214, i32 0, null} ; [ DW_TAG_subroutine_type ]
!214 = metadata !{metadata !210, metadata !145, metadata !70, metadata !70}
!215 = metadata !{i32 458798, i32 0, metadata !15, metadata !"operator()", metadata !"operator()", metadata !"_ZNK11ap_int_baseILi8ELb0EEclEii", metadata !16, i32 1919, metadata !213, i1 false, i1 false, i32 0, i32 0, null, i1 false} ; [ DW_TAG_subprogram ]
!216 = metadata !{i32 458798, i32 0, metadata !15, metadata !"operator[]", metadata !"operator[]", metadata !"_ZN11ap_int_baseILi8ELb0EEixEi", metadata !16, i32 1978, metadata !217, i1 false, i1 false, i32 0, i32 0, null, i1 false} ; [ DW_TAG_subprogram ]
!217 = metadata !{i32 458773, metadata !2, metadata !"", metadata !2, i32 0, i64 0, i64 0, i64 0, i32 0, null, metadata !218, i32 0, null} ; [ DW_TAG_subroutine_type ]
!218 = metadata !{metadata !219, metadata !46, metadata !70}
!219 = metadata !{i32 458771, metadata !2, metadata !"ap_bit_ref<8,false>", metadata !16, i32 1106, i64 0, i64 0, i64 0, i32 4, null, null, i32 0, null} ; [ DW_TAG_structure_type ]
!220 = metadata !{i32 458798, i32 0, metadata !15, metadata !"operator[]", metadata !"operator[]", metadata !"_ZNK11ap_int_baseILi8ELb0EEixEi", metadata !16, i32 1992, metadata !181, i1 false, i1 false, i32 0, i32 0, null, i1 false} ; [ DW_TAG_subprogram ]
!221 = metadata !{i32 458798, i32 0, metadata !15, metadata !"bit", metadata !"bit", metadata !"_ZN11ap_int_baseILi8ELb0EE3bitEi", metadata !16, i32 2006, metadata !217, i1 false, i1 false, i32 0, i32 0, null, i1 false} ; [ DW_TAG_subprogram ]
!222 = metadata !{i32 458798, i32 0, metadata !15, metadata !"bit", metadata !"bit", metadata !"_ZNK11ap_int_baseILi8ELb0EE3bitEi", metadata !16, i32 2020, metadata !181, i1 false, i1 false, i32 0, i32 0, null, i1 false} ; [ DW_TAG_subprogram ]
!223 = metadata !{i32 458798, i32 0, metadata !15, metadata !"and_reduce", metadata !"and_reduce", metadata !"_ZN11ap_int_baseILi8ELb0EE10and_reduceEv", metadata !16, i32 2200, metadata !224, i1 false, i1 false, i32 0, i32 0, null, i1 false} ; [ DW_TAG_subprogram ]
!224 = metadata !{i32 458773, metadata !2, metadata !"", metadata !2, i32 0, i64 0, i64 0, i64 0, i32 0, null, metadata !225, i32 0, null} ; [ DW_TAG_subroutine_type ]
!225 = metadata !{metadata !50, metadata !46}
!226 = metadata !{i32 458798, i32 0, metadata !15, metadata !"nand_reduce", metadata !"nand_reduce", metadata !"_ZN11ap_int_baseILi8ELb0EE11nand_reduceEv", metadata !16, i32 2203, metadata !224, i1 false, i1 false, i32 0, i32 0, null, i1 false} ; [ DW_TAG_subprogram ]
!227 = metadata !{i32 458798, i32 0, metadata !15, metadata !"or_reduce", metadata !"or_reduce", metadata !"_ZN11ap_int_baseILi8ELb0EE9or_reduceEv", metadata !16, i32 2206, metadata !224, i1 false, i1 false, i32 0, i32 0, null, i1 false} ; [ DW_TAG_subprogram ]
!228 = metadata !{i32 458798, i32 0, metadata !15, metadata !"nor_reduce", metadata !"nor_reduce", metadata !"_ZN11ap_int_baseILi8ELb0EE10nor_reduceEv", metadata !16, i32 2209, metadata !224, i1 false, i1 false, i32 0, i32 0, null, i1 false} ; [ DW_TAG_subprogram ]
!229 = metadata !{i32 458798, i32 0, metadata !15, metadata !"xor_reduce", metadata !"xor_reduce", metadata !"_ZN11ap_int_baseILi8ELb0EE10xor_reduceEv", metadata !16, i32 2212, metadata !224, i1 false, i1 false, i32 0, i32 0, null, i1 false} ; [ DW_TAG_subprogram ]
!230 = metadata !{i32 458798, i32 0, metadata !15, metadata !"xnor_reduce", metadata !"xnor_reduce", metadata !"_ZN11ap_int_baseILi8ELb0EE11xnor_reduceEv", metadata !16, i32 2215, metadata !224, i1 false, i1 false, i32 0, i32 0, null, i1 false} ; [ DW_TAG_subprogram ]
!231 = metadata !{i32 458798, i32 0, metadata !15, metadata !"and_reduce", metadata !"and_reduce", metadata !"_ZNK11ap_int_baseILi8ELb0EE10and_reduceEv", metadata !16, i32 2219, metadata !174, i1 false, i1 false, i32 0, i32 0, null, i1 false} ; [ DW_TAG_subprogram ]
!232 = metadata !{i32 458798, i32 0, metadata !15, metadata !"nand_reduce", metadata !"nand_reduce", metadata !"_ZNK11ap_int_baseILi8ELb0EE11nand_reduceEv", metadata !16, i32 2222, metadata !174, i1 false, i1 false, i32 0, i32 0, null, i1 false} ; [ DW_TAG_subprogram ]
!233 = metadata !{i32 458798, i32 0, metadata !15, metadata !"or_reduce", metadata !"or_reduce", metadata !"_ZNK11ap_int_baseILi8ELb0EE9or_reduceEv", metadata !16, i32 2225, metadata !174, i1 false, i1 false, i32 0, i32 0, null, i1 false} ; [ DW_TAG_subprogram ]
!234 = metadata !{i32 458798, i32 0, metadata !15, metadata !"nor_reduce", metadata !"nor_reduce", metadata !"_ZNK11ap_int_baseILi8ELb0EE10nor_reduceEv", metadata !16, i32 2228, metadata !174, i1 false, i1 false, i32 0, i32 0, null, i1 false} ; [ DW_TAG_subprogram ]
!235 = metadata !{i32 458798, i32 0, metadata !15, metadata !"xor_reduce", metadata !"xor_reduce", metadata !"_ZNK11ap_int_baseILi8ELb0EE10xor_reduceEv", metadata !16, i32 2231, metadata !174, i1 false, i1 false, i32 0, i32 0, null, i1 false} ; [ DW_TAG_subprogram ]
!236 = metadata !{i32 458798, i32 0, metadata !15, metadata !"xnor_reduce", metadata !"xnor_reduce", metadata !"_ZNK11ap_int_baseILi8ELb0EE11xnor_reduceEv", metadata !16, i32 2234, metadata !174, i1 false, i1 false, i32 0, i32 0, null, i1 false} ; [ DW_TAG_subprogram ]
!237 = metadata !{i32 458798, i32 0, metadata !15, metadata !"to_string", metadata !"to_string", metadata !"_ZNK11ap_int_baseILi8ELb0EE9to_stringEPci8BaseModeb", metadata !16, i32 2241, metadata !238, i1 false, i1 false, i32 0, i32 0, null, i1 false} ; [ DW_TAG_subprogram ]
!238 = metadata !{i32 458773, metadata !2, metadata !"", metadata !2, i32 0, i64 0, i64 0, i64 0, i32 0, null, metadata !239, i32 0, null} ; [ DW_TAG_subroutine_type ]
!239 = metadata !{null, metadata !145, metadata !240, metadata !70, metadata !241, metadata !50}
!240 = metadata !{i32 458767, metadata !2, metadata !"", metadata !2, i32 0, i64 32, i64 32, i64 0, i32 0, metadata !103} ; [ DW_TAG_pointer_type ]
!241 = metadata !{i32 458756, metadata !2, metadata !"BaseMode", metadata !16, i32 551, i64 32, i64 32, i64 0, i32 0, null, metadata !242, i32 0, null} ; [ DW_TAG_enumeration_type ]
!242 = metadata !{metadata !243, metadata !244, metadata !245, metadata !246}
!243 = metadata !{i32 458792, metadata !"SC_BIN", i64 2} ; [ DW_TAG_enumerator ]
!244 = metadata !{i32 458792, metadata !"SC_OCT", i64 8} ; [ DW_TAG_enumerator ]
!245 = metadata !{i32 458792, metadata !"SC_DEC", i64 10} ; [ DW_TAG_enumerator ]
!246 = metadata !{i32 458792, metadata !"SC_HEX", i64 16} ; [ DW_TAG_enumerator ]
!247 = metadata !{i32 458798, i32 0, metadata !15, metadata !"to_string", metadata !"to_string", metadata !"_ZNK11ap_int_baseILi8ELb0EE9to_stringE8BaseModeb", metadata !16, i32 2268, metadata !248, i1 false, i1 false, i32 0, i32 0, null, i1 false} ; [ DW_TAG_subprogram ]
!248 = metadata !{i32 458773, metadata !2, metadata !"", metadata !2, i32 0, i64 0, i64 0, i64 0, i32 0, null, metadata !249, i32 0, null} ; [ DW_TAG_subroutine_type ]
!249 = metadata !{metadata !240, metadata !145, metadata !241, metadata !50}
!250 = metadata !{i32 458798, i32 0, metadata !15, metadata !"to_string", metadata !"to_string", metadata !"_ZNK11ap_int_baseILi8ELb0EE9to_stringEab", metadata !16, i32 2272, metadata !251, i1 false, i1 false, i32 0, i32 0, null, i1 false} ; [ DW_TAG_subprogram ]
!251 = metadata !{i32 458773, metadata !2, metadata !"", metadata !2, i32 0, i64 0, i64 0, i64 0, i32 0, null, metadata !252, i32 0, null} ; [ DW_TAG_subroutine_type ]
!252 = metadata !{metadata !240, metadata !145, metadata !54, metadata !50}
!253 = metadata !{i32 458798, i32 0, metadata !11, metadata !"ap_uint", metadata !"ap_uint", metadata !"", metadata !12, i32 137, metadata !254, i1 false, i1 false, i32 0, i32 0, null, i1 false} ; [ DW_TAG_subprogram ]
!254 = metadata !{i32 458773, metadata !2, metadata !"", metadata !2, i32 0, i64 0, i64 0, i64 0, i32 0, null, metadata !255, i32 0, null} ; [ DW_TAG_subroutine_type ]
!255 = metadata !{null, metadata !256}
!256 = metadata !{i32 458767, metadata !2, metadata !"", metadata !2, i32 0, i64 32, i64 32, i64 0, i32 64, metadata !11} ; [ DW_TAG_pointer_type ]
!257 = metadata !{i32 458798, i32 0, metadata !11, metadata !"ap_uint", metadata !"ap_uint", metadata !"", metadata !12, i32 199, metadata !258, i1 false, i1 false, i32 0, i32 0, null, i1 false} ; [ DW_TAG_subprogram ]
!258 = metadata !{i32 458773, metadata !2, metadata !"", metadata !2, i32 0, i64 0, i64 0, i64 0, i32 0, null, metadata !259, i32 0, null} ; [ DW_TAG_subroutine_type ]
!259 = metadata !{null, metadata !256, metadata !50}
!260 = metadata !{i32 458798, i32 0, metadata !11, metadata !"ap_uint", metadata !"ap_uint", metadata !"", metadata !12, i32 200, metadata !261, i1 false, i1 false, i32 0, i32 0, null, i1 false} ; [ DW_TAG_subprogram ]
!261 = metadata !{i32 458773, metadata !2, metadata !"", metadata !2, i32 0, i64 0, i64 0, i64 0, i32 0, null, metadata !262, i32 0, null} ; [ DW_TAG_subroutine_type ]
!262 = metadata !{null, metadata !256, metadata !54}
!263 = metadata !{i32 458798, i32 0, metadata !11, metadata !"ap_uint", metadata !"ap_uint", metadata !"", metadata !12, i32 201, metadata !264, i1 false, i1 false, i32 0, i32 0, null, i1 false} ; [ DW_TAG_subprogram ]
!264 = metadata !{i32 458773, metadata !2, metadata !"", metadata !2, i32 0, i64 0, i64 0, i64 0, i32 0, null, metadata !265, i32 0, null} ; [ DW_TAG_subroutine_type ]
!265 = metadata !{null, metadata !256, metadata !58}
!266 = metadata !{i32 458798, i32 0, metadata !11, metadata !"ap_uint", metadata !"ap_uint", metadata !"", metadata !12, i32 202, metadata !267, i1 false, i1 false, i32 0, i32 0, null, i1 false} ; [ DW_TAG_subprogram ]
!267 = metadata !{i32 458773, metadata !2, metadata !"", metadata !2, i32 0, i64 0, i64 0, i64 0, i32 0, null, metadata !268, i32 0, null} ; [ DW_TAG_subroutine_type ]
!268 = metadata !{null, metadata !256, metadata !62}
!269 = metadata !{i32 458798, i32 0, metadata !11, metadata !"ap_uint", metadata !"ap_uint", metadata !"", metadata !12, i32 203, metadata !270, i1 false, i1 false, i32 0, i32 0, null, i1 false} ; [ DW_TAG_subprogram ]
!270 = metadata !{i32 458773, metadata !2, metadata !"", metadata !2, i32 0, i64 0, i64 0, i64 0, i32 0, null, metadata !271, i32 0, null} ; [ DW_TAG_subroutine_type ]
!271 = metadata !{null, metadata !256, metadata !66}
!272 = metadata !{i32 458798, i32 0, metadata !11, metadata !"ap_uint", metadata !"ap_uint", metadata !"", metadata !12, i32 204, metadata !273, i1 false, i1 false, i32 0, i32 0, null, i1 false} ; [ DW_TAG_subprogram ]
!273 = metadata !{i32 458773, metadata !2, metadata !"", metadata !2, i32 0, i64 0, i64 0, i64 0, i32 0, null, metadata !274, i32 0, null} ; [ DW_TAG_subroutine_type ]
!274 = metadata !{null, metadata !256, metadata !70}
!275 = metadata !{i32 458798, i32 0, metadata !11, metadata !"ap_uint", metadata !"ap_uint", metadata !"", metadata !12, i32 205, metadata !276, i1 false, i1 false, i32 0, i32 0, null, i1 false} ; [ DW_TAG_subprogram ]
!276 = metadata !{i32 458773, metadata !2, metadata !"", metadata !2, i32 0, i64 0, i64 0, i64 0, i32 0, null, metadata !277, i32 0, null} ; [ DW_TAG_subroutine_type ]
!277 = metadata !{null, metadata !256, metadata !74}
!278 = metadata !{i32 458798, i32 0, metadata !11, metadata !"ap_uint", metadata !"ap_uint", metadata !"", metadata !12, i32 206, metadata !279, i1 false, i1 false, i32 0, i32 0, null, i1 false} ; [ DW_TAG_subprogram ]
!279 = metadata !{i32 458773, metadata !2, metadata !"", metadata !2, i32 0, i64 0, i64 0, i64 0, i32 0, null, metadata !280, i32 0, null} ; [ DW_TAG_subroutine_type ]
!280 = metadata !{null, metadata !256, metadata !78}
!281 = metadata !{i32 458798, i32 0, metadata !11, metadata !"ap_uint", metadata !"ap_uint", metadata !"", metadata !12, i32 207, metadata !282, i1 false, i1 false, i32 0, i32 0, null, i1 false} ; [ DW_TAG_subprogram ]
!282 = metadata !{i32 458773, metadata !2, metadata !"", metadata !2, i32 0, i64 0, i64 0, i64 0, i32 0, null, metadata !283, i32 0, null} ; [ DW_TAG_subroutine_type ]
!283 = metadata !{null, metadata !256, metadata !82}
!284 = metadata !{i32 458798, i32 0, metadata !11, metadata !"ap_uint", metadata !"ap_uint", metadata !"", metadata !12, i32 208, metadata !285, i1 false, i1 false, i32 0, i32 0, null, i1 false} ; [ DW_TAG_subprogram ]
!285 = metadata !{i32 458773, metadata !2, metadata !"", metadata !2, i32 0, i64 0, i64 0, i64 0, i32 0, null, metadata !286, i32 0, null} ; [ DW_TAG_subroutine_type ]
!286 = metadata !{null, metadata !256, metadata !40}
!287 = metadata !{i32 458798, i32 0, metadata !11, metadata !"ap_uint", metadata !"ap_uint", metadata !"", metadata !12, i32 209, metadata !288, i1 false, i1 false, i32 0, i32 0, null, i1 false} ; [ DW_TAG_subprogram ]
!288 = metadata !{i32 458773, metadata !2, metadata !"", metadata !2, i32 0, i64 0, i64 0, i64 0, i32 0, null, metadata !289, i32 0, null} ; [ DW_TAG_subroutine_type ]
!289 = metadata !{null, metadata !256, metadata !86}
!290 = metadata !{i32 458798, i32 0, metadata !11, metadata !"ap_uint", metadata !"ap_uint", metadata !"", metadata !12, i32 210, metadata !291, i1 false, i1 false, i32 0, i32 0, null, i1 false} ; [ DW_TAG_subprogram ]
!291 = metadata !{i32 458773, metadata !2, metadata !"", metadata !2, i32 0, i64 0, i64 0, i64 0, i32 0, null, metadata !292, i32 0, null} ; [ DW_TAG_subroutine_type ]
!292 = metadata !{null, metadata !256, metadata !93}
!293 = metadata !{i32 458798, i32 0, metadata !11, metadata !"ap_uint", metadata !"ap_uint", metadata !"", metadata !12, i32 211, metadata !294, i1 false, i1 false, i32 0, i32 0, null, i1 false} ; [ DW_TAG_subprogram ]
!294 = metadata !{i32 458773, metadata !2, metadata !"", metadata !2, i32 0, i64 0, i64 0, i64 0, i32 0, null, metadata !295, i32 0, null} ; [ DW_TAG_subroutine_type ]
!295 = metadata !{null, metadata !256, metadata !97}
!296 = metadata !{i32 458798, i32 0, metadata !11, metadata !"ap_uint", metadata !"ap_uint", metadata !"", metadata !12, i32 213, metadata !297, i1 false, i1 false, i32 0, i32 0, null, i1 false} ; [ DW_TAG_subprogram ]
!297 = metadata !{i32 458773, metadata !2, metadata !"", metadata !2, i32 0, i64 0, i64 0, i64 0, i32 0, null, metadata !298, i32 0, null} ; [ DW_TAG_subroutine_type ]
!298 = metadata !{null, metadata !256, metadata !101}
!299 = metadata !{i32 458798, i32 0, metadata !11, metadata !"ap_uint", metadata !"ap_uint", metadata !"", metadata !12, i32 214, metadata !300, i1 false, i1 false, i32 0, i32 0, null, i1 false} ; [ DW_TAG_subprogram ]
!300 = metadata !{i32 458773, metadata !2, metadata !"", metadata !2, i32 0, i64 0, i64 0, i64 0, i32 0, null, metadata !301, i32 0, null} ; [ DW_TAG_subroutine_type ]
!301 = metadata !{null, metadata !256, metadata !101, metadata !54}
!302 = metadata !{i32 458798, i32 0, metadata !11, metadata !"operator=", metadata !"operator=", metadata !"_ZNV7ap_uintILi8EEaSERKS0_", metadata !12, i32 217, metadata !303, i1 false, i1 false, i32 0, i32 0, null, i1 false} ; [ DW_TAG_subprogram ]
!303 = metadata !{i32 458773, metadata !2, metadata !"", metadata !2, i32 0, i64 0, i64 0, i64 0, i32 0, null, metadata !304, i32 0, null} ; [ DW_TAG_subroutine_type ]
!304 = metadata !{null, metadata !305, metadata !307}
!305 = metadata !{i32 458767, metadata !2, metadata !"", metadata !2, i32 0, i64 32, i64 32, i64 0, i32 64, metadata !306} ; [ DW_TAG_pointer_type ]
!306 = metadata !{i32 458805, metadata !2, metadata !"", metadata !2, i32 0, i64 8, i64 8, i64 0, i32 0, metadata !11} ; [ DW_TAG_volatile_type ]
!307 = metadata !{i32 458768, metadata !2, metadata !"", metadata !2, i32 0, i64 32, i64 32, i64 0, i32 0, metadata !308} ; [ DW_TAG_reference_type ]
!308 = metadata !{i32 458790, metadata !2, metadata !"", metadata !2, i32 0, i64 8, i64 8, i64 0, i32 0, metadata !11} ; [ DW_TAG_const_type ]
!309 = metadata !{i32 458798, i32 0, metadata !11, metadata !"operator=", metadata !"operator=", metadata !"_ZNV7ap_uintILi8EEaSERVKS0_", metadata !12, i32 221, metadata !310, i1 false, i1 false, i32 0, i32 0, null, i1 false} ; [ DW_TAG_subprogram ]
!310 = metadata !{i32 458773, metadata !2, metadata !"", metadata !2, i32 0, i64 0, i64 0, i64 0, i32 0, null, metadata !311, i32 0, null} ; [ DW_TAG_subroutine_type ]
!311 = metadata !{null, metadata !305, metadata !312}
!312 = metadata !{i32 458768, metadata !2, metadata !"", metadata !2, i32 0, i64 32, i64 32, i64 0, i32 0, metadata !313} ; [ DW_TAG_reference_type ]
!313 = metadata !{i32 458790, metadata !2, metadata !"", metadata !2, i32 0, i64 8, i64 8, i64 0, i32 0, metadata !306} ; [ DW_TAG_const_type ]
!314 = metadata !{i32 458798, i32 0, metadata !11, metadata !"operator=", metadata !"operator=", metadata !"_ZN7ap_uintILi8EEaSERVKS0_", metadata !12, i32 225, metadata !315, i1 false, i1 false, i32 0, i32 0, null, i1 false} ; [ DW_TAG_subprogram ]
!315 = metadata !{i32 458773, metadata !2, metadata !"", metadata !2, i32 0, i64 0, i64 0, i64 0, i32 0, null, metadata !316, i32 0, null} ; [ DW_TAG_subroutine_type ]
!316 = metadata !{metadata !317, metadata !256, metadata !312}
!317 = metadata !{i32 458768, metadata !2, metadata !"ap_uint<8>", metadata !2, i32 0, i64 32, i64 32, i64 0, i32 0, metadata !11} ; [ DW_TAG_reference_type ]
!318 = metadata !{i32 458798, i32 0, metadata !11, metadata !"operator=", metadata !"operator=", metadata !"_ZN7ap_uintILi8EEaSERKS0_", metadata !12, i32 230, metadata !319, i1 false, i1 true, i32 0, i32 0, null, i1 false} ; [ DW_TAG_subprogram ]
!319 = metadata !{i32 458773, metadata !2, metadata !"", metadata !2, i32 0, i64 0, i64 0, i64 0, i32 0, null, metadata !320, i32 0, null} ; [ DW_TAG_subroutine_type ]
!320 = metadata !{metadata !317, metadata !256, metadata !307}
!321 = metadata !{i32 458765, metadata !8, metadata !"G", metadata !7, i32 56, i64 8, i64 8, i64 8, i32 0, metadata !11} ; [ DW_TAG_member ]
!322 = metadata !{i32 458765, metadata !8, metadata !"R", metadata !7, i32 57, i64 8, i64 8, i64 16, i32 0, metadata !11} ; [ DW_TAG_member ]
!323 = metadata !{i32 458798, i32 0, metadata !8, metadata !"operator=", metadata !"operator=", metadata !"_ZN6ap_rgbILi8ELi8ELi8EEaSERKS0_", metadata !7, i32 54, metadata !324, i1 false, i1 true, i32 0, i32 0, null, i1 true} ; [ DW_TAG_subprogram ]
!324 = metadata !{i32 458773, metadata !2, metadata !"", metadata !2, i32 0, i64 0, i64 0, i64 0, i32 0, null, metadata !325, i32 0, null} ; [ DW_TAG_subroutine_type ]
!325 = metadata !{metadata !326, metadata !327, metadata !328}
!326 = metadata !{i32 458768, metadata !2, metadata !"ap_rgb<8,8,8>", metadata !2, i32 0, i64 32, i64 32, i64 0, i32 0, metadata !8} ; [ DW_TAG_reference_type ]
!327 = metadata !{i32 458767, metadata !2, metadata !"", metadata !2, i32 0, i64 32, i64 32, i64 0, i32 64, metadata !8} ; [ DW_TAG_pointer_type ]
!328 = metadata !{i32 458768, metadata !2, metadata !"", metadata !2, i32 0, i64 32, i64 32, i64 0, i32 0, metadata !329} ; [ DW_TAG_reference_type ]
!329 = metadata !{i32 458790, metadata !2, metadata !"", metadata !2, i32 0, i64 24, i64 8, i64 0, i32 0, metadata !8} ; [ DW_TAG_const_type ]
!330 = metadata !{i32 458798, i32 0, metadata !8, metadata !"ap_rgb", metadata !"ap_rgb", metadata !"", metadata !7, i32 54, metadata !331, i1 false, i1 false, i32 0, i32 0, null, i1 true} ; [ DW_TAG_subprogram ]
!331 = metadata !{i32 458773, metadata !2, metadata !"", metadata !2, i32 0, i64 0, i64 0, i64 0, i32 0, null, metadata !332, i32 0, null} ; [ DW_TAG_subroutine_type ]
!332 = metadata !{null, metadata !327}
!333 = metadata !{i32 458767, metadata !2, metadata !"", metadata !2, i32 0, i64 32, i64 32, i64 0, i32 0, metadata !334} ; [ DW_TAG_pointer_type ]
!334 = metadata !{i32 458774, metadata !2, metadata !"WINDOW", metadata !335, i32 70, i64 0, i64 0, i64 0, i32 0, metadata !336} ; [ DW_TAG_typedef ]
!335 = metadata !{i32 458769, i32 0, i32 4, metadata !"sobel.h", metadata !"C:\5CWORK\5Csobel_variable\5Caxi_sobel\5Caxi_sobel/", metadata !"4.2.1 (Based on Apple Inc. build 5658) (LLVM build)", i1 false, i1 false, metadata !"", i32 0} ; [ DW_TAG_compile_unit ]
!336 = metadata !{i32 458771, metadata !2, metadata !"ap_window<unsigned char,3,3>", metadata !7, i32 176, i64 72, i64 8, i64 0, i32 0, null, metadata !337, i32 0, null} ; [ DW_TAG_structure_type ]
!337 = metadata !{metadata !338, metadata !342, metadata !346, metadata !349, metadata !350, metadata !351, metadata !352, metadata !353, metadata !356, metadata !357}
!338 = metadata !{i32 458765, metadata !336, metadata !"M", metadata !7, i32 178, i64 72, i64 8, i64 0, i32 0, metadata !339} ; [ DW_TAG_member ]
!339 = metadata !{i32 458753, metadata !2, metadata !"", metadata !2, i32 0, i64 72, i64 8, i64 0, i32 0, metadata !58, metadata !340, i32 0, null} ; [ DW_TAG_array_type ]
!340 = metadata !{metadata !341, metadata !341}
!341 = metadata !{i32 458785, i64 0, i64 2}       ; [ DW_TAG_subrange_type ]
!342 = metadata !{i32 458798, i32 0, metadata !336, metadata !"ap_window", metadata !"ap_window", metadata !"", metadata !7, i32 180, metadata !343, i1 false, i1 false, i32 0, i32 0, null, i1 false} ; [ DW_TAG_subprogram ]
!343 = metadata !{i32 458773, metadata !2, metadata !"", metadata !2, i32 0, i64 0, i64 0, i64 0, i32 0, null, metadata !344, i32 0, null} ; [ DW_TAG_subroutine_type ]
!344 = metadata !{null, metadata !345}
!345 = metadata !{i32 458767, metadata !2, metadata !"", metadata !2, i32 0, i64 32, i64 32, i64 0, i32 64, metadata !336} ; [ DW_TAG_pointer_type ]
!346 = metadata !{i32 458798, i32 0, metadata !336, metadata !"~ap_window", metadata !"~ap_window", metadata !"", metadata !7, i32 184, metadata !347, i1 false, i1 false, i32 0, i32 0, null, i1 false} ; [ DW_TAG_subprogram ]
!347 = metadata !{i32 458773, metadata !2, metadata !"", metadata !2, i32 0, i64 0, i64 0, i64 0, i32 0, null, metadata !348, i32 0, null} ; [ DW_TAG_subroutine_type ]
!348 = metadata !{null, metadata !345, metadata !70}
!349 = metadata !{i32 458798, i32 0, metadata !336, metadata !"shift_right", metadata !"shift_right", metadata !"_ZN9ap_windowIhLi3ELi3EE11shift_rightEv", metadata !7, i32 222, metadata !343, i1 false, i1 true, i32 0, i32 0, null, i1 false} ; [ DW_TAG_subprogram ]
!350 = metadata !{i32 458798, i32 0, metadata !336, metadata !"shift_left", metadata !"shift_left", metadata !"_ZN9ap_windowIhLi3ELi3EE10shift_leftEv", metadata !7, i32 240, metadata !343, i1 false, i1 false, i32 0, i32 0, null, i1 false} ; [ DW_TAG_subprogram ]
!351 = metadata !{i32 458798, i32 0, metadata !336, metadata !"shift_up", metadata !"shift_up", metadata !"_ZN9ap_windowIhLi3ELi3EE8shift_upEv", metadata !7, i32 258, metadata !343, i1 false, i1 false, i32 0, i32 0, null, i1 false} ; [ DW_TAG_subprogram ]
!352 = metadata !{i32 458798, i32 0, metadata !336, metadata !"shift_down", metadata !"shift_down", metadata !"_ZN9ap_windowIhLi3ELi3EE10shift_downEv", metadata !7, i32 276, metadata !343, i1 false, i1 false, i32 0, i32 0, null, i1 false} ; [ DW_TAG_subprogram ]
!353 = metadata !{i32 458798, i32 0, metadata !336, metadata !"insert", metadata !"insert", metadata !"_ZN9ap_windowIhLi3ELi3EE6insertEhii", metadata !7, i32 293, metadata !354, i1 false, i1 true, i32 0, i32 0, null, i1 false} ; [ DW_TAG_subprogram ]
!354 = metadata !{i32 458773, metadata !2, metadata !"", metadata !2, i32 0, i64 0, i64 0, i64 0, i32 0, null, metadata !355, i32 0, null} ; [ DW_TAG_subroutine_type ]
!355 = metadata !{null, metadata !345, metadata !58, metadata !70, metadata !70}
!356 = metadata !{i32 458798, i32 0, metadata !336, metadata !"print", metadata !"print", metadata !"_ZN9ap_windowIhLi3ELi3EE5printEv", metadata !7, i32 198, metadata !343, i1 false, i1 false, i32 0, i32 0, null, i1 false} ; [ DW_TAG_subprogram ]
!357 = metadata !{i32 458798, i32 0, metadata !336, metadata !"getval", metadata !"getval", metadata !"_ZN9ap_windowIhLi3ELi3EE6getvalEii", metadata !7, i32 303, metadata !358, i1 false, i1 true, i32 0, i32 0, null, i1 false} ; [ DW_TAG_subprogram ]
!358 = metadata !{i32 458773, metadata !2, metadata !"", metadata !2, i32 0, i64 0, i64 0, i64 0, i32 0, null, metadata !359, i32 0, null} ; [ DW_TAG_subroutine_type ]
!359 = metadata !{metadata !58, metadata !345, metadata !70, metadata !70}
!360 = metadata !{i32 458753, metadata !2, metadata !"", metadata !2, i32 0, i64 72, i64 8, i64 0, i32 0, metadata !103, metadata !340, i32 0, null} ; [ DW_TAG_array_type ]
!361 = metadata !{i32 458804, i32 0, metadata !1, metadata !"x_op", metadata !"x_op", metadata !"", metadata !3, i32 74, metadata !360, i1 true, i1 true, null} ; [ DW_TAG_variable ]
!362 = metadata !{i32 462851, metadata !363, metadata !"inter_pix.data.V", metadata !3, i32 111, metadata !1282} ; [ DW_TAG_arg_variable_field ]
!363 = metadata !{i32 459009, metadata !364, metadata !"inter_pix", metadata !3, i32 111, metadata !367} ; [ DW_TAG_arg_variable ]
!364 = metadata !{i32 458798, i32 0, metadata !2, metadata !"sobel_filter", metadata !"sobel_filter", metadata !"_Z12sobel_filterPA1920_7ap_axiuILi32ELi1ELi1ELi1EES2_ii", metadata !3, i32 111, metadata !365, i1 false, i1 true, i32 0, i32 0, null, i1 false} ; [ DW_TAG_subprogram ]
!365 = metadata !{i32 458773, metadata !2, metadata !"", metadata !2, i32 0, i64 0, i64 0, i64 0, i32 0, null, metadata !366, i32 0, null} ; [ DW_TAG_subroutine_type ]
!366 = metadata !{null, metadata !367, metadata !367, metadata !70, metadata !70}
!367 = metadata !{i32 458767, metadata !2, metadata !"", metadata !2, i32 0, i64 32, i64 32, i64 0, i32 0, metadata !368} ; [ DW_TAG_pointer_type ]
!368 = metadata !{i32 458753, metadata !2, metadata !"", metadata !2, i32 0, i64 122880, i64 32, i64 0, i32 0, metadata !369, metadata !1280, i32 0, null} ; [ DW_TAG_array_type ]
!369 = metadata !{i32 458774, metadata !2, metadata !"AXI_PIXEL", metadata !335, i32 69, i64 0, i64 0, i64 0, i32 0, metadata !370} ; [ DW_TAG_typedef ]
!370 = metadata !{i32 458771, metadata !2, metadata !"ap_axiu<32,1,1,1>", metadata !371, i32 62, i64 64, i64 32, i64 0, i32 0, null, metadata !372, i32 0, null} ; [ DW_TAG_structure_type ]
!371 = metadata !{i32 458769, i32 0, i32 4, metadata !"ap_axi_sdata.h", metadata !"C:\5CWORK\5Csobel_variable\5Caxi_sobel\5Caxi_sobel/", metadata !"4.2.1 (Based on Apple Inc. build 5658) (LLVM build)", i1 false, i1 false, metadata !"", i32 0} ; [ DW_TAG_compile_unit ]
!372 = metadata !{metadata !373, metadata !706, metadata !987, metadata !1268, metadata !1269, metadata !1270, metadata !1277}
!373 = metadata !{i32 458765, metadata !370, metadata !"data", metadata !371, i32 63, i64 32, i64 32, i64 0, i32 0, metadata !374} ; [ DW_TAG_member ]
!374 = metadata !{i32 458771, metadata !2, metadata !"ap_uint<32>", metadata !12, i32 134, i64 32, i64 32, i64 0, i32 0, null, metadata !375, i32 0, null} ; [ DW_TAG_structure_type ]
!375 = metadata !{metadata !376, metadata !638, metadata !642, metadata !645, metadata !648, metadata !651, metadata !654, metadata !657, metadata !660, metadata !663, metadata !666, metadata !669, metadata !672, metadata !675, metadata !678, metadata !681, metadata !684, metadata !687, metadata !694, metadata !699, metadata !703}
!376 = metadata !{i32 458780, metadata !2, metadata !"", null, i32 0, i64 0, i64 0, i64 0, i32 0, metadata !377} ; [ DW_TAG_inheritance ]
!377 = metadata !{i32 458771, metadata !2, metadata !"ap_int_base<32,false>", metadata !16, i32 1306, i64 32, i64 32, i64 0, i32 0, null, metadata !378, i32 0, null} ; [ DW_TAG_structure_type ]
!378 = metadata !{metadata !379, metadata !400, metadata !404, metadata !407, metadata !410, metadata !413, metadata !416, metadata !419, metadata !422, metadata !425, metadata !428, metadata !431, metadata !434, metadata !437, metadata !440, metadata !443, metadata !446, metadata !449, metadata !454, metadata !459, metadata !464, metadata !465, metadata !469, metadata !472, metadata !475, metadata !478, metadata !481, metadata !484, metadata !488, metadata !491, metadata !494, metadata !497, metadata !500, metadata !503, metadata !506, metadata !507, metadata !511, metadata !514, metadata !517, metadata !518, metadata !519, metadata !520, metadata !521, metadata !524, metadata !525, metadata !528, metadata !529, metadata !530, metadata !531, metadata !532, metadata !533, metadata !534, metadata !535, metadata !538, metadata !539, metadata !542, metadata !546, metadata !547, metadata !548, metadata !603, metadata !604, metadata !607, metadata !608, metadata !612, metadata !613, metadata !614, metadata !615, metadata !618, metadata !619, metadata !620, metadata !621, metadata !622, metadata !623, metadata !624, metadata !625, metadata !626, metadata !627, metadata !628, metadata !629, metadata !632, metadata !635}
!379 = metadata !{i32 458780, metadata !2, metadata !"", null, i32 0, i64 0, i64 0, i64 0, i32 0, metadata !380} ; [ DW_TAG_inheritance ]
!380 = metadata !{i32 458771, metadata !2, metadata !"conv_cint<32,false,true>", metadata !16, i32 1269, i64 32, i64 32, i64 0, i32 0, null, metadata !381, i32 0, null} ; [ DW_TAG_structure_type ]
!381 = metadata !{metadata !382, metadata !391, metadata !395}
!382 = metadata !{i32 458780, metadata !2, metadata !"", null, i32 0, i64 0, i64 0, i64 0, i32 0, metadata !383} ; [ DW_TAG_inheritance ]
!383 = metadata !{i32 458771, metadata !2, metadata !"ssdm_int<32,false>", metadata !23, i32 34, i64 32, i64 32, i64 0, i32 0, null, metadata !384, i32 0, null} ; [ DW_TAG_structure_type ]
!384 = metadata !{metadata !385, metadata !387}
!385 = metadata !{i32 458765, metadata !383, metadata !"V", metadata !23, i32 34, i64 32, i64 32, i64 0, i32 0, metadata !386} ; [ DW_TAG_member ]
!386 = metadata !{i32 458788, metadata !2, metadata !"", metadata !2, i32 0, i64 32, i64 32, i64 0, i32 0, i32 7} ; [ DW_TAG_base_type ]
!387 = metadata !{i32 458798, i32 0, metadata !383, metadata !"ssdm_int", metadata !"ssdm_int", metadata !"", metadata !23, i32 34, metadata !388, i1 false, i1 false, i32 0, i32 0, null, i1 false} ; [ DW_TAG_subprogram ]
!388 = metadata !{i32 458773, metadata !2, metadata !"", metadata !2, i32 0, i64 0, i64 0, i64 0, i32 0, null, metadata !389, i32 0, null} ; [ DW_TAG_subroutine_type ]
!389 = metadata !{null, metadata !390}
!390 = metadata !{i32 458767, metadata !2, metadata !"", metadata !2, i32 0, i64 32, i64 32, i64 0, i32 64, metadata !383} ; [ DW_TAG_pointer_type ]
!391 = metadata !{i32 458798, i32 0, metadata !380, metadata !"conv_cint", metadata !"conv_cint", metadata !"", metadata !16, i32 1275, metadata !392, i1 false, i1 false, i32 0, i32 0, null, i1 false} ; [ DW_TAG_subprogram ]
!392 = metadata !{i32 458773, metadata !2, metadata !"", metadata !2, i32 0, i64 0, i64 0, i64 0, i32 0, null, metadata !393, i32 0, null} ; [ DW_TAG_subroutine_type ]
!393 = metadata !{null, metadata !394}
!394 = metadata !{i32 458767, metadata !2, metadata !"", metadata !2, i32 0, i64 32, i64 32, i64 0, i32 64, metadata !380} ; [ DW_TAG_pointer_type ]
!395 = metadata !{i32 458798, i32 0, metadata !380, metadata !"operator ap_ulong", metadata !"operator ap_ulong", metadata !"_ZNK9conv_cintILi32ELb0ELb1EEcvyEv", metadata !16, i32 1276, metadata !396, i1 false, i1 false, i32 0, i32 0, null, i1 false} ; [ DW_TAG_subprogram ]
!396 = metadata !{i32 458773, metadata !2, metadata !"", metadata !2, i32 0, i64 0, i64 0, i64 0, i32 0, null, metadata !397, i32 0, null} ; [ DW_TAG_subroutine_type ]
!397 = metadata !{metadata !38, metadata !398}
!398 = metadata !{i32 458767, metadata !2, metadata !"", metadata !2, i32 0, i64 32, i64 32, i64 0, i32 64, metadata !399} ; [ DW_TAG_pointer_type ]
!399 = metadata !{i32 458790, metadata !2, metadata !"", metadata !2, i32 0, i64 32, i64 32, i64 0, i32 0, metadata !380} ; [ DW_TAG_const_type ]
!400 = metadata !{i32 458798, i32 0, metadata !377, metadata !"ap_int_base", metadata !"ap_int_base", metadata !"", metadata !16, i32 1341, metadata !401, i1 false, i1 false, i32 0, i32 0, null, i1 false} ; [ DW_TAG_subprogram ]
!401 = metadata !{i32 458773, metadata !2, metadata !"", metadata !2, i32 0, i64 0, i64 0, i64 0, i32 0, null, metadata !402, i32 0, null} ; [ DW_TAG_subroutine_type ]
!402 = metadata !{null, metadata !403}
!403 = metadata !{i32 458767, metadata !2, metadata !"", metadata !2, i32 0, i64 32, i64 32, i64 0, i32 64, metadata !377} ; [ DW_TAG_pointer_type ]
!404 = metadata !{i32 458798, i32 0, metadata !377, metadata !"ap_int_base", metadata !"ap_int_base", metadata !"", metadata !16, i32 1363, metadata !405, i1 false, i1 false, i32 0, i32 0, null, i1 false} ; [ DW_TAG_subprogram ]
!405 = metadata !{i32 458773, metadata !2, metadata !"", metadata !2, i32 0, i64 0, i64 0, i64 0, i32 0, null, metadata !406, i32 0, null} ; [ DW_TAG_subroutine_type ]
!406 = metadata !{null, metadata !403, metadata !50}
!407 = metadata !{i32 458798, i32 0, metadata !377, metadata !"ap_int_base", metadata !"ap_int_base", metadata !"", metadata !16, i32 1364, metadata !408, i1 false, i1 false, i32 0, i32 0, null, i1 false} ; [ DW_TAG_subprogram ]
!408 = metadata !{i32 458773, metadata !2, metadata !"", metadata !2, i32 0, i64 0, i64 0, i64 0, i32 0, null, metadata !409, i32 0, null} ; [ DW_TAG_subroutine_type ]
!409 = metadata !{null, metadata !403, metadata !54}
!410 = metadata !{i32 458798, i32 0, metadata !377, metadata !"ap_int_base", metadata !"ap_int_base", metadata !"", metadata !16, i32 1365, metadata !411, i1 false, i1 false, i32 0, i32 0, null, i1 false} ; [ DW_TAG_subprogram ]
!411 = metadata !{i32 458773, metadata !2, metadata !"", metadata !2, i32 0, i64 0, i64 0, i64 0, i32 0, null, metadata !412, i32 0, null} ; [ DW_TAG_subroutine_type ]
!412 = metadata !{null, metadata !403, metadata !58}
!413 = metadata !{i32 458798, i32 0, metadata !377, metadata !"ap_int_base", metadata !"ap_int_base", metadata !"", metadata !16, i32 1366, metadata !414, i1 false, i1 false, i32 0, i32 0, null, i1 false} ; [ DW_TAG_subprogram ]
!414 = metadata !{i32 458773, metadata !2, metadata !"", metadata !2, i32 0, i64 0, i64 0, i64 0, i32 0, null, metadata !415, i32 0, null} ; [ DW_TAG_subroutine_type ]
!415 = metadata !{null, metadata !403, metadata !62}
!416 = metadata !{i32 458798, i32 0, metadata !377, metadata !"ap_int_base", metadata !"ap_int_base", metadata !"", metadata !16, i32 1367, metadata !417, i1 false, i1 false, i32 0, i32 0, null, i1 false} ; [ DW_TAG_subprogram ]
!417 = metadata !{i32 458773, metadata !2, metadata !"", metadata !2, i32 0, i64 0, i64 0, i64 0, i32 0, null, metadata !418, i32 0, null} ; [ DW_TAG_subroutine_type ]
!418 = metadata !{null, metadata !403, metadata !66}
!419 = metadata !{i32 458798, i32 0, metadata !377, metadata !"ap_int_base", metadata !"ap_int_base", metadata !"", metadata !16, i32 1368, metadata !420, i1 false, i1 false, i32 0, i32 0, null, i1 false} ; [ DW_TAG_subprogram ]
!420 = metadata !{i32 458773, metadata !2, metadata !"", metadata !2, i32 0, i64 0, i64 0, i64 0, i32 0, null, metadata !421, i32 0, null} ; [ DW_TAG_subroutine_type ]
!421 = metadata !{null, metadata !403, metadata !70}
!422 = metadata !{i32 458798, i32 0, metadata !377, metadata !"ap_int_base", metadata !"ap_int_base", metadata !"", metadata !16, i32 1369, metadata !423, i1 false, i1 false, i32 0, i32 0, null, i1 false} ; [ DW_TAG_subprogram ]
!423 = metadata !{i32 458773, metadata !2, metadata !"", metadata !2, i32 0, i64 0, i64 0, i64 0, i32 0, null, metadata !424, i32 0, null} ; [ DW_TAG_subroutine_type ]
!424 = metadata !{null, metadata !403, metadata !74}
!425 = metadata !{i32 458798, i32 0, metadata !377, metadata !"ap_int_base", metadata !"ap_int_base", metadata !"", metadata !16, i32 1370, metadata !426, i1 false, i1 false, i32 0, i32 0, null, i1 false} ; [ DW_TAG_subprogram ]
!426 = metadata !{i32 458773, metadata !2, metadata !"", metadata !2, i32 0, i64 0, i64 0, i64 0, i32 0, null, metadata !427, i32 0, null} ; [ DW_TAG_subroutine_type ]
!427 = metadata !{null, metadata !403, metadata !78}
!428 = metadata !{i32 458798, i32 0, metadata !377, metadata !"ap_int_base", metadata !"ap_int_base", metadata !"", metadata !16, i32 1371, metadata !429, i1 false, i1 false, i32 0, i32 0, null, i1 false} ; [ DW_TAG_subprogram ]
!429 = metadata !{i32 458773, metadata !2, metadata !"", metadata !2, i32 0, i64 0, i64 0, i64 0, i32 0, null, metadata !430, i32 0, null} ; [ DW_TAG_subroutine_type ]
!430 = metadata !{null, metadata !403, metadata !82}
!431 = metadata !{i32 458798, i32 0, metadata !377, metadata !"ap_int_base", metadata !"ap_int_base", metadata !"", metadata !16, i32 1372, metadata !432, i1 false, i1 false, i32 0, i32 0, null, i1 false} ; [ DW_TAG_subprogram ]
!432 = metadata !{i32 458773, metadata !2, metadata !"", metadata !2, i32 0, i64 0, i64 0, i64 0, i32 0, null, metadata !433, i32 0, null} ; [ DW_TAG_subroutine_type ]
!433 = metadata !{null, metadata !403, metadata !86}
!434 = metadata !{i32 458798, i32 0, metadata !377, metadata !"ap_int_base", metadata !"ap_int_base", metadata !"", metadata !16, i32 1373, metadata !435, i1 false, i1 false, i32 0, i32 0, null, i1 false} ; [ DW_TAG_subprogram ]
!435 = metadata !{i32 458773, metadata !2, metadata !"", metadata !2, i32 0, i64 0, i64 0, i64 0, i32 0, null, metadata !436, i32 0, null} ; [ DW_TAG_subroutine_type ]
!436 = metadata !{null, metadata !403, metadata !40}
!437 = metadata !{i32 458798, i32 0, metadata !377, metadata !"ap_int_base", metadata !"ap_int_base", metadata !"", metadata !16, i32 1374, metadata !438, i1 false, i1 false, i32 0, i32 0, null, i1 false} ; [ DW_TAG_subprogram ]
!438 = metadata !{i32 458773, metadata !2, metadata !"", metadata !2, i32 0, i64 0, i64 0, i64 0, i32 0, null, metadata !439, i32 0, null} ; [ DW_TAG_subroutine_type ]
!439 = metadata !{null, metadata !403, metadata !93}
!440 = metadata !{i32 458798, i32 0, metadata !377, metadata !"ap_int_base", metadata !"ap_int_base", metadata !"", metadata !16, i32 1375, metadata !441, i1 false, i1 false, i32 0, i32 0, null, i1 false} ; [ DW_TAG_subprogram ]
!441 = metadata !{i32 458773, metadata !2, metadata !"", metadata !2, i32 0, i64 0, i64 0, i64 0, i32 0, null, metadata !442, i32 0, null} ; [ DW_TAG_subroutine_type ]
!442 = metadata !{null, metadata !403, metadata !97}
!443 = metadata !{i32 458798, i32 0, metadata !377, metadata !"ap_int_base", metadata !"ap_int_base", metadata !"", metadata !16, i32 1402, metadata !444, i1 false, i1 false, i32 0, i32 0, null, i1 false} ; [ DW_TAG_subprogram ]
!444 = metadata !{i32 458773, metadata !2, metadata !"", metadata !2, i32 0, i64 0, i64 0, i64 0, i32 0, null, metadata !445, i32 0, null} ; [ DW_TAG_subroutine_type ]
!445 = metadata !{null, metadata !403, metadata !101}
!446 = metadata !{i32 458798, i32 0, metadata !377, metadata !"ap_int_base", metadata !"ap_int_base", metadata !"", metadata !16, i32 1408, metadata !447, i1 false, i1 false, i32 0, i32 0, null, i1 false} ; [ DW_TAG_subprogram ]
!447 = metadata !{i32 458773, metadata !2, metadata !"", metadata !2, i32 0, i64 0, i64 0, i64 0, i32 0, null, metadata !448, i32 0, null} ; [ DW_TAG_subroutine_type ]
!448 = metadata !{null, metadata !403, metadata !101, metadata !54}
!449 = metadata !{i32 458798, i32 0, metadata !377, metadata !"read", metadata !"read", metadata !"_ZNV11ap_int_baseILi32ELb0EE4readEv", metadata !16, i32 1428, metadata !450, i1 false, i1 false, i32 0, i32 0, null, i1 false} ; [ DW_TAG_subprogram ]
!450 = metadata !{i32 458773, metadata !2, metadata !"", metadata !2, i32 0, i64 0, i64 0, i64 0, i32 0, null, metadata !451, i32 0, null} ; [ DW_TAG_subroutine_type ]
!451 = metadata !{metadata !377, metadata !452}
!452 = metadata !{i32 458767, metadata !2, metadata !"", metadata !2, i32 0, i64 32, i64 32, i64 0, i32 64, metadata !453} ; [ DW_TAG_pointer_type ]
!453 = metadata !{i32 458805, metadata !2, metadata !"", metadata !2, i32 0, i64 32, i64 32, i64 0, i32 0, metadata !377} ; [ DW_TAG_volatile_type ]
!454 = metadata !{i32 458798, i32 0, metadata !377, metadata !"write", metadata !"write", metadata !"_ZNV11ap_int_baseILi32ELb0EE5writeERKS0_", metadata !16, i32 1434, metadata !455, i1 false, i1 false, i32 0, i32 0, null, i1 false} ; [ DW_TAG_subprogram ]
!455 = metadata !{i32 458773, metadata !2, metadata !"", metadata !2, i32 0, i64 0, i64 0, i64 0, i32 0, null, metadata !456, i32 0, null} ; [ DW_TAG_subroutine_type ]
!456 = metadata !{null, metadata !452, metadata !457}
!457 = metadata !{i32 458768, metadata !2, metadata !"", metadata !2, i32 0, i64 32, i64 32, i64 0, i32 0, metadata !458} ; [ DW_TAG_reference_type ]
!458 = metadata !{i32 458790, metadata !2, metadata !"", metadata !2, i32 0, i64 32, i64 32, i64 0, i32 0, metadata !377} ; [ DW_TAG_const_type ]
!459 = metadata !{i32 458798, i32 0, metadata !377, metadata !"operator=", metadata !"operator=", metadata !"_ZNV11ap_int_baseILi32ELb0EEaSERVKS0_", metadata !16, i32 1446, metadata !460, i1 false, i1 false, i32 0, i32 0, null, i1 false} ; [ DW_TAG_subprogram ]
!460 = metadata !{i32 458773, metadata !2, metadata !"", metadata !2, i32 0, i64 0, i64 0, i64 0, i32 0, null, metadata !461, i32 0, null} ; [ DW_TAG_subroutine_type ]
!461 = metadata !{null, metadata !452, metadata !462}
!462 = metadata !{i32 458768, metadata !2, metadata !"", metadata !2, i32 0, i64 32, i64 32, i64 0, i32 0, metadata !463} ; [ DW_TAG_reference_type ]
!463 = metadata !{i32 458790, metadata !2, metadata !"", metadata !2, i32 0, i64 32, i64 32, i64 0, i32 0, metadata !453} ; [ DW_TAG_const_type ]
!464 = metadata !{i32 458798, i32 0, metadata !377, metadata !"operator=", metadata !"operator=", metadata !"_ZNV11ap_int_baseILi32ELb0EEaSERKS0_", metadata !16, i32 1455, metadata !455, i1 false, i1 false, i32 0, i32 0, null, i1 false} ; [ DW_TAG_subprogram ]
!465 = metadata !{i32 458798, i32 0, metadata !377, metadata !"operator=", metadata !"operator=", metadata !"_ZN11ap_int_baseILi32ELb0EEaSERVKS0_", metadata !16, i32 1478, metadata !466, i1 false, i1 false, i32 0, i32 0, null, i1 false} ; [ DW_TAG_subprogram ]
!466 = metadata !{i32 458773, metadata !2, metadata !"", metadata !2, i32 0, i64 0, i64 0, i64 0, i32 0, null, metadata !467, i32 0, null} ; [ DW_TAG_subroutine_type ]
!467 = metadata !{metadata !468, metadata !403, metadata !462}
!468 = metadata !{i32 458768, metadata !2, metadata !"ap_int_base<32,false>", metadata !2, i32 0, i64 32, i64 32, i64 0, i32 0, metadata !377} ; [ DW_TAG_reference_type ]
!469 = metadata !{i32 458798, i32 0, metadata !377, metadata !"operator=", metadata !"operator=", metadata !"_ZN11ap_int_baseILi32ELb0EEaSERKS0_", metadata !16, i32 1483, metadata !470, i1 false, i1 false, i32 0, i32 0, null, i1 false} ; [ DW_TAG_subprogram ]
!470 = metadata !{i32 458773, metadata !2, metadata !"", metadata !2, i32 0, i64 0, i64 0, i64 0, i32 0, null, metadata !471, i32 0, null} ; [ DW_TAG_subroutine_type ]
!471 = metadata !{metadata !468, metadata !403, metadata !457}
!472 = metadata !{i32 458798, i32 0, metadata !377, metadata !"operator=", metadata !"operator=", metadata !"_ZN11ap_int_baseILi32ELb0EEaSEPKc", metadata !16, i32 1487, metadata !473, i1 false, i1 false, i32 0, i32 0, null, i1 false} ; [ DW_TAG_subprogram ]
!473 = metadata !{i32 458773, metadata !2, metadata !"", metadata !2, i32 0, i64 0, i64 0, i64 0, i32 0, null, metadata !474, i32 0, null} ; [ DW_TAG_subroutine_type ]
!474 = metadata !{metadata !468, metadata !403, metadata !101}
!475 = metadata !{i32 458798, i32 0, metadata !377, metadata !"set", metadata !"set", metadata !"_ZN11ap_int_baseILi32ELb0EE3setEPKca", metadata !16, i32 1494, metadata !476, i1 false, i1 false, i32 0, i32 0, null, i1 false} ; [ DW_TAG_subprogram ]
!476 = metadata !{i32 458773, metadata !2, metadata !"", metadata !2, i32 0, i64 0, i64 0, i64 0, i32 0, null, metadata !477, i32 0, null} ; [ DW_TAG_subroutine_type ]
!477 = metadata !{metadata !468, metadata !403, metadata !101, metadata !54}
!478 = metadata !{i32 458798, i32 0, metadata !377, metadata !"operator=", metadata !"operator=", metadata !"_ZN11ap_int_baseILi32ELb0EEaSEy", metadata !16, i32 1502, metadata !479, i1 false, i1 false, i32 0, i32 0, null, i1 false} ; [ DW_TAG_subprogram ]
!479 = metadata !{i32 458773, metadata !2, metadata !"", metadata !2, i32 0, i64 0, i64 0, i64 0, i32 0, null, metadata !480, i32 0, null} ; [ DW_TAG_subroutine_type ]
!480 = metadata !{metadata !468, metadata !403, metadata !40}
!481 = metadata !{i32 458798, i32 0, metadata !377, metadata !"operator=", metadata !"operator=", metadata !"_ZN11ap_int_baseILi32ELb0EEaSEx", metadata !16, i32 1507, metadata !482, i1 false, i1 false, i32 0, i32 0, null, i1 false} ; [ DW_TAG_subprogram ]
!482 = metadata !{i32 458773, metadata !2, metadata !"", metadata !2, i32 0, i64 0, i64 0, i64 0, i32 0, null, metadata !483, i32 0, null} ; [ DW_TAG_subroutine_type ]
!483 = metadata !{metadata !468, metadata !403, metadata !86}
!484 = metadata !{i32 458798, i32 0, metadata !377, metadata !"to_int", metadata !"to_int", metadata !"_ZNK11ap_int_baseILi32ELb0EE6to_intEv", metadata !16, i32 1553, metadata !485, i1 false, i1 false, i32 0, i32 0, null, i1 false} ; [ DW_TAG_subprogram ]
!485 = metadata !{i32 458773, metadata !2, metadata !"", metadata !2, i32 0, i64 0, i64 0, i64 0, i32 0, null, metadata !486, i32 0, null} ; [ DW_TAG_subroutine_type ]
!486 = metadata !{metadata !70, metadata !487}
!487 = metadata !{i32 458767, metadata !2, metadata !"", metadata !2, i32 0, i64 32, i64 32, i64 0, i32 64, metadata !458} ; [ DW_TAG_pointer_type ]
!488 = metadata !{i32 458798, i32 0, metadata !377, metadata !"to_uint", metadata !"to_uint", metadata !"_ZNK11ap_int_baseILi32ELb0EE7to_uintEv", metadata !16, i32 1554, metadata !489, i1 false, i1 false, i32 0, i32 0, null, i1 false} ; [ DW_TAG_subprogram ]
!489 = metadata !{i32 458773, metadata !2, metadata !"", metadata !2, i32 0, i64 0, i64 0, i64 0, i32 0, null, metadata !490, i32 0, null} ; [ DW_TAG_subroutine_type ]
!490 = metadata !{metadata !74, metadata !487}
!491 = metadata !{i32 458798, i32 0, metadata !377, metadata !"to_long", metadata !"to_long", metadata !"_ZNK11ap_int_baseILi32ELb0EE7to_longEv", metadata !16, i32 1555, metadata !492, i1 false, i1 false, i32 0, i32 0, null, i1 false} ; [ DW_TAG_subprogram ]
!492 = metadata !{i32 458773, metadata !2, metadata !"", metadata !2, i32 0, i64 0, i64 0, i64 0, i32 0, null, metadata !493, i32 0, null} ; [ DW_TAG_subroutine_type ]
!493 = metadata !{metadata !78, metadata !487}
!494 = metadata !{i32 458798, i32 0, metadata !377, metadata !"to_ulong", metadata !"to_ulong", metadata !"_ZNK11ap_int_baseILi32ELb0EE8to_ulongEv", metadata !16, i32 1556, metadata !495, i1 false, i1 false, i32 0, i32 0, null, i1 false} ; [ DW_TAG_subprogram ]
!495 = metadata !{i32 458773, metadata !2, metadata !"", metadata !2, i32 0, i64 0, i64 0, i64 0, i32 0, null, metadata !496, i32 0, null} ; [ DW_TAG_subroutine_type ]
!496 = metadata !{metadata !82, metadata !487}
!497 = metadata !{i32 458798, i32 0, metadata !377, metadata !"to_int64", metadata !"to_int64", metadata !"_ZNK11ap_int_baseILi32ELb0EE8to_int64Ev", metadata !16, i32 1557, metadata !498, i1 false, i1 false, i32 0, i32 0, null, i1 false} ; [ DW_TAG_subprogram ]
!498 = metadata !{i32 458773, metadata !2, metadata !"", metadata !2, i32 0, i64 0, i64 0, i64 0, i32 0, null, metadata !499, i32 0, null} ; [ DW_TAG_subroutine_type ]
!499 = metadata !{metadata !158, metadata !487}
!500 = metadata !{i32 458798, i32 0, metadata !377, metadata !"to_uint64", metadata !"to_uint64", metadata !"_ZNK11ap_int_baseILi32ELb0EE9to_uint64Ev", metadata !16, i32 1558, metadata !501, i1 false, i1 false, i32 0, i32 0, null, i1 false} ; [ DW_TAG_subprogram ]
!501 = metadata !{i32 458773, metadata !2, metadata !"", metadata !2, i32 0, i64 0, i64 0, i64 0, i32 0, null, metadata !502, i32 0, null} ; [ DW_TAG_subroutine_type ]
!502 = metadata !{metadata !38, metadata !487}
!503 = metadata !{i32 458798, i32 0, metadata !377, metadata !"to_double", metadata !"to_double", metadata !"_ZNK11ap_int_baseILi32ELb0EE9to_doubleEv", metadata !16, i32 1559, metadata !504, i1 false, i1 false, i32 0, i32 0, null, i1 false} ; [ DW_TAG_subprogram ]
!504 = metadata !{i32 458773, metadata !2, metadata !"", metadata !2, i32 0, i64 0, i64 0, i64 0, i32 0, null, metadata !505, i32 0, null} ; [ DW_TAG_subroutine_type ]
!505 = metadata !{metadata !97, metadata !487}
!506 = metadata !{i32 458798, i32 0, metadata !377, metadata !"length", metadata !"length", metadata !"_ZNK11ap_int_baseILi32ELb0EE6lengthEv", metadata !16, i32 1572, metadata !485, i1 false, i1 true, i32 0, i32 0, null, i1 false} ; [ DW_TAG_subprogram ]
!507 = metadata !{i32 458798, i32 0, metadata !377, metadata !"length", metadata !"length", metadata !"_ZNVK11ap_int_baseILi32ELb0EE6lengthEv", metadata !16, i32 1573, metadata !508, i1 false, i1 false, i32 0, i32 0, null, i1 false} ; [ DW_TAG_subprogram ]
!508 = metadata !{i32 458773, metadata !2, metadata !"", metadata !2, i32 0, i64 0, i64 0, i64 0, i32 0, null, metadata !509, i32 0, null} ; [ DW_TAG_subroutine_type ]
!509 = metadata !{metadata !70, metadata !510}
!510 = metadata !{i32 458767, metadata !2, metadata !"", metadata !2, i32 0, i64 32, i64 32, i64 0, i32 64, metadata !463} ; [ DW_TAG_pointer_type ]
!511 = metadata !{i32 458798, i32 0, metadata !377, metadata !"reverse", metadata !"reverse", metadata !"_ZN11ap_int_baseILi32ELb0EE7reverseEv", metadata !16, i32 1578, metadata !512, i1 false, i1 false, i32 0, i32 0, null, i1 false} ; [ DW_TAG_subprogram ]
!512 = metadata !{i32 458773, metadata !2, metadata !"", metadata !2, i32 0, i64 0, i64 0, i64 0, i32 0, null, metadata !513, i32 0, null} ; [ DW_TAG_subroutine_type ]
!513 = metadata !{metadata !468, metadata !403}
!514 = metadata !{i32 458798, i32 0, metadata !377, metadata !"iszero", metadata !"iszero", metadata !"_ZNK11ap_int_baseILi32ELb0EE6iszeroEv", metadata !16, i32 1584, metadata !515, i1 false, i1 false, i32 0, i32 0, null, i1 false} ; [ DW_TAG_subprogram ]
!515 = metadata !{i32 458773, metadata !2, metadata !"", metadata !2, i32 0, i64 0, i64 0, i64 0, i32 0, null, metadata !516, i32 0, null} ; [ DW_TAG_subroutine_type ]
!516 = metadata !{metadata !50, metadata !487}
!517 = metadata !{i32 458798, i32 0, metadata !377, metadata !"is_zero", metadata !"is_zero", metadata !"_ZNK11ap_int_baseILi32ELb0EE7is_zeroEv", metadata !16, i32 1589, metadata !515, i1 false, i1 false, i32 0, i32 0, null, i1 false} ; [ DW_TAG_subprogram ]
!518 = metadata !{i32 458798, i32 0, metadata !377, metadata !"sign", metadata !"sign", metadata !"_ZNK11ap_int_baseILi32ELb0EE4signEv", metadata !16, i32 1594, metadata !515, i1 false, i1 false, i32 0, i32 0, null, i1 false} ; [ DW_TAG_subprogram ]
!519 = metadata !{i32 458798, i32 0, metadata !377, metadata !"clear", metadata !"clear", metadata !"_ZN11ap_int_baseILi32ELb0EE5clearEi", metadata !16, i32 1602, metadata !420, i1 false, i1 false, i32 0, i32 0, null, i1 false} ; [ DW_TAG_subprogram ]
!520 = metadata !{i32 458798, i32 0, metadata !377, metadata !"invert", metadata !"invert", metadata !"_ZN11ap_int_baseILi32ELb0EE6invertEi", metadata !16, i32 1608, metadata !420, i1 false, i1 false, i32 0, i32 0, null, i1 false} ; [ DW_TAG_subprogram ]
!521 = metadata !{i32 458798, i32 0, metadata !377, metadata !"test", metadata !"test", metadata !"_ZNK11ap_int_baseILi32ELb0EE4testEi", metadata !16, i32 1616, metadata !522, i1 false, i1 false, i32 0, i32 0, null, i1 false} ; [ DW_TAG_subprogram ]
!522 = metadata !{i32 458773, metadata !2, metadata !"", metadata !2, i32 0, i64 0, i64 0, i64 0, i32 0, null, metadata !523, i32 0, null} ; [ DW_TAG_subroutine_type ]
!523 = metadata !{metadata !50, metadata !487, metadata !70}
!524 = metadata !{i32 458798, i32 0, metadata !377, metadata !"set", metadata !"set", metadata !"_ZN11ap_int_baseILi32ELb0EE3setEi", metadata !16, i32 1622, metadata !420, i1 false, i1 false, i32 0, i32 0, null, i1 false} ; [ DW_TAG_subprogram ]
!525 = metadata !{i32 458798, i32 0, metadata !377, metadata !"set", metadata !"set", metadata !"_ZN11ap_int_baseILi32ELb0EE3setEib", metadata !16, i32 1628, metadata !526, i1 false, i1 false, i32 0, i32 0, null, i1 false} ; [ DW_TAG_subprogram ]
!526 = metadata !{i32 458773, metadata !2, metadata !"", metadata !2, i32 0, i64 0, i64 0, i64 0, i32 0, null, metadata !527, i32 0, null} ; [ DW_TAG_subroutine_type ]
!527 = metadata !{null, metadata !403, metadata !70, metadata !50}
!528 = metadata !{i32 458798, i32 0, metadata !377, metadata !"lrotate", metadata !"lrotate", metadata !"_ZN11ap_int_baseILi32ELb0EE7lrotateEi", metadata !16, i32 1635, metadata !420, i1 false, i1 false, i32 0, i32 0, null, i1 false} ; [ DW_TAG_subprogram ]
!529 = metadata !{i32 458798, i32 0, metadata !377, metadata !"rrotate", metadata !"rrotate", metadata !"_ZN11ap_int_baseILi32ELb0EE7rrotateEi", metadata !16, i32 1644, metadata !420, i1 false, i1 false, i32 0, i32 0, null, i1 false} ; [ DW_TAG_subprogram ]
!530 = metadata !{i32 458798, i32 0, metadata !377, metadata !"set_bit", metadata !"set_bit", metadata !"_ZN11ap_int_baseILi32ELb0EE7set_bitEib", metadata !16, i32 1652, metadata !526, i1 false, i1 false, i32 0, i32 0, null, i1 false} ; [ DW_TAG_subprogram ]
!531 = metadata !{i32 458798, i32 0, metadata !377, metadata !"get_bit", metadata !"get_bit", metadata !"_ZNK11ap_int_baseILi32ELb0EE7get_bitEi", metadata !16, i32 1657, metadata !522, i1 false, i1 false, i32 0, i32 0, null, i1 false} ; [ DW_TAG_subprogram ]
!532 = metadata !{i32 458798, i32 0, metadata !377, metadata !"b_not", metadata !"b_not", metadata !"_ZN11ap_int_baseILi32ELb0EE5b_notEv", metadata !16, i32 1662, metadata !401, i1 false, i1 false, i32 0, i32 0, null, i1 false} ; [ DW_TAG_subprogram ]
!533 = metadata !{i32 458798, i32 0, metadata !377, metadata !"operator++", metadata !"operator++", metadata !"_ZN11ap_int_baseILi32ELb0EEppEv", metadata !16, i32 1733, metadata !512, i1 false, i1 false, i32 0, i32 0, null, i1 false} ; [ DW_TAG_subprogram ]
!534 = metadata !{i32 458798, i32 0, metadata !377, metadata !"operator--", metadata !"operator--", metadata !"_ZN11ap_int_baseILi32ELb0EEmmEv", metadata !16, i32 1737, metadata !512, i1 false, i1 false, i32 0, i32 0, null, i1 false} ; [ DW_TAG_subprogram ]
!535 = metadata !{i32 458798, i32 0, metadata !377, metadata !"operator++", metadata !"operator++", metadata !"_ZN11ap_int_baseILi32ELb0EEppEi", metadata !16, i32 1745, metadata !536, i1 false, i1 false, i32 0, i32 0, null, i1 false} ; [ DW_TAG_subprogram ]
!536 = metadata !{i32 458773, metadata !2, metadata !"", metadata !2, i32 0, i64 0, i64 0, i64 0, i32 0, null, metadata !537, i32 0, null} ; [ DW_TAG_subroutine_type ]
!537 = metadata !{metadata !458, metadata !403, metadata !70}
!538 = metadata !{i32 458798, i32 0, metadata !377, metadata !"operator--", metadata !"operator--", metadata !"_ZN11ap_int_baseILi32ELb0EEmmEi", metadata !16, i32 1750, metadata !536, i1 false, i1 false, i32 0, i32 0, null, i1 false} ; [ DW_TAG_subprogram ]
!539 = metadata !{i32 458798, i32 0, metadata !377, metadata !"operator+", metadata !"operator+", metadata !"_ZN11ap_int_baseILi32ELb0EEpsEv", metadata !16, i32 1759, metadata !540, i1 false, i1 false, i32 0, i32 0, null, i1 false} ; [ DW_TAG_subprogram ]
!540 = metadata !{i32 458773, metadata !2, metadata !"", metadata !2, i32 0, i64 0, i64 0, i64 0, i32 0, null, metadata !541, i32 0, null} ; [ DW_TAG_subroutine_type ]
!541 = metadata !{metadata !377, metadata !403}
!542 = metadata !{i32 458798, i32 0, metadata !377, metadata !"operator-", metadata !"operator-", metadata !"_ZNK11ap_int_baseILi32ELb0EEngEv", metadata !16, i32 1762, metadata !543, i1 false, i1 false, i32 0, i32 0, null, i1 false} ; [ DW_TAG_subprogram ]
!543 = metadata !{i32 458773, metadata !2, metadata !"", metadata !2, i32 0, i64 0, i64 0, i64 0, i32 0, null, metadata !544, i32 0, null} ; [ DW_TAG_subroutine_type ]
!544 = metadata !{metadata !545, metadata !487}
!545 = metadata !{i32 458771, metadata !2, metadata !"ap_int_base<33,true>", metadata !16, i32 1306, i64 0, i64 0, i64 0, i32 4, null, null, i32 0, null} ; [ DW_TAG_structure_type ]
!546 = metadata !{i32 458798, i32 0, metadata !377, metadata !"operator!", metadata !"operator!", metadata !"_ZNK11ap_int_baseILi32ELb0EEntEv", metadata !16, i32 1769, metadata !515, i1 false, i1 false, i32 0, i32 0, null, i1 false} ; [ DW_TAG_subprogram ]
!547 = metadata !{i32 458798, i32 0, metadata !377, metadata !"operator~", metadata !"operator~", metadata !"_ZNK11ap_int_baseILi32ELb0EEcoEv", metadata !16, i32 1776, metadata !543, i1 false, i1 false, i32 0, i32 0, null, i1 false} ; [ DW_TAG_subprogram ]
!548 = metadata !{i32 458798, i32 0, metadata !377, metadata !"range", metadata !"range", metadata !"_ZN11ap_int_baseILi32ELb0EE5rangeEii", metadata !16, i32 1901, metadata !549, i1 false, i1 true, i32 0, i32 0, null, i1 false} ; [ DW_TAG_subprogram ]
!549 = metadata !{i32 458773, metadata !2, metadata !"", metadata !2, i32 0, i64 0, i64 0, i64 0, i32 0, null, metadata !550, i32 0, null} ; [ DW_TAG_subroutine_type ]
!550 = metadata !{metadata !551, metadata !403, metadata !70, metadata !70}
!551 = metadata !{i32 458771, metadata !2, metadata !"ap_range_ref<32,false>", metadata !16, i32 871, i64 96, i64 32, i64 0, i32 0, null, metadata !552, i32 0, null} ; [ DW_TAG_structure_type ]
!552 = metadata !{metadata !553, metadata !554, metadata !555, metadata !556, metadata !562, metadata !566, metadata !570, metadata !573, metadata !577, metadata !580, metadata !584, metadata !587, metadata !588, metadata !591, metadata !594, metadata !597, metadata !600}
!553 = metadata !{i32 458765, metadata !551, metadata !"d_bv", metadata !16, i32 872, i64 32, i64 32, i64 0, i32 0, metadata !468} ; [ DW_TAG_member ]
!554 = metadata !{i32 458765, metadata !551, metadata !"l_index", metadata !16, i32 873, i64 32, i64 32, i64 32, i32 0, metadata !70} ; [ DW_TAG_member ]
!555 = metadata !{i32 458765, metadata !551, metadata !"h_index", metadata !16, i32 874, i64 32, i64 32, i64 64, i32 0, metadata !70} ; [ DW_TAG_member ]
!556 = metadata !{i32 458798, i32 0, metadata !551, metadata !"ap_range_ref", metadata !"ap_range_ref", metadata !"", metadata !16, i32 877, metadata !557, i1 false, i1 false, i32 0, i32 0, null, i1 false} ; [ DW_TAG_subprogram ]
!557 = metadata !{i32 458773, metadata !2, metadata !"", metadata !2, i32 0, i64 0, i64 0, i64 0, i32 0, null, metadata !558, i32 0, null} ; [ DW_TAG_subroutine_type ]
!558 = metadata !{null, metadata !559, metadata !560}
!559 = metadata !{i32 458767, metadata !2, metadata !"", metadata !2, i32 0, i64 32, i64 32, i64 0, i32 64, metadata !551} ; [ DW_TAG_pointer_type ]
!560 = metadata !{i32 458768, metadata !2, metadata !"", metadata !2, i32 0, i64 32, i64 32, i64 0, i32 0, metadata !561} ; [ DW_TAG_reference_type ]
!561 = metadata !{i32 458790, metadata !2, metadata !"", metadata !2, i32 0, i64 96, i64 32, i64 0, i32 0, metadata !551} ; [ DW_TAG_const_type ]
!562 = metadata !{i32 458798, i32 0, metadata !551, metadata !"ap_range_ref", metadata !"ap_range_ref", metadata !"", metadata !16, i32 880, metadata !563, i1 false, i1 false, i32 0, i32 0, null, i1 false} ; [ DW_TAG_subprogram ]
!563 = metadata !{i32 458773, metadata !2, metadata !"", metadata !2, i32 0, i64 0, i64 0, i64 0, i32 0, null, metadata !564, i32 0, null} ; [ DW_TAG_subroutine_type ]
!564 = metadata !{null, metadata !559, metadata !565, metadata !70, metadata !70}
!565 = metadata !{i32 458767, metadata !2, metadata !"", metadata !2, i32 0, i64 32, i64 32, i64 0, i32 0, metadata !377} ; [ DW_TAG_pointer_type ]
!566 = metadata !{i32 458798, i32 0, metadata !551, metadata !"operator ap_int_base<32, false>", metadata !"operator ap_int_base<32, false>", metadata !"_ZNK12ap_range_refILi32ELb0EEcv11ap_int_baseILi32ELb0EEEv", metadata !16, i32 885, metadata !567, i1 false, i1 true, i32 0, i32 0, null, i1 false} ; [ DW_TAG_subprogram ]
!567 = metadata !{i32 458773, metadata !2, metadata !"", metadata !2, i32 0, i64 0, i64 0, i64 0, i32 0, null, metadata !568, i32 0, null} ; [ DW_TAG_subroutine_type ]
!568 = metadata !{metadata !377, metadata !569}
!569 = metadata !{i32 458767, metadata !2, metadata !"", metadata !2, i32 0, i64 32, i64 32, i64 0, i32 64, metadata !561} ; [ DW_TAG_pointer_type ]
!570 = metadata !{i32 458798, i32 0, metadata !551, metadata !"operator long long unsigned int", metadata !"operator long long unsigned int", metadata !"_ZNK12ap_range_refILi32ELb0EEcvyEv", metadata !16, i32 891, metadata !571, i1 false, i1 false, i32 0, i32 0, null, i1 false} ; [ DW_TAG_subprogram ]
!571 = metadata !{i32 458773, metadata !2, metadata !"", metadata !2, i32 0, i64 0, i64 0, i64 0, i32 0, null, metadata !572, i32 0, null} ; [ DW_TAG_subroutine_type ]
!572 = metadata !{metadata !40, metadata !569}
!573 = metadata !{i32 458798, i32 0, metadata !551, metadata !"operator=", metadata !"operator=", metadata !"_ZN12ap_range_refILi32ELb0EEaSEy", metadata !16, i32 895, metadata !574, i1 false, i1 false, i32 0, i32 0, null, i1 false} ; [ DW_TAG_subprogram ]
!574 = metadata !{i32 458773, metadata !2, metadata !"", metadata !2, i32 0, i64 0, i64 0, i64 0, i32 0, null, metadata !575, i32 0, null} ; [ DW_TAG_subroutine_type ]
!575 = metadata !{metadata !576, metadata !559, metadata !40}
!576 = metadata !{i32 458768, metadata !2, metadata !"ap_range_ref<32,false>", metadata !2, i32 0, i64 32, i64 32, i64 0, i32 0, metadata !551} ; [ DW_TAG_reference_type ]
!577 = metadata !{i32 458798, i32 0, metadata !551, metadata !"operator=", metadata !"operator=", metadata !"_ZN12ap_range_refILi32ELb0EEaSERKS0_", metadata !16, i32 913, metadata !578, i1 false, i1 false, i32 0, i32 0, null, i1 false} ; [ DW_TAG_subprogram ]
!578 = metadata !{i32 458773, metadata !2, metadata !"", metadata !2, i32 0, i64 0, i64 0, i64 0, i32 0, null, metadata !579, i32 0, null} ; [ DW_TAG_subroutine_type ]
!579 = metadata !{metadata !576, metadata !559, metadata !560}
!580 = metadata !{i32 458798, i32 0, metadata !551, metadata !"operator,", metadata !"operator,", metadata !"_ZN12ap_range_refILi32ELb0EEcmER11ap_int_baseILi32ELb0EE", metadata !16, i32 968, metadata !581, i1 false, i1 false, i32 0, i32 0, null, i1 false} ; [ DW_TAG_subprogram ]
!581 = metadata !{i32 458773, metadata !2, metadata !"", metadata !2, i32 0, i64 0, i64 0, i64 0, i32 0, null, metadata !582, i32 0, null} ; [ DW_TAG_subroutine_type ]
!582 = metadata !{metadata !583, metadata !559, metadata !468}
!583 = metadata !{i32 458771, metadata !2, metadata !"ap_concat_ref<32,ap_range_ref<32, false>,32,ap_int_base<32, false> >", metadata !16, i32 634, i64 0, i64 0, i64 0, i32 4, null, null, i32 0, null} ; [ DW_TAG_structure_type ]
!584 = metadata !{i32 458798, i32 0, metadata !551, metadata !"length", metadata !"length", metadata !"_ZNK12ap_range_refILi32ELb0EE6lengthEv", metadata !16, i32 1077, metadata !585, i1 false, i1 false, i32 0, i32 0, null, i1 false} ; [ DW_TAG_subprogram ]
!585 = metadata !{i32 458773, metadata !2, metadata !"", metadata !2, i32 0, i64 0, i64 0, i64 0, i32 0, null, metadata !586, i32 0, null} ; [ DW_TAG_subroutine_type ]
!586 = metadata !{metadata !70, metadata !569}
!587 = metadata !{i32 458798, i32 0, metadata !551, metadata !"to_int", metadata !"to_int", metadata !"_ZNK12ap_range_refILi32ELb0EE6to_intEv", metadata !16, i32 1081, metadata !585, i1 false, i1 false, i32 0, i32 0, null, i1 false} ; [ DW_TAG_subprogram ]
!588 = metadata !{i32 458798, i32 0, metadata !551, metadata !"to_uint", metadata !"to_uint", metadata !"_ZNK12ap_range_refILi32ELb0EE7to_uintEv", metadata !16, i32 1084, metadata !589, i1 false, i1 false, i32 0, i32 0, null, i1 false} ; [ DW_TAG_subprogram ]
!589 = metadata !{i32 458773, metadata !2, metadata !"", metadata !2, i32 0, i64 0, i64 0, i64 0, i32 0, null, metadata !590, i32 0, null} ; [ DW_TAG_subroutine_type ]
!590 = metadata !{metadata !74, metadata !569}
!591 = metadata !{i32 458798, i32 0, metadata !551, metadata !"to_long", metadata !"to_long", metadata !"_ZNK12ap_range_refILi32ELb0EE7to_longEv", metadata !16, i32 1087, metadata !592, i1 false, i1 false, i32 0, i32 0, null, i1 false} ; [ DW_TAG_subprogram ]
!592 = metadata !{i32 458773, metadata !2, metadata !"", metadata !2, i32 0, i64 0, i64 0, i64 0, i32 0, null, metadata !593, i32 0, null} ; [ DW_TAG_subroutine_type ]
!593 = metadata !{metadata !78, metadata !569}
!594 = metadata !{i32 458798, i32 0, metadata !551, metadata !"to_ulong", metadata !"to_ulong", metadata !"_ZNK12ap_range_refILi32ELb0EE8to_ulongEv", metadata !16, i32 1090, metadata !595, i1 false, i1 false, i32 0, i32 0, null, i1 false} ; [ DW_TAG_subprogram ]
!595 = metadata !{i32 458773, metadata !2, metadata !"", metadata !2, i32 0, i64 0, i64 0, i64 0, i32 0, null, metadata !596, i32 0, null} ; [ DW_TAG_subroutine_type ]
!596 = metadata !{metadata !82, metadata !569}
!597 = metadata !{i32 458798, i32 0, metadata !551, metadata !"to_int64", metadata !"to_int64", metadata !"_ZNK12ap_range_refILi32ELb0EE8to_int64Ev", metadata !16, i32 1093, metadata !598, i1 false, i1 false, i32 0, i32 0, null, i1 false} ; [ DW_TAG_subprogram ]
!598 = metadata !{i32 458773, metadata !2, metadata !"", metadata !2, i32 0, i64 0, i64 0, i64 0, i32 0, null, metadata !599, i32 0, null} ; [ DW_TAG_subroutine_type ]
!599 = metadata !{metadata !158, metadata !569}
!600 = metadata !{i32 458798, i32 0, metadata !551, metadata !"to_uint64", metadata !"to_uint64", metadata !"_ZNK12ap_range_refILi32ELb0EE9to_uint64Ev", metadata !16, i32 1096, metadata !601, i1 false, i1 false, i32 0, i32 0, null, i1 false} ; [ DW_TAG_subprogram ]
!601 = metadata !{i32 458773, metadata !2, metadata !"", metadata !2, i32 0, i64 0, i64 0, i64 0, i32 0, null, metadata !602, i32 0, null} ; [ DW_TAG_subroutine_type ]
!602 = metadata !{metadata !38, metadata !569}
!603 = metadata !{i32 458798, i32 0, metadata !377, metadata !"operator()", metadata !"operator()", metadata !"_ZN11ap_int_baseILi32ELb0EEclEii", metadata !16, i32 1907, metadata !549, i1 false, i1 false, i32 0, i32 0, null, i1 false} ; [ DW_TAG_subprogram ]
!604 = metadata !{i32 458798, i32 0, metadata !377, metadata !"range", metadata !"range", metadata !"_ZNK11ap_int_baseILi32ELb0EE5rangeEii", metadata !16, i32 1913, metadata !605, i1 false, i1 false, i32 0, i32 0, null, i1 false} ; [ DW_TAG_subprogram ]
!605 = metadata !{i32 458773, metadata !2, metadata !"", metadata !2, i32 0, i64 0, i64 0, i64 0, i32 0, null, metadata !606, i32 0, null} ; [ DW_TAG_subroutine_type ]
!606 = metadata !{metadata !551, metadata !487, metadata !70, metadata !70}
!607 = metadata !{i32 458798, i32 0, metadata !377, metadata !"operator()", metadata !"operator()", metadata !"_ZNK11ap_int_baseILi32ELb0EEclEii", metadata !16, i32 1919, metadata !605, i1 false, i1 false, i32 0, i32 0, null, i1 false} ; [ DW_TAG_subprogram ]
!608 = metadata !{i32 458798, i32 0, metadata !377, metadata !"operator[]", metadata !"operator[]", metadata !"_ZN11ap_int_baseILi32ELb0EEixEi", metadata !16, i32 1978, metadata !609, i1 false, i1 false, i32 0, i32 0, null, i1 false} ; [ DW_TAG_subprogram ]
!609 = metadata !{i32 458773, metadata !2, metadata !"", metadata !2, i32 0, i64 0, i64 0, i64 0, i32 0, null, metadata !610, i32 0, null} ; [ DW_TAG_subroutine_type ]
!610 = metadata !{metadata !611, metadata !403, metadata !70}
!611 = metadata !{i32 458771, metadata !2, metadata !"ap_bit_ref<32,false>", metadata !16, i32 1106, i64 0, i64 0, i64 0, i32 4, null, null, i32 0, null} ; [ DW_TAG_structure_type ]
!612 = metadata !{i32 458798, i32 0, metadata !377, metadata !"operator[]", metadata !"operator[]", metadata !"_ZNK11ap_int_baseILi32ELb0EEixEi", metadata !16, i32 1992, metadata !522, i1 false, i1 false, i32 0, i32 0, null, i1 false} ; [ DW_TAG_subprogram ]
!613 = metadata !{i32 458798, i32 0, metadata !377, metadata !"bit", metadata !"bit", metadata !"_ZN11ap_int_baseILi32ELb0EE3bitEi", metadata !16, i32 2006, metadata !609, i1 false, i1 false, i32 0, i32 0, null, i1 false} ; [ DW_TAG_subprogram ]
!614 = metadata !{i32 458798, i32 0, metadata !377, metadata !"bit", metadata !"bit", metadata !"_ZNK11ap_int_baseILi32ELb0EE3bitEi", metadata !16, i32 2020, metadata !522, i1 false, i1 false, i32 0, i32 0, null, i1 false} ; [ DW_TAG_subprogram ]
!615 = metadata !{i32 458798, i32 0, metadata !377, metadata !"and_reduce", metadata !"and_reduce", metadata !"_ZN11ap_int_baseILi32ELb0EE10and_reduceEv", metadata !16, i32 2200, metadata !616, i1 false, i1 false, i32 0, i32 0, null, i1 false} ; [ DW_TAG_subprogram ]
!616 = metadata !{i32 458773, metadata !2, metadata !"", metadata !2, i32 0, i64 0, i64 0, i64 0, i32 0, null, metadata !617, i32 0, null} ; [ DW_TAG_subroutine_type ]
!617 = metadata !{metadata !50, metadata !403}
!618 = metadata !{i32 458798, i32 0, metadata !377, metadata !"nand_reduce", metadata !"nand_reduce", metadata !"_ZN11ap_int_baseILi32ELb0EE11nand_reduceEv", metadata !16, i32 2203, metadata !616, i1 false, i1 false, i32 0, i32 0, null, i1 false} ; [ DW_TAG_subprogram ]
!619 = metadata !{i32 458798, i32 0, metadata !377, metadata !"or_reduce", metadata !"or_reduce", metadata !"_ZN11ap_int_baseILi32ELb0EE9or_reduceEv", metadata !16, i32 2206, metadata !616, i1 false, i1 false, i32 0, i32 0, null, i1 false} ; [ DW_TAG_subprogram ]
!620 = metadata !{i32 458798, i32 0, metadata !377, metadata !"nor_reduce", metadata !"nor_reduce", metadata !"_ZN11ap_int_baseILi32ELb0EE10nor_reduceEv", metadata !16, i32 2209, metadata !616, i1 false, i1 false, i32 0, i32 0, null, i1 false} ; [ DW_TAG_subprogram ]
!621 = metadata !{i32 458798, i32 0, metadata !377, metadata !"xor_reduce", metadata !"xor_reduce", metadata !"_ZN11ap_int_baseILi32ELb0EE10xor_reduceEv", metadata !16, i32 2212, metadata !616, i1 false, i1 false, i32 0, i32 0, null, i1 false} ; [ DW_TAG_subprogram ]
!622 = metadata !{i32 458798, i32 0, metadata !377, metadata !"xnor_reduce", metadata !"xnor_reduce", metadata !"_ZN11ap_int_baseILi32ELb0EE11xnor_reduceEv", metadata !16, i32 2215, metadata !616, i1 false, i1 false, i32 0, i32 0, null, i1 false} ; [ DW_TAG_subprogram ]
!623 = metadata !{i32 458798, i32 0, metadata !377, metadata !"and_reduce", metadata !"and_reduce", metadata !"_ZNK11ap_int_baseILi32ELb0EE10and_reduceEv", metadata !16, i32 2219, metadata !515, i1 false, i1 false, i32 0, i32 0, null, i1 false} ; [ DW_TAG_subprogram ]
!624 = metadata !{i32 458798, i32 0, metadata !377, metadata !"nand_reduce", metadata !"nand_reduce", metadata !"_ZNK11ap_int_baseILi32ELb0EE11nand_reduceEv", metadata !16, i32 2222, metadata !515, i1 false, i1 false, i32 0, i32 0, null, i1 false} ; [ DW_TAG_subprogram ]
!625 = metadata !{i32 458798, i32 0, metadata !377, metadata !"or_reduce", metadata !"or_reduce", metadata !"_ZNK11ap_int_baseILi32ELb0EE9or_reduceEv", metadata !16, i32 2225, metadata !515, i1 false, i1 false, i32 0, i32 0, null, i1 false} ; [ DW_TAG_subprogram ]
!626 = metadata !{i32 458798, i32 0, metadata !377, metadata !"nor_reduce", metadata !"nor_reduce", metadata !"_ZNK11ap_int_baseILi32ELb0EE10nor_reduceEv", metadata !16, i32 2228, metadata !515, i1 false, i1 false, i32 0, i32 0, null, i1 false} ; [ DW_TAG_subprogram ]
!627 = metadata !{i32 458798, i32 0, metadata !377, metadata !"xor_reduce", metadata !"xor_reduce", metadata !"_ZNK11ap_int_baseILi32ELb0EE10xor_reduceEv", metadata !16, i32 2231, metadata !515, i1 false, i1 false, i32 0, i32 0, null, i1 false} ; [ DW_TAG_subprogram ]
!628 = metadata !{i32 458798, i32 0, metadata !377, metadata !"xnor_reduce", metadata !"xnor_reduce", metadata !"_ZNK11ap_int_baseILi32ELb0EE11xnor_reduceEv", metadata !16, i32 2234, metadata !515, i1 false, i1 false, i32 0, i32 0, null, i1 false} ; [ DW_TAG_subprogram ]
!629 = metadata !{i32 458798, i32 0, metadata !377, metadata !"to_string", metadata !"to_string", metadata !"_ZNK11ap_int_baseILi32ELb0EE9to_stringEPci8BaseModeb", metadata !16, i32 2241, metadata !630, i1 false, i1 false, i32 0, i32 0, null, i1 false} ; [ DW_TAG_subprogram ]
!630 = metadata !{i32 458773, metadata !2, metadata !"", metadata !2, i32 0, i64 0, i64 0, i64 0, i32 0, null, metadata !631, i32 0, null} ; [ DW_TAG_subroutine_type ]
!631 = metadata !{null, metadata !487, metadata !240, metadata !70, metadata !241, metadata !50}
!632 = metadata !{i32 458798, i32 0, metadata !377, metadata !"to_string", metadata !"to_string", metadata !"_ZNK11ap_int_baseILi32ELb0EE9to_stringE8BaseModeb", metadata !16, i32 2268, metadata !633, i1 false, i1 false, i32 0, i32 0, null, i1 false} ; [ DW_TAG_subprogram ]
!633 = metadata !{i32 458773, metadata !2, metadata !"", metadata !2, i32 0, i64 0, i64 0, i64 0, i32 0, null, metadata !634, i32 0, null} ; [ DW_TAG_subroutine_type ]
!634 = metadata !{metadata !240, metadata !487, metadata !241, metadata !50}
!635 = metadata !{i32 458798, i32 0, metadata !377, metadata !"to_string", metadata !"to_string", metadata !"_ZNK11ap_int_baseILi32ELb0EE9to_stringEab", metadata !16, i32 2272, metadata !636, i1 false, i1 false, i32 0, i32 0, null, i1 false} ; [ DW_TAG_subprogram ]
!636 = metadata !{i32 458773, metadata !2, metadata !"", metadata !2, i32 0, i64 0, i64 0, i64 0, i32 0, null, metadata !637, i32 0, null} ; [ DW_TAG_subroutine_type ]
!637 = metadata !{metadata !240, metadata !487, metadata !54, metadata !50}
!638 = metadata !{i32 458798, i32 0, metadata !374, metadata !"ap_uint", metadata !"ap_uint", metadata !"", metadata !12, i32 137, metadata !639, i1 false, i1 false, i32 0, i32 0, null, i1 false} ; [ DW_TAG_subprogram ]
!639 = metadata !{i32 458773, metadata !2, metadata !"", metadata !2, i32 0, i64 0, i64 0, i64 0, i32 0, null, metadata !640, i32 0, null} ; [ DW_TAG_subroutine_type ]
!640 = metadata !{null, metadata !641}
!641 = metadata !{i32 458767, metadata !2, metadata !"", metadata !2, i32 0, i64 32, i64 32, i64 0, i32 64, metadata !374} ; [ DW_TAG_pointer_type ]
!642 = metadata !{i32 458798, i32 0, metadata !374, metadata !"ap_uint", metadata !"ap_uint", metadata !"", metadata !12, i32 199, metadata !643, i1 false, i1 false, i32 0, i32 0, null, i1 false} ; [ DW_TAG_subprogram ]
!643 = metadata !{i32 458773, metadata !2, metadata !"", metadata !2, i32 0, i64 0, i64 0, i64 0, i32 0, null, metadata !644, i32 0, null} ; [ DW_TAG_subroutine_type ]
!644 = metadata !{null, metadata !641, metadata !50}
!645 = metadata !{i32 458798, i32 0, metadata !374, metadata !"ap_uint", metadata !"ap_uint", metadata !"", metadata !12, i32 200, metadata !646, i1 false, i1 false, i32 0, i32 0, null, i1 false} ; [ DW_TAG_subprogram ]
!646 = metadata !{i32 458773, metadata !2, metadata !"", metadata !2, i32 0, i64 0, i64 0, i64 0, i32 0, null, metadata !647, i32 0, null} ; [ DW_TAG_subroutine_type ]
!647 = metadata !{null, metadata !641, metadata !54}
!648 = metadata !{i32 458798, i32 0, metadata !374, metadata !"ap_uint", metadata !"ap_uint", metadata !"", metadata !12, i32 201, metadata !649, i1 false, i1 false, i32 0, i32 0, null, i1 false} ; [ DW_TAG_subprogram ]
!649 = metadata !{i32 458773, metadata !2, metadata !"", metadata !2, i32 0, i64 0, i64 0, i64 0, i32 0, null, metadata !650, i32 0, null} ; [ DW_TAG_subroutine_type ]
!650 = metadata !{null, metadata !641, metadata !58}
!651 = metadata !{i32 458798, i32 0, metadata !374, metadata !"ap_uint", metadata !"ap_uint", metadata !"", metadata !12, i32 202, metadata !652, i1 false, i1 false, i32 0, i32 0, null, i1 false} ; [ DW_TAG_subprogram ]
!652 = metadata !{i32 458773, metadata !2, metadata !"", metadata !2, i32 0, i64 0, i64 0, i64 0, i32 0, null, metadata !653, i32 0, null} ; [ DW_TAG_subroutine_type ]
!653 = metadata !{null, metadata !641, metadata !62}
!654 = metadata !{i32 458798, i32 0, metadata !374, metadata !"ap_uint", metadata !"ap_uint", metadata !"", metadata !12, i32 203, metadata !655, i1 false, i1 false, i32 0, i32 0, null, i1 false} ; [ DW_TAG_subprogram ]
!655 = metadata !{i32 458773, metadata !2, metadata !"", metadata !2, i32 0, i64 0, i64 0, i64 0, i32 0, null, metadata !656, i32 0, null} ; [ DW_TAG_subroutine_type ]
!656 = metadata !{null, metadata !641, metadata !66}
!657 = metadata !{i32 458798, i32 0, metadata !374, metadata !"ap_uint", metadata !"ap_uint", metadata !"", metadata !12, i32 204, metadata !658, i1 false, i1 false, i32 0, i32 0, null, i1 false} ; [ DW_TAG_subprogram ]
!658 = metadata !{i32 458773, metadata !2, metadata !"", metadata !2, i32 0, i64 0, i64 0, i64 0, i32 0, null, metadata !659, i32 0, null} ; [ DW_TAG_subroutine_type ]
!659 = metadata !{null, metadata !641, metadata !70}
!660 = metadata !{i32 458798, i32 0, metadata !374, metadata !"ap_uint", metadata !"ap_uint", metadata !"", metadata !12, i32 205, metadata !661, i1 false, i1 false, i32 0, i32 0, null, i1 false} ; [ DW_TAG_subprogram ]
!661 = metadata !{i32 458773, metadata !2, metadata !"", metadata !2, i32 0, i64 0, i64 0, i64 0, i32 0, null, metadata !662, i32 0, null} ; [ DW_TAG_subroutine_type ]
!662 = metadata !{null, metadata !641, metadata !74}
!663 = metadata !{i32 458798, i32 0, metadata !374, metadata !"ap_uint", metadata !"ap_uint", metadata !"", metadata !12, i32 206, metadata !664, i1 false, i1 false, i32 0, i32 0, null, i1 false} ; [ DW_TAG_subprogram ]
!664 = metadata !{i32 458773, metadata !2, metadata !"", metadata !2, i32 0, i64 0, i64 0, i64 0, i32 0, null, metadata !665, i32 0, null} ; [ DW_TAG_subroutine_type ]
!665 = metadata !{null, metadata !641, metadata !78}
!666 = metadata !{i32 458798, i32 0, metadata !374, metadata !"ap_uint", metadata !"ap_uint", metadata !"", metadata !12, i32 207, metadata !667, i1 false, i1 false, i32 0, i32 0, null, i1 false} ; [ DW_TAG_subprogram ]
!667 = metadata !{i32 458773, metadata !2, metadata !"", metadata !2, i32 0, i64 0, i64 0, i64 0, i32 0, null, metadata !668, i32 0, null} ; [ DW_TAG_subroutine_type ]
!668 = metadata !{null, metadata !641, metadata !82}
!669 = metadata !{i32 458798, i32 0, metadata !374, metadata !"ap_uint", metadata !"ap_uint", metadata !"", metadata !12, i32 208, metadata !670, i1 false, i1 false, i32 0, i32 0, null, i1 false} ; [ DW_TAG_subprogram ]
!670 = metadata !{i32 458773, metadata !2, metadata !"", metadata !2, i32 0, i64 0, i64 0, i64 0, i32 0, null, metadata !671, i32 0, null} ; [ DW_TAG_subroutine_type ]
!671 = metadata !{null, metadata !641, metadata !40}
!672 = metadata !{i32 458798, i32 0, metadata !374, metadata !"ap_uint", metadata !"ap_uint", metadata !"", metadata !12, i32 209, metadata !673, i1 false, i1 false, i32 0, i32 0, null, i1 false} ; [ DW_TAG_subprogram ]
!673 = metadata !{i32 458773, metadata !2, metadata !"", metadata !2, i32 0, i64 0, i64 0, i64 0, i32 0, null, metadata !674, i32 0, null} ; [ DW_TAG_subroutine_type ]
!674 = metadata !{null, metadata !641, metadata !86}
!675 = metadata !{i32 458798, i32 0, metadata !374, metadata !"ap_uint", metadata !"ap_uint", metadata !"", metadata !12, i32 210, metadata !676, i1 false, i1 false, i32 0, i32 0, null, i1 false} ; [ DW_TAG_subprogram ]
!676 = metadata !{i32 458773, metadata !2, metadata !"", metadata !2, i32 0, i64 0, i64 0, i64 0, i32 0, null, metadata !677, i32 0, null} ; [ DW_TAG_subroutine_type ]
!677 = metadata !{null, metadata !641, metadata !93}
!678 = metadata !{i32 458798, i32 0, metadata !374, metadata !"ap_uint", metadata !"ap_uint", metadata !"", metadata !12, i32 211, metadata !679, i1 false, i1 false, i32 0, i32 0, null, i1 false} ; [ DW_TAG_subprogram ]
!679 = metadata !{i32 458773, metadata !2, metadata !"", metadata !2, i32 0, i64 0, i64 0, i64 0, i32 0, null, metadata !680, i32 0, null} ; [ DW_TAG_subroutine_type ]
!680 = metadata !{null, metadata !641, metadata !97}
!681 = metadata !{i32 458798, i32 0, metadata !374, metadata !"ap_uint", metadata !"ap_uint", metadata !"", metadata !12, i32 213, metadata !682, i1 false, i1 false, i32 0, i32 0, null, i1 false} ; [ DW_TAG_subprogram ]
!682 = metadata !{i32 458773, metadata !2, metadata !"", metadata !2, i32 0, i64 0, i64 0, i64 0, i32 0, null, metadata !683, i32 0, null} ; [ DW_TAG_subroutine_type ]
!683 = metadata !{null, metadata !641, metadata !101}
!684 = metadata !{i32 458798, i32 0, metadata !374, metadata !"ap_uint", metadata !"ap_uint", metadata !"", metadata !12, i32 214, metadata !685, i1 false, i1 false, i32 0, i32 0, null, i1 false} ; [ DW_TAG_subprogram ]
!685 = metadata !{i32 458773, metadata !2, metadata !"", metadata !2, i32 0, i64 0, i64 0, i64 0, i32 0, null, metadata !686, i32 0, null} ; [ DW_TAG_subroutine_type ]
!686 = metadata !{null, metadata !641, metadata !101, metadata !54}
!687 = metadata !{i32 458798, i32 0, metadata !374, metadata !"operator=", metadata !"operator=", metadata !"_ZNV7ap_uintILi32EEaSERKS0_", metadata !12, i32 217, metadata !688, i1 false, i1 false, i32 0, i32 0, null, i1 false} ; [ DW_TAG_subprogram ]
!688 = metadata !{i32 458773, metadata !2, metadata !"", metadata !2, i32 0, i64 0, i64 0, i64 0, i32 0, null, metadata !689, i32 0, null} ; [ DW_TAG_subroutine_type ]
!689 = metadata !{null, metadata !690, metadata !692}
!690 = metadata !{i32 458767, metadata !2, metadata !"", metadata !2, i32 0, i64 32, i64 32, i64 0, i32 64, metadata !691} ; [ DW_TAG_pointer_type ]
!691 = metadata !{i32 458805, metadata !2, metadata !"", metadata !2, i32 0, i64 32, i64 32, i64 0, i32 0, metadata !374} ; [ DW_TAG_volatile_type ]
!692 = metadata !{i32 458768, metadata !2, metadata !"", metadata !2, i32 0, i64 32, i64 32, i64 0, i32 0, metadata !693} ; [ DW_TAG_reference_type ]
!693 = metadata !{i32 458790, metadata !2, metadata !"", metadata !2, i32 0, i64 32, i64 32, i64 0, i32 0, metadata !374} ; [ DW_TAG_const_type ]
!694 = metadata !{i32 458798, i32 0, metadata !374, metadata !"operator=", metadata !"operator=", metadata !"_ZNV7ap_uintILi32EEaSERVKS0_", metadata !12, i32 221, metadata !695, i1 false, i1 false, i32 0, i32 0, null, i1 false} ; [ DW_TAG_subprogram ]
!695 = metadata !{i32 458773, metadata !2, metadata !"", metadata !2, i32 0, i64 0, i64 0, i64 0, i32 0, null, metadata !696, i32 0, null} ; [ DW_TAG_subroutine_type ]
!696 = metadata !{null, metadata !690, metadata !697}
!697 = metadata !{i32 458768, metadata !2, metadata !"", metadata !2, i32 0, i64 32, i64 32, i64 0, i32 0, metadata !698} ; [ DW_TAG_reference_type ]
!698 = metadata !{i32 458790, metadata !2, metadata !"", metadata !2, i32 0, i64 32, i64 32, i64 0, i32 0, metadata !691} ; [ DW_TAG_const_type ]
!699 = metadata !{i32 458798, i32 0, metadata !374, metadata !"operator=", metadata !"operator=", metadata !"_ZN7ap_uintILi32EEaSERVKS0_", metadata !12, i32 225, metadata !700, i1 false, i1 false, i32 0, i32 0, null, i1 false} ; [ DW_TAG_subprogram ]
!700 = metadata !{i32 458773, metadata !2, metadata !"", metadata !2, i32 0, i64 0, i64 0, i64 0, i32 0, null, metadata !701, i32 0, null} ; [ DW_TAG_subroutine_type ]
!701 = metadata !{metadata !702, metadata !641, metadata !697}
!702 = metadata !{i32 458768, metadata !2, metadata !"ap_uint<32>", metadata !2, i32 0, i64 32, i64 32, i64 0, i32 0, metadata !374} ; [ DW_TAG_reference_type ]
!703 = metadata !{i32 458798, i32 0, metadata !374, metadata !"operator=", metadata !"operator=", metadata !"_ZN7ap_uintILi32EEaSERKS0_", metadata !12, i32 230, metadata !704, i1 false, i1 true, i32 0, i32 0, null, i1 false} ; [ DW_TAG_subprogram ]
!704 = metadata !{i32 458773, metadata !2, metadata !"", metadata !2, i32 0, i64 0, i64 0, i64 0, i32 0, null, metadata !705, i32 0, null} ; [ DW_TAG_subroutine_type ]
!705 = metadata !{metadata !702, metadata !641, metadata !692}
!706 = metadata !{i32 458765, metadata !370, metadata !"strb", metadata !371, i32 64, i64 8, i64 8, i64 32, i32 0, metadata !707} ; [ DW_TAG_member ]
!707 = metadata !{i32 458771, metadata !2, metadata !"ap_uint<4>", metadata !12, i32 134, i64 8, i64 8, i64 0, i32 0, null, metadata !708, i32 0, null} ; [ DW_TAG_structure_type ]
!708 = metadata !{metadata !709, metadata !919, metadata !923, metadata !926, metadata !929, metadata !932, metadata !935, metadata !938, metadata !941, metadata !944, metadata !947, metadata !950, metadata !953, metadata !956, metadata !959, metadata !962, metadata !965, metadata !968, metadata !975, metadata !980, metadata !984}
!709 = metadata !{i32 458780, metadata !2, metadata !"", null, i32 0, i64 0, i64 0, i64 0, i32 0, metadata !710} ; [ DW_TAG_inheritance ]
!710 = metadata !{i32 458771, metadata !2, metadata !"ap_int_base<4,false>", metadata !16, i32 1306, i64 8, i64 8, i64 0, i32 0, null, metadata !711, i32 0, null} ; [ DW_TAG_structure_type ]
!711 = metadata !{metadata !712, metadata !732, metadata !736, metadata !739, metadata !742, metadata !745, metadata !748, metadata !751, metadata !754, metadata !757, metadata !760, metadata !763, metadata !766, metadata !769, metadata !772, metadata !775, metadata !778, metadata !781, metadata !786, metadata !791, metadata !796, metadata !797, metadata !801, metadata !804, metadata !807, metadata !810, metadata !813, metadata !816, metadata !820, metadata !823, metadata !826, metadata !829, metadata !832, metadata !835, metadata !838, metadata !839, metadata !843, metadata !846, metadata !849, metadata !850, metadata !851, metadata !852, metadata !853, metadata !856, metadata !857, metadata !860, metadata !861, metadata !862, metadata !863, metadata !864, metadata !865, metadata !866, metadata !867, metadata !870, metadata !871, metadata !874, metadata !878, metadata !879, metadata !880, metadata !884, metadata !885, metadata !888, metadata !889, metadata !893, metadata !894, metadata !895, metadata !896, metadata !899, metadata !900, metadata !901, metadata !902, metadata !903, metadata !904, metadata !905, metadata !906, metadata !907, metadata !908, metadata !909, metadata !910, metadata !913, metadata !916}
!712 = metadata !{i32 458780, metadata !2, metadata !"", null, i32 0, i64 0, i64 0, i64 0, i32 0, metadata !713} ; [ DW_TAG_inheritance ]
!713 = metadata !{i32 458771, metadata !2, metadata !"conv_cint<4,false,true>", metadata !16, i32 1269, i64 8, i64 8, i64 0, i32 0, null, metadata !714, i32 0, null} ; [ DW_TAG_structure_type ]
!714 = metadata !{metadata !715, metadata !723, metadata !727}
!715 = metadata !{i32 458780, metadata !2, metadata !"", null, i32 0, i64 0, i64 0, i64 0, i32 0, metadata !716} ; [ DW_TAG_inheritance ]
!716 = metadata !{i32 458771, metadata !2, metadata !"ssdm_int<4,false>", metadata !23, i32 6, i64 8, i64 8, i64 0, i32 0, null, metadata !717, i32 0, null} ; [ DW_TAG_structure_type ]
!717 = metadata !{metadata !718, metadata !719}
!718 = metadata !{i32 458765, metadata !716, metadata !"V", metadata !23, i32 6, i64 8, i64 8, i64 0, i32 0, metadata !26} ; [ DW_TAG_member ]
!719 = metadata !{i32 458798, i32 0, metadata !716, metadata !"ssdm_int", metadata !"ssdm_int", metadata !"", metadata !23, i32 6, metadata !720, i1 false, i1 false, i32 0, i32 0, null, i1 false} ; [ DW_TAG_subprogram ]
!720 = metadata !{i32 458773, metadata !2, metadata !"", metadata !2, i32 0, i64 0, i64 0, i64 0, i32 0, null, metadata !721, i32 0, null} ; [ DW_TAG_subroutine_type ]
!721 = metadata !{null, metadata !722}
!722 = metadata !{i32 458767, metadata !2, metadata !"", metadata !2, i32 0, i64 32, i64 32, i64 0, i32 64, metadata !716} ; [ DW_TAG_pointer_type ]
!723 = metadata !{i32 458798, i32 0, metadata !713, metadata !"conv_cint", metadata !"conv_cint", metadata !"", metadata !16, i32 1275, metadata !724, i1 false, i1 false, i32 0, i32 0, null, i1 false} ; [ DW_TAG_subprogram ]
!724 = metadata !{i32 458773, metadata !2, metadata !"", metadata !2, i32 0, i64 0, i64 0, i64 0, i32 0, null, metadata !725, i32 0, null} ; [ DW_TAG_subroutine_type ]
!725 = metadata !{null, metadata !726}
!726 = metadata !{i32 458767, metadata !2, metadata !"", metadata !2, i32 0, i64 32, i64 32, i64 0, i32 64, metadata !713} ; [ DW_TAG_pointer_type ]
!727 = metadata !{i32 458798, i32 0, metadata !713, metadata !"operator ap_ulong", metadata !"operator ap_ulong", metadata !"_ZNK9conv_cintILi4ELb0ELb1EEcvyEv", metadata !16, i32 1276, metadata !728, i1 false, i1 false, i32 0, i32 0, null, i1 false} ; [ DW_TAG_subprogram ]
!728 = metadata !{i32 458773, metadata !2, metadata !"", metadata !2, i32 0, i64 0, i64 0, i64 0, i32 0, null, metadata !729, i32 0, null} ; [ DW_TAG_subroutine_type ]
!729 = metadata !{metadata !38, metadata !730}
!730 = metadata !{i32 458767, metadata !2, metadata !"", metadata !2, i32 0, i64 32, i64 32, i64 0, i32 64, metadata !731} ; [ DW_TAG_pointer_type ]
!731 = metadata !{i32 458790, metadata !2, metadata !"", metadata !2, i32 0, i64 8, i64 8, i64 0, i32 0, metadata !713} ; [ DW_TAG_const_type ]
!732 = metadata !{i32 458798, i32 0, metadata !710, metadata !"ap_int_base", metadata !"ap_int_base", metadata !"", metadata !16, i32 1341, metadata !733, i1 false, i1 false, i32 0, i32 0, null, i1 false} ; [ DW_TAG_subprogram ]
!733 = metadata !{i32 458773, metadata !2, metadata !"", metadata !2, i32 0, i64 0, i64 0, i64 0, i32 0, null, metadata !734, i32 0, null} ; [ DW_TAG_subroutine_type ]
!734 = metadata !{null, metadata !735}
!735 = metadata !{i32 458767, metadata !2, metadata !"", metadata !2, i32 0, i64 32, i64 32, i64 0, i32 64, metadata !710} ; [ DW_TAG_pointer_type ]
!736 = metadata !{i32 458798, i32 0, metadata !710, metadata !"ap_int_base", metadata !"ap_int_base", metadata !"", metadata !16, i32 1363, metadata !737, i1 false, i1 false, i32 0, i32 0, null, i1 false} ; [ DW_TAG_subprogram ]
!737 = metadata !{i32 458773, metadata !2, metadata !"", metadata !2, i32 0, i64 0, i64 0, i64 0, i32 0, null, metadata !738, i32 0, null} ; [ DW_TAG_subroutine_type ]
!738 = metadata !{null, metadata !735, metadata !50}
!739 = metadata !{i32 458798, i32 0, metadata !710, metadata !"ap_int_base", metadata !"ap_int_base", metadata !"", metadata !16, i32 1364, metadata !740, i1 false, i1 false, i32 0, i32 0, null, i1 false} ; [ DW_TAG_subprogram ]
!740 = metadata !{i32 458773, metadata !2, metadata !"", metadata !2, i32 0, i64 0, i64 0, i64 0, i32 0, null, metadata !741, i32 0, null} ; [ DW_TAG_subroutine_type ]
!741 = metadata !{null, metadata !735, metadata !54}
!742 = metadata !{i32 458798, i32 0, metadata !710, metadata !"ap_int_base", metadata !"ap_int_base", metadata !"", metadata !16, i32 1365, metadata !743, i1 false, i1 false, i32 0, i32 0, null, i1 false} ; [ DW_TAG_subprogram ]
!743 = metadata !{i32 458773, metadata !2, metadata !"", metadata !2, i32 0, i64 0, i64 0, i64 0, i32 0, null, metadata !744, i32 0, null} ; [ DW_TAG_subroutine_type ]
!744 = metadata !{null, metadata !735, metadata !58}
!745 = metadata !{i32 458798, i32 0, metadata !710, metadata !"ap_int_base", metadata !"ap_int_base", metadata !"", metadata !16, i32 1366, metadata !746, i1 false, i1 false, i32 0, i32 0, null, i1 false} ; [ DW_TAG_subprogram ]
!746 = metadata !{i32 458773, metadata !2, metadata !"", metadata !2, i32 0, i64 0, i64 0, i64 0, i32 0, null, metadata !747, i32 0, null} ; [ DW_TAG_subroutine_type ]
!747 = metadata !{null, metadata !735, metadata !62}
!748 = metadata !{i32 458798, i32 0, metadata !710, metadata !"ap_int_base", metadata !"ap_int_base", metadata !"", metadata !16, i32 1367, metadata !749, i1 false, i1 false, i32 0, i32 0, null, i1 false} ; [ DW_TAG_subprogram ]
!749 = metadata !{i32 458773, metadata !2, metadata !"", metadata !2, i32 0, i64 0, i64 0, i64 0, i32 0, null, metadata !750, i32 0, null} ; [ DW_TAG_subroutine_type ]
!750 = metadata !{null, metadata !735, metadata !66}
!751 = metadata !{i32 458798, i32 0, metadata !710, metadata !"ap_int_base", metadata !"ap_int_base", metadata !"", metadata !16, i32 1368, metadata !752, i1 false, i1 false, i32 0, i32 0, null, i1 false} ; [ DW_TAG_subprogram ]
!752 = metadata !{i32 458773, metadata !2, metadata !"", metadata !2, i32 0, i64 0, i64 0, i64 0, i32 0, null, metadata !753, i32 0, null} ; [ DW_TAG_subroutine_type ]
!753 = metadata !{null, metadata !735, metadata !70}
!754 = metadata !{i32 458798, i32 0, metadata !710, metadata !"ap_int_base", metadata !"ap_int_base", metadata !"", metadata !16, i32 1369, metadata !755, i1 false, i1 false, i32 0, i32 0, null, i1 false} ; [ DW_TAG_subprogram ]
!755 = metadata !{i32 458773, metadata !2, metadata !"", metadata !2, i32 0, i64 0, i64 0, i64 0, i32 0, null, metadata !756, i32 0, null} ; [ DW_TAG_subroutine_type ]
!756 = metadata !{null, metadata !735, metadata !74}
!757 = metadata !{i32 458798, i32 0, metadata !710, metadata !"ap_int_base", metadata !"ap_int_base", metadata !"", metadata !16, i32 1370, metadata !758, i1 false, i1 false, i32 0, i32 0, null, i1 false} ; [ DW_TAG_subprogram ]
!758 = metadata !{i32 458773, metadata !2, metadata !"", metadata !2, i32 0, i64 0, i64 0, i64 0, i32 0, null, metadata !759, i32 0, null} ; [ DW_TAG_subroutine_type ]
!759 = metadata !{null, metadata !735, metadata !78}
!760 = metadata !{i32 458798, i32 0, metadata !710, metadata !"ap_int_base", metadata !"ap_int_base", metadata !"", metadata !16, i32 1371, metadata !761, i1 false, i1 false, i32 0, i32 0, null, i1 false} ; [ DW_TAG_subprogram ]
!761 = metadata !{i32 458773, metadata !2, metadata !"", metadata !2, i32 0, i64 0, i64 0, i64 0, i32 0, null, metadata !762, i32 0, null} ; [ DW_TAG_subroutine_type ]
!762 = metadata !{null, metadata !735, metadata !82}
!763 = metadata !{i32 458798, i32 0, metadata !710, metadata !"ap_int_base", metadata !"ap_int_base", metadata !"", metadata !16, i32 1372, metadata !764, i1 false, i1 false, i32 0, i32 0, null, i1 false} ; [ DW_TAG_subprogram ]
!764 = metadata !{i32 458773, metadata !2, metadata !"", metadata !2, i32 0, i64 0, i64 0, i64 0, i32 0, null, metadata !765, i32 0, null} ; [ DW_TAG_subroutine_type ]
!765 = metadata !{null, metadata !735, metadata !86}
!766 = metadata !{i32 458798, i32 0, metadata !710, metadata !"ap_int_base", metadata !"ap_int_base", metadata !"", metadata !16, i32 1373, metadata !767, i1 false, i1 false, i32 0, i32 0, null, i1 false} ; [ DW_TAG_subprogram ]
!767 = metadata !{i32 458773, metadata !2, metadata !"", metadata !2, i32 0, i64 0, i64 0, i64 0, i32 0, null, metadata !768, i32 0, null} ; [ DW_TAG_subroutine_type ]
!768 = metadata !{null, metadata !735, metadata !40}
!769 = metadata !{i32 458798, i32 0, metadata !710, metadata !"ap_int_base", metadata !"ap_int_base", metadata !"", metadata !16, i32 1374, metadata !770, i1 false, i1 false, i32 0, i32 0, null, i1 false} ; [ DW_TAG_subprogram ]
!770 = metadata !{i32 458773, metadata !2, metadata !"", metadata !2, i32 0, i64 0, i64 0, i64 0, i32 0, null, metadata !771, i32 0, null} ; [ DW_TAG_subroutine_type ]
!771 = metadata !{null, metadata !735, metadata !93}
!772 = metadata !{i32 458798, i32 0, metadata !710, metadata !"ap_int_base", metadata !"ap_int_base", metadata !"", metadata !16, i32 1375, metadata !773, i1 false, i1 false, i32 0, i32 0, null, i1 false} ; [ DW_TAG_subprogram ]
!773 = metadata !{i32 458773, metadata !2, metadata !"", metadata !2, i32 0, i64 0, i64 0, i64 0, i32 0, null, metadata !774, i32 0, null} ; [ DW_TAG_subroutine_type ]
!774 = metadata !{null, metadata !735, metadata !97}
!775 = metadata !{i32 458798, i32 0, metadata !710, metadata !"ap_int_base", metadata !"ap_int_base", metadata !"", metadata !16, i32 1402, metadata !776, i1 false, i1 false, i32 0, i32 0, null, i1 false} ; [ DW_TAG_subprogram ]
!776 = metadata !{i32 458773, metadata !2, metadata !"", metadata !2, i32 0, i64 0, i64 0, i64 0, i32 0, null, metadata !777, i32 0, null} ; [ DW_TAG_subroutine_type ]
!777 = metadata !{null, metadata !735, metadata !101}
!778 = metadata !{i32 458798, i32 0, metadata !710, metadata !"ap_int_base", metadata !"ap_int_base", metadata !"", metadata !16, i32 1408, metadata !779, i1 false, i1 false, i32 0, i32 0, null, i1 false} ; [ DW_TAG_subprogram ]
!779 = metadata !{i32 458773, metadata !2, metadata !"", metadata !2, i32 0, i64 0, i64 0, i64 0, i32 0, null, metadata !780, i32 0, null} ; [ DW_TAG_subroutine_type ]
!780 = metadata !{null, metadata !735, metadata !101, metadata !54}
!781 = metadata !{i32 458798, i32 0, metadata !710, metadata !"read", metadata !"read", metadata !"_ZNV11ap_int_baseILi4ELb0EE4readEv", metadata !16, i32 1428, metadata !782, i1 false, i1 false, i32 0, i32 0, null, i1 false} ; [ DW_TAG_subprogram ]
!782 = metadata !{i32 458773, metadata !2, metadata !"", metadata !2, i32 0, i64 0, i64 0, i64 0, i32 0, null, metadata !783, i32 0, null} ; [ DW_TAG_subroutine_type ]
!783 = metadata !{metadata !710, metadata !784}
!784 = metadata !{i32 458767, metadata !2, metadata !"", metadata !2, i32 0, i64 32, i64 32, i64 0, i32 64, metadata !785} ; [ DW_TAG_pointer_type ]
!785 = metadata !{i32 458805, metadata !2, metadata !"", metadata !2, i32 0, i64 8, i64 8, i64 0, i32 0, metadata !710} ; [ DW_TAG_volatile_type ]
!786 = metadata !{i32 458798, i32 0, metadata !710, metadata !"write", metadata !"write", metadata !"_ZNV11ap_int_baseILi4ELb0EE5writeERKS0_", metadata !16, i32 1434, metadata !787, i1 false, i1 false, i32 0, i32 0, null, i1 false} ; [ DW_TAG_subprogram ]
!787 = metadata !{i32 458773, metadata !2, metadata !"", metadata !2, i32 0, i64 0, i64 0, i64 0, i32 0, null, metadata !788, i32 0, null} ; [ DW_TAG_subroutine_type ]
!788 = metadata !{null, metadata !784, metadata !789}
!789 = metadata !{i32 458768, metadata !2, metadata !"", metadata !2, i32 0, i64 32, i64 32, i64 0, i32 0, metadata !790} ; [ DW_TAG_reference_type ]
!790 = metadata !{i32 458790, metadata !2, metadata !"", metadata !2, i32 0, i64 8, i64 8, i64 0, i32 0, metadata !710} ; [ DW_TAG_const_type ]
!791 = metadata !{i32 458798, i32 0, metadata !710, metadata !"operator=", metadata !"operator=", metadata !"_ZNV11ap_int_baseILi4ELb0EEaSERVKS0_", metadata !16, i32 1446, metadata !792, i1 false, i1 false, i32 0, i32 0, null, i1 false} ; [ DW_TAG_subprogram ]
!792 = metadata !{i32 458773, metadata !2, metadata !"", metadata !2, i32 0, i64 0, i64 0, i64 0, i32 0, null, metadata !793, i32 0, null} ; [ DW_TAG_subroutine_type ]
!793 = metadata !{null, metadata !784, metadata !794}
!794 = metadata !{i32 458768, metadata !2, metadata !"", metadata !2, i32 0, i64 32, i64 32, i64 0, i32 0, metadata !795} ; [ DW_TAG_reference_type ]
!795 = metadata !{i32 458790, metadata !2, metadata !"", metadata !2, i32 0, i64 8, i64 8, i64 0, i32 0, metadata !785} ; [ DW_TAG_const_type ]
!796 = metadata !{i32 458798, i32 0, metadata !710, metadata !"operator=", metadata !"operator=", metadata !"_ZNV11ap_int_baseILi4ELb0EEaSERKS0_", metadata !16, i32 1455, metadata !787, i1 false, i1 false, i32 0, i32 0, null, i1 false} ; [ DW_TAG_subprogram ]
!797 = metadata !{i32 458798, i32 0, metadata !710, metadata !"operator=", metadata !"operator=", metadata !"_ZN11ap_int_baseILi4ELb0EEaSERVKS0_", metadata !16, i32 1478, metadata !798, i1 false, i1 false, i32 0, i32 0, null, i1 false} ; [ DW_TAG_subprogram ]
!798 = metadata !{i32 458773, metadata !2, metadata !"", metadata !2, i32 0, i64 0, i64 0, i64 0, i32 0, null, metadata !799, i32 0, null} ; [ DW_TAG_subroutine_type ]
!799 = metadata !{metadata !800, metadata !735, metadata !794}
!800 = metadata !{i32 458768, metadata !2, metadata !"ap_int_base<4,false>", metadata !2, i32 0, i64 32, i64 32, i64 0, i32 0, metadata !710} ; [ DW_TAG_reference_type ]
!801 = metadata !{i32 458798, i32 0, metadata !710, metadata !"operator=", metadata !"operator=", metadata !"_ZN11ap_int_baseILi4ELb0EEaSERKS0_", metadata !16, i32 1483, metadata !802, i1 false, i1 false, i32 0, i32 0, null, i1 false} ; [ DW_TAG_subprogram ]
!802 = metadata !{i32 458773, metadata !2, metadata !"", metadata !2, i32 0, i64 0, i64 0, i64 0, i32 0, null, metadata !803, i32 0, null} ; [ DW_TAG_subroutine_type ]
!803 = metadata !{metadata !800, metadata !735, metadata !789}
!804 = metadata !{i32 458798, i32 0, metadata !710, metadata !"operator=", metadata !"operator=", metadata !"_ZN11ap_int_baseILi4ELb0EEaSEPKc", metadata !16, i32 1487, metadata !805, i1 false, i1 false, i32 0, i32 0, null, i1 false} ; [ DW_TAG_subprogram ]
!805 = metadata !{i32 458773, metadata !2, metadata !"", metadata !2, i32 0, i64 0, i64 0, i64 0, i32 0, null, metadata !806, i32 0, null} ; [ DW_TAG_subroutine_type ]
!806 = metadata !{metadata !800, metadata !735, metadata !101}
!807 = metadata !{i32 458798, i32 0, metadata !710, metadata !"set", metadata !"set", metadata !"_ZN11ap_int_baseILi4ELb0EE3setEPKca", metadata !16, i32 1494, metadata !808, i1 false, i1 false, i32 0, i32 0, null, i1 false} ; [ DW_TAG_subprogram ]
!808 = metadata !{i32 458773, metadata !2, metadata !"", metadata !2, i32 0, i64 0, i64 0, i64 0, i32 0, null, metadata !809, i32 0, null} ; [ DW_TAG_subroutine_type ]
!809 = metadata !{metadata !800, metadata !735, metadata !101, metadata !54}
!810 = metadata !{i32 458798, i32 0, metadata !710, metadata !"operator=", metadata !"operator=", metadata !"_ZN11ap_int_baseILi4ELb0EEaSEy", metadata !16, i32 1502, metadata !811, i1 false, i1 false, i32 0, i32 0, null, i1 false} ; [ DW_TAG_subprogram ]
!811 = metadata !{i32 458773, metadata !2, metadata !"", metadata !2, i32 0, i64 0, i64 0, i64 0, i32 0, null, metadata !812, i32 0, null} ; [ DW_TAG_subroutine_type ]
!812 = metadata !{metadata !800, metadata !735, metadata !40}
!813 = metadata !{i32 458798, i32 0, metadata !710, metadata !"operator=", metadata !"operator=", metadata !"_ZN11ap_int_baseILi4ELb0EEaSEx", metadata !16, i32 1507, metadata !814, i1 false, i1 false, i32 0, i32 0, null, i1 false} ; [ DW_TAG_subprogram ]
!814 = metadata !{i32 458773, metadata !2, metadata !"", metadata !2, i32 0, i64 0, i64 0, i64 0, i32 0, null, metadata !815, i32 0, null} ; [ DW_TAG_subroutine_type ]
!815 = metadata !{metadata !800, metadata !735, metadata !86}
!816 = metadata !{i32 458798, i32 0, metadata !710, metadata !"to_int", metadata !"to_int", metadata !"_ZNK11ap_int_baseILi4ELb0EE6to_intEv", metadata !16, i32 1553, metadata !817, i1 false, i1 false, i32 0, i32 0, null, i1 false} ; [ DW_TAG_subprogram ]
!817 = metadata !{i32 458773, metadata !2, metadata !"", metadata !2, i32 0, i64 0, i64 0, i64 0, i32 0, null, metadata !818, i32 0, null} ; [ DW_TAG_subroutine_type ]
!818 = metadata !{metadata !70, metadata !819}
!819 = metadata !{i32 458767, metadata !2, metadata !"", metadata !2, i32 0, i64 32, i64 32, i64 0, i32 64, metadata !790} ; [ DW_TAG_pointer_type ]
!820 = metadata !{i32 458798, i32 0, metadata !710, metadata !"to_uint", metadata !"to_uint", metadata !"_ZNK11ap_int_baseILi4ELb0EE7to_uintEv", metadata !16, i32 1554, metadata !821, i1 false, i1 false, i32 0, i32 0, null, i1 false} ; [ DW_TAG_subprogram ]
!821 = metadata !{i32 458773, metadata !2, metadata !"", metadata !2, i32 0, i64 0, i64 0, i64 0, i32 0, null, metadata !822, i32 0, null} ; [ DW_TAG_subroutine_type ]
!822 = metadata !{metadata !74, metadata !819}
!823 = metadata !{i32 458798, i32 0, metadata !710, metadata !"to_long", metadata !"to_long", metadata !"_ZNK11ap_int_baseILi4ELb0EE7to_longEv", metadata !16, i32 1555, metadata !824, i1 false, i1 false, i32 0, i32 0, null, i1 false} ; [ DW_TAG_subprogram ]
!824 = metadata !{i32 458773, metadata !2, metadata !"", metadata !2, i32 0, i64 0, i64 0, i64 0, i32 0, null, metadata !825, i32 0, null} ; [ DW_TAG_subroutine_type ]
!825 = metadata !{metadata !78, metadata !819}
!826 = metadata !{i32 458798, i32 0, metadata !710, metadata !"to_ulong", metadata !"to_ulong", metadata !"_ZNK11ap_int_baseILi4ELb0EE8to_ulongEv", metadata !16, i32 1556, metadata !827, i1 false, i1 false, i32 0, i32 0, null, i1 false} ; [ DW_TAG_subprogram ]
!827 = metadata !{i32 458773, metadata !2, metadata !"", metadata !2, i32 0, i64 0, i64 0, i64 0, i32 0, null, metadata !828, i32 0, null} ; [ DW_TAG_subroutine_type ]
!828 = metadata !{metadata !82, metadata !819}
!829 = metadata !{i32 458798, i32 0, metadata !710, metadata !"to_int64", metadata !"to_int64", metadata !"_ZNK11ap_int_baseILi4ELb0EE8to_int64Ev", metadata !16, i32 1557, metadata !830, i1 false, i1 false, i32 0, i32 0, null, i1 false} ; [ DW_TAG_subprogram ]
!830 = metadata !{i32 458773, metadata !2, metadata !"", metadata !2, i32 0, i64 0, i64 0, i64 0, i32 0, null, metadata !831, i32 0, null} ; [ DW_TAG_subroutine_type ]
!831 = metadata !{metadata !158, metadata !819}
!832 = metadata !{i32 458798, i32 0, metadata !710, metadata !"to_uint64", metadata !"to_uint64", metadata !"_ZNK11ap_int_baseILi4ELb0EE9to_uint64Ev", metadata !16, i32 1558, metadata !833, i1 false, i1 false, i32 0, i32 0, null, i1 false} ; [ DW_TAG_subprogram ]
!833 = metadata !{i32 458773, metadata !2, metadata !"", metadata !2, i32 0, i64 0, i64 0, i64 0, i32 0, null, metadata !834, i32 0, null} ; [ DW_TAG_subroutine_type ]
!834 = metadata !{metadata !38, metadata !819}
!835 = metadata !{i32 458798, i32 0, metadata !710, metadata !"to_double", metadata !"to_double", metadata !"_ZNK11ap_int_baseILi4ELb0EE9to_doubleEv", metadata !16, i32 1559, metadata !836, i1 false, i1 false, i32 0, i32 0, null, i1 false} ; [ DW_TAG_subprogram ]
!836 = metadata !{i32 458773, metadata !2, metadata !"", metadata !2, i32 0, i64 0, i64 0, i64 0, i32 0, null, metadata !837, i32 0, null} ; [ DW_TAG_subroutine_type ]
!837 = metadata !{metadata !97, metadata !819}
!838 = metadata !{i32 458798, i32 0, metadata !710, metadata !"length", metadata !"length", metadata !"_ZNK11ap_int_baseILi4ELb0EE6lengthEv", metadata !16, i32 1572, metadata !817, i1 false, i1 false, i32 0, i32 0, null, i1 false} ; [ DW_TAG_subprogram ]
!839 = metadata !{i32 458798, i32 0, metadata !710, metadata !"length", metadata !"length", metadata !"_ZNVK11ap_int_baseILi4ELb0EE6lengthEv", metadata !16, i32 1573, metadata !840, i1 false, i1 false, i32 0, i32 0, null, i1 false} ; [ DW_TAG_subprogram ]
!840 = metadata !{i32 458773, metadata !2, metadata !"", metadata !2, i32 0, i64 0, i64 0, i64 0, i32 0, null, metadata !841, i32 0, null} ; [ DW_TAG_subroutine_type ]
!841 = metadata !{metadata !70, metadata !842}
!842 = metadata !{i32 458767, metadata !2, metadata !"", metadata !2, i32 0, i64 32, i64 32, i64 0, i32 64, metadata !795} ; [ DW_TAG_pointer_type ]
!843 = metadata !{i32 458798, i32 0, metadata !710, metadata !"reverse", metadata !"reverse", metadata !"_ZN11ap_int_baseILi4ELb0EE7reverseEv", metadata !16, i32 1578, metadata !844, i1 false, i1 false, i32 0, i32 0, null, i1 false} ; [ DW_TAG_subprogram ]
!844 = metadata !{i32 458773, metadata !2, metadata !"", metadata !2, i32 0, i64 0, i64 0, i64 0, i32 0, null, metadata !845, i32 0, null} ; [ DW_TAG_subroutine_type ]
!845 = metadata !{metadata !800, metadata !735}
!846 = metadata !{i32 458798, i32 0, metadata !710, metadata !"iszero", metadata !"iszero", metadata !"_ZNK11ap_int_baseILi4ELb0EE6iszeroEv", metadata !16, i32 1584, metadata !847, i1 false, i1 false, i32 0, i32 0, null, i1 false} ; [ DW_TAG_subprogram ]
!847 = metadata !{i32 458773, metadata !2, metadata !"", metadata !2, i32 0, i64 0, i64 0, i64 0, i32 0, null, metadata !848, i32 0, null} ; [ DW_TAG_subroutine_type ]
!848 = metadata !{metadata !50, metadata !819}
!849 = metadata !{i32 458798, i32 0, metadata !710, metadata !"is_zero", metadata !"is_zero", metadata !"_ZNK11ap_int_baseILi4ELb0EE7is_zeroEv", metadata !16, i32 1589, metadata !847, i1 false, i1 false, i32 0, i32 0, null, i1 false} ; [ DW_TAG_subprogram ]
!850 = metadata !{i32 458798, i32 0, metadata !710, metadata !"sign", metadata !"sign", metadata !"_ZNK11ap_int_baseILi4ELb0EE4signEv", metadata !16, i32 1594, metadata !847, i1 false, i1 false, i32 0, i32 0, null, i1 false} ; [ DW_TAG_subprogram ]
!851 = metadata !{i32 458798, i32 0, metadata !710, metadata !"clear", metadata !"clear", metadata !"_ZN11ap_int_baseILi4ELb0EE5clearEi", metadata !16, i32 1602, metadata !752, i1 false, i1 false, i32 0, i32 0, null, i1 false} ; [ DW_TAG_subprogram ]
!852 = metadata !{i32 458798, i32 0, metadata !710, metadata !"invert", metadata !"invert", metadata !"_ZN11ap_int_baseILi4ELb0EE6invertEi", metadata !16, i32 1608, metadata !752, i1 false, i1 false, i32 0, i32 0, null, i1 false} ; [ DW_TAG_subprogram ]
!853 = metadata !{i32 458798, i32 0, metadata !710, metadata !"test", metadata !"test", metadata !"_ZNK11ap_int_baseILi4ELb0EE4testEi", metadata !16, i32 1616, metadata !854, i1 false, i1 false, i32 0, i32 0, null, i1 false} ; [ DW_TAG_subprogram ]
!854 = metadata !{i32 458773, metadata !2, metadata !"", metadata !2, i32 0, i64 0, i64 0, i64 0, i32 0, null, metadata !855, i32 0, null} ; [ DW_TAG_subroutine_type ]
!855 = metadata !{metadata !50, metadata !819, metadata !70}
!856 = metadata !{i32 458798, i32 0, metadata !710, metadata !"set", metadata !"set", metadata !"_ZN11ap_int_baseILi4ELb0EE3setEi", metadata !16, i32 1622, metadata !752, i1 false, i1 false, i32 0, i32 0, null, i1 false} ; [ DW_TAG_subprogram ]
!857 = metadata !{i32 458798, i32 0, metadata !710, metadata !"set", metadata !"set", metadata !"_ZN11ap_int_baseILi4ELb0EE3setEib", metadata !16, i32 1628, metadata !858, i1 false, i1 false, i32 0, i32 0, null, i1 false} ; [ DW_TAG_subprogram ]
!858 = metadata !{i32 458773, metadata !2, metadata !"", metadata !2, i32 0, i64 0, i64 0, i64 0, i32 0, null, metadata !859, i32 0, null} ; [ DW_TAG_subroutine_type ]
!859 = metadata !{null, metadata !735, metadata !70, metadata !50}
!860 = metadata !{i32 458798, i32 0, metadata !710, metadata !"lrotate", metadata !"lrotate", metadata !"_ZN11ap_int_baseILi4ELb0EE7lrotateEi", metadata !16, i32 1635, metadata !752, i1 false, i1 false, i32 0, i32 0, null, i1 false} ; [ DW_TAG_subprogram ]
!861 = metadata !{i32 458798, i32 0, metadata !710, metadata !"rrotate", metadata !"rrotate", metadata !"_ZN11ap_int_baseILi4ELb0EE7rrotateEi", metadata !16, i32 1644, metadata !752, i1 false, i1 false, i32 0, i32 0, null, i1 false} ; [ DW_TAG_subprogram ]
!862 = metadata !{i32 458798, i32 0, metadata !710, metadata !"set_bit", metadata !"set_bit", metadata !"_ZN11ap_int_baseILi4ELb0EE7set_bitEib", metadata !16, i32 1652, metadata !858, i1 false, i1 false, i32 0, i32 0, null, i1 false} ; [ DW_TAG_subprogram ]
!863 = metadata !{i32 458798, i32 0, metadata !710, metadata !"get_bit", metadata !"get_bit", metadata !"_ZNK11ap_int_baseILi4ELb0EE7get_bitEi", metadata !16, i32 1657, metadata !854, i1 false, i1 false, i32 0, i32 0, null, i1 false} ; [ DW_TAG_subprogram ]
!864 = metadata !{i32 458798, i32 0, metadata !710, metadata !"b_not", metadata !"b_not", metadata !"_ZN11ap_int_baseILi4ELb0EE5b_notEv", metadata !16, i32 1662, metadata !733, i1 false, i1 false, i32 0, i32 0, null, i1 false} ; [ DW_TAG_subprogram ]
!865 = metadata !{i32 458798, i32 0, metadata !710, metadata !"operator++", metadata !"operator++", metadata !"_ZN11ap_int_baseILi4ELb0EEppEv", metadata !16, i32 1733, metadata !844, i1 false, i1 false, i32 0, i32 0, null, i1 false} ; [ DW_TAG_subprogram ]
!866 = metadata !{i32 458798, i32 0, metadata !710, metadata !"operator--", metadata !"operator--", metadata !"_ZN11ap_int_baseILi4ELb0EEmmEv", metadata !16, i32 1737, metadata !844, i1 false, i1 false, i32 0, i32 0, null, i1 false} ; [ DW_TAG_subprogram ]
!867 = metadata !{i32 458798, i32 0, metadata !710, metadata !"operator++", metadata !"operator++", metadata !"_ZN11ap_int_baseILi4ELb0EEppEi", metadata !16, i32 1745, metadata !868, i1 false, i1 false, i32 0, i32 0, null, i1 false} ; [ DW_TAG_subprogram ]
!868 = metadata !{i32 458773, metadata !2, metadata !"", metadata !2, i32 0, i64 0, i64 0, i64 0, i32 0, null, metadata !869, i32 0, null} ; [ DW_TAG_subroutine_type ]
!869 = metadata !{metadata !790, metadata !735, metadata !70}
!870 = metadata !{i32 458798, i32 0, metadata !710, metadata !"operator--", metadata !"operator--", metadata !"_ZN11ap_int_baseILi4ELb0EEmmEi", metadata !16, i32 1750, metadata !868, i1 false, i1 false, i32 0, i32 0, null, i1 false} ; [ DW_TAG_subprogram ]
!871 = metadata !{i32 458798, i32 0, metadata !710, metadata !"operator+", metadata !"operator+", metadata !"_ZN11ap_int_baseILi4ELb0EEpsEv", metadata !16, i32 1759, metadata !872, i1 false, i1 false, i32 0, i32 0, null, i1 false} ; [ DW_TAG_subprogram ]
!872 = metadata !{i32 458773, metadata !2, metadata !"", metadata !2, i32 0, i64 0, i64 0, i64 0, i32 0, null, metadata !873, i32 0, null} ; [ DW_TAG_subroutine_type ]
!873 = metadata !{metadata !710, metadata !735}
!874 = metadata !{i32 458798, i32 0, metadata !710, metadata !"operator-", metadata !"operator-", metadata !"_ZNK11ap_int_baseILi4ELb0EEngEv", metadata !16, i32 1762, metadata !875, i1 false, i1 false, i32 0, i32 0, null, i1 false} ; [ DW_TAG_subprogram ]
!875 = metadata !{i32 458773, metadata !2, metadata !"", metadata !2, i32 0, i64 0, i64 0, i64 0, i32 0, null, metadata !876, i32 0, null} ; [ DW_TAG_subroutine_type ]
!876 = metadata !{metadata !877, metadata !819}
!877 = metadata !{i32 458771, metadata !2, metadata !"ap_int_base<5,true>", metadata !16, i32 1306, i64 0, i64 0, i64 0, i32 4, null, null, i32 0, null} ; [ DW_TAG_structure_type ]
!878 = metadata !{i32 458798, i32 0, metadata !710, metadata !"operator!", metadata !"operator!", metadata !"_ZNK11ap_int_baseILi4ELb0EEntEv", metadata !16, i32 1769, metadata !847, i1 false, i1 false, i32 0, i32 0, null, i1 false} ; [ DW_TAG_subprogram ]
!879 = metadata !{i32 458798, i32 0, metadata !710, metadata !"operator~", metadata !"operator~", metadata !"_ZNK11ap_int_baseILi4ELb0EEcoEv", metadata !16, i32 1776, metadata !875, i1 false, i1 false, i32 0, i32 0, null, i1 false} ; [ DW_TAG_subprogram ]
!880 = metadata !{i32 458798, i32 0, metadata !710, metadata !"range", metadata !"range", metadata !"_ZN11ap_int_baseILi4ELb0EE5rangeEii", metadata !16, i32 1901, metadata !881, i1 false, i1 false, i32 0, i32 0, null, i1 false} ; [ DW_TAG_subprogram ]
!881 = metadata !{i32 458773, metadata !2, metadata !"", metadata !2, i32 0, i64 0, i64 0, i64 0, i32 0, null, metadata !882, i32 0, null} ; [ DW_TAG_subroutine_type ]
!882 = metadata !{metadata !883, metadata !735, metadata !70, metadata !70}
!883 = metadata !{i32 458771, metadata !2, metadata !"ap_range_ref<4,false>", metadata !16, i32 871, i64 0, i64 0, i64 0, i32 4, null, null, i32 0, null} ; [ DW_TAG_structure_type ]
!884 = metadata !{i32 458798, i32 0, metadata !710, metadata !"operator()", metadata !"operator()", metadata !"_ZN11ap_int_baseILi4ELb0EEclEii", metadata !16, i32 1907, metadata !881, i1 false, i1 false, i32 0, i32 0, null, i1 false} ; [ DW_TAG_subprogram ]
!885 = metadata !{i32 458798, i32 0, metadata !710, metadata !"range", metadata !"range", metadata !"_ZNK11ap_int_baseILi4ELb0EE5rangeEii", metadata !16, i32 1913, metadata !886, i1 false, i1 false, i32 0, i32 0, null, i1 false} ; [ DW_TAG_subprogram ]
!886 = metadata !{i32 458773, metadata !2, metadata !"", metadata !2, i32 0, i64 0, i64 0, i64 0, i32 0, null, metadata !887, i32 0, null} ; [ DW_TAG_subroutine_type ]
!887 = metadata !{metadata !883, metadata !819, metadata !70, metadata !70}
!888 = metadata !{i32 458798, i32 0, metadata !710, metadata !"operator()", metadata !"operator()", metadata !"_ZNK11ap_int_baseILi4ELb0EEclEii", metadata !16, i32 1919, metadata !886, i1 false, i1 false, i32 0, i32 0, null, i1 false} ; [ DW_TAG_subprogram ]
!889 = metadata !{i32 458798, i32 0, metadata !710, metadata !"operator[]", metadata !"operator[]", metadata !"_ZN11ap_int_baseILi4ELb0EEixEi", metadata !16, i32 1978, metadata !890, i1 false, i1 false, i32 0, i32 0, null, i1 false} ; [ DW_TAG_subprogram ]
!890 = metadata !{i32 458773, metadata !2, metadata !"", metadata !2, i32 0, i64 0, i64 0, i64 0, i32 0, null, metadata !891, i32 0, null} ; [ DW_TAG_subroutine_type ]
!891 = metadata !{metadata !892, metadata !735, metadata !70}
!892 = metadata !{i32 458771, metadata !2, metadata !"ap_bit_ref<4,false>", metadata !16, i32 1106, i64 0, i64 0, i64 0, i32 4, null, null, i32 0, null} ; [ DW_TAG_structure_type ]
!893 = metadata !{i32 458798, i32 0, metadata !710, metadata !"operator[]", metadata !"operator[]", metadata !"_ZNK11ap_int_baseILi4ELb0EEixEi", metadata !16, i32 1992, metadata !854, i1 false, i1 false, i32 0, i32 0, null, i1 false} ; [ DW_TAG_subprogram ]
!894 = metadata !{i32 458798, i32 0, metadata !710, metadata !"bit", metadata !"bit", metadata !"_ZN11ap_int_baseILi4ELb0EE3bitEi", metadata !16, i32 2006, metadata !890, i1 false, i1 false, i32 0, i32 0, null, i1 false} ; [ DW_TAG_subprogram ]
!895 = metadata !{i32 458798, i32 0, metadata !710, metadata !"bit", metadata !"bit", metadata !"_ZNK11ap_int_baseILi4ELb0EE3bitEi", metadata !16, i32 2020, metadata !854, i1 false, i1 false, i32 0, i32 0, null, i1 false} ; [ DW_TAG_subprogram ]
!896 = metadata !{i32 458798, i32 0, metadata !710, metadata !"and_reduce", metadata !"and_reduce", metadata !"_ZN11ap_int_baseILi4ELb0EE10and_reduceEv", metadata !16, i32 2200, metadata !897, i1 false, i1 false, i32 0, i32 0, null, i1 false} ; [ DW_TAG_subprogram ]
!897 = metadata !{i32 458773, metadata !2, metadata !"", metadata !2, i32 0, i64 0, i64 0, i64 0, i32 0, null, metadata !898, i32 0, null} ; [ DW_TAG_subroutine_type ]
!898 = metadata !{metadata !50, metadata !735}
!899 = metadata !{i32 458798, i32 0, metadata !710, metadata !"nand_reduce", metadata !"nand_reduce", metadata !"_ZN11ap_int_baseILi4ELb0EE11nand_reduceEv", metadata !16, i32 2203, metadata !897, i1 false, i1 false, i32 0, i32 0, null, i1 false} ; [ DW_TAG_subprogram ]
!900 = metadata !{i32 458798, i32 0, metadata !710, metadata !"or_reduce", metadata !"or_reduce", metadata !"_ZN11ap_int_baseILi4ELb0EE9or_reduceEv", metadata !16, i32 2206, metadata !897, i1 false, i1 false, i32 0, i32 0, null, i1 false} ; [ DW_TAG_subprogram ]
!901 = metadata !{i32 458798, i32 0, metadata !710, metadata !"nor_reduce", metadata !"nor_reduce", metadata !"_ZN11ap_int_baseILi4ELb0EE10nor_reduceEv", metadata !16, i32 2209, metadata !897, i1 false, i1 false, i32 0, i32 0, null, i1 false} ; [ DW_TAG_subprogram ]
!902 = metadata !{i32 458798, i32 0, metadata !710, metadata !"xor_reduce", metadata !"xor_reduce", metadata !"_ZN11ap_int_baseILi4ELb0EE10xor_reduceEv", metadata !16, i32 2212, metadata !897, i1 false, i1 false, i32 0, i32 0, null, i1 false} ; [ DW_TAG_subprogram ]
!903 = metadata !{i32 458798, i32 0, metadata !710, metadata !"xnor_reduce", metadata !"xnor_reduce", metadata !"_ZN11ap_int_baseILi4ELb0EE11xnor_reduceEv", metadata !16, i32 2215, metadata !897, i1 false, i1 false, i32 0, i32 0, null, i1 false} ; [ DW_TAG_subprogram ]
!904 = metadata !{i32 458798, i32 0, metadata !710, metadata !"and_reduce", metadata !"and_reduce", metadata !"_ZNK11ap_int_baseILi4ELb0EE10and_reduceEv", metadata !16, i32 2219, metadata !847, i1 false, i1 false, i32 0, i32 0, null, i1 false} ; [ DW_TAG_subprogram ]
!905 = metadata !{i32 458798, i32 0, metadata !710, metadata !"nand_reduce", metadata !"nand_reduce", metadata !"_ZNK11ap_int_baseILi4ELb0EE11nand_reduceEv", metadata !16, i32 2222, metadata !847, i1 false, i1 false, i32 0, i32 0, null, i1 false} ; [ DW_TAG_subprogram ]
!906 = metadata !{i32 458798, i32 0, metadata !710, metadata !"or_reduce", metadata !"or_reduce", metadata !"_ZNK11ap_int_baseILi4ELb0EE9or_reduceEv", metadata !16, i32 2225, metadata !847, i1 false, i1 false, i32 0, i32 0, null, i1 false} ; [ DW_TAG_subprogram ]
!907 = metadata !{i32 458798, i32 0, metadata !710, metadata !"nor_reduce", metadata !"nor_reduce", metadata !"_ZNK11ap_int_baseILi4ELb0EE10nor_reduceEv", metadata !16, i32 2228, metadata !847, i1 false, i1 false, i32 0, i32 0, null, i1 false} ; [ DW_TAG_subprogram ]
!908 = metadata !{i32 458798, i32 0, metadata !710, metadata !"xor_reduce", metadata !"xor_reduce", metadata !"_ZNK11ap_int_baseILi4ELb0EE10xor_reduceEv", metadata !16, i32 2231, metadata !847, i1 false, i1 false, i32 0, i32 0, null, i1 false} ; [ DW_TAG_subprogram ]
!909 = metadata !{i32 458798, i32 0, metadata !710, metadata !"xnor_reduce", metadata !"xnor_reduce", metadata !"_ZNK11ap_int_baseILi4ELb0EE11xnor_reduceEv", metadata !16, i32 2234, metadata !847, i1 false, i1 false, i32 0, i32 0, null, i1 false} ; [ DW_TAG_subprogram ]
!910 = metadata !{i32 458798, i32 0, metadata !710, metadata !"to_string", metadata !"to_string", metadata !"_ZNK11ap_int_baseILi4ELb0EE9to_stringEPci8BaseModeb", metadata !16, i32 2241, metadata !911, i1 false, i1 false, i32 0, i32 0, null, i1 false} ; [ DW_TAG_subprogram ]
!911 = metadata !{i32 458773, metadata !2, metadata !"", metadata !2, i32 0, i64 0, i64 0, i64 0, i32 0, null, metadata !912, i32 0, null} ; [ DW_TAG_subroutine_type ]
!912 = metadata !{null, metadata !819, metadata !240, metadata !70, metadata !241, metadata !50}
!913 = metadata !{i32 458798, i32 0, metadata !710, metadata !"to_string", metadata !"to_string", metadata !"_ZNK11ap_int_baseILi4ELb0EE9to_stringE8BaseModeb", metadata !16, i32 2268, metadata !914, i1 false, i1 false, i32 0, i32 0, null, i1 false} ; [ DW_TAG_subprogram ]
!914 = metadata !{i32 458773, metadata !2, metadata !"", metadata !2, i32 0, i64 0, i64 0, i64 0, i32 0, null, metadata !915, i32 0, null} ; [ DW_TAG_subroutine_type ]
!915 = metadata !{metadata !240, metadata !819, metadata !241, metadata !50}
!916 = metadata !{i32 458798, i32 0, metadata !710, metadata !"to_string", metadata !"to_string", metadata !"_ZNK11ap_int_baseILi4ELb0EE9to_stringEab", metadata !16, i32 2272, metadata !917, i1 false, i1 false, i32 0, i32 0, null, i1 false} ; [ DW_TAG_subprogram ]
!917 = metadata !{i32 458773, metadata !2, metadata !"", metadata !2, i32 0, i64 0, i64 0, i64 0, i32 0, null, metadata !918, i32 0, null} ; [ DW_TAG_subroutine_type ]
!918 = metadata !{metadata !240, metadata !819, metadata !54, metadata !50}
!919 = metadata !{i32 458798, i32 0, metadata !707, metadata !"ap_uint", metadata !"ap_uint", metadata !"", metadata !12, i32 137, metadata !920, i1 false, i1 false, i32 0, i32 0, null, i1 false} ; [ DW_TAG_subprogram ]
!920 = metadata !{i32 458773, metadata !2, metadata !"", metadata !2, i32 0, i64 0, i64 0, i64 0, i32 0, null, metadata !921, i32 0, null} ; [ DW_TAG_subroutine_type ]
!921 = metadata !{null, metadata !922}
!922 = metadata !{i32 458767, metadata !2, metadata !"", metadata !2, i32 0, i64 32, i64 32, i64 0, i32 64, metadata !707} ; [ DW_TAG_pointer_type ]
!923 = metadata !{i32 458798, i32 0, metadata !707, metadata !"ap_uint", metadata !"ap_uint", metadata !"", metadata !12, i32 199, metadata !924, i1 false, i1 false, i32 0, i32 0, null, i1 false} ; [ DW_TAG_subprogram ]
!924 = metadata !{i32 458773, metadata !2, metadata !"", metadata !2, i32 0, i64 0, i64 0, i64 0, i32 0, null, metadata !925, i32 0, null} ; [ DW_TAG_subroutine_type ]
!925 = metadata !{null, metadata !922, metadata !50}
!926 = metadata !{i32 458798, i32 0, metadata !707, metadata !"ap_uint", metadata !"ap_uint", metadata !"", metadata !12, i32 200, metadata !927, i1 false, i1 false, i32 0, i32 0, null, i1 false} ; [ DW_TAG_subprogram ]
!927 = metadata !{i32 458773, metadata !2, metadata !"", metadata !2, i32 0, i64 0, i64 0, i64 0, i32 0, null, metadata !928, i32 0, null} ; [ DW_TAG_subroutine_type ]
!928 = metadata !{null, metadata !922, metadata !54}
!929 = metadata !{i32 458798, i32 0, metadata !707, metadata !"ap_uint", metadata !"ap_uint", metadata !"", metadata !12, i32 201, metadata !930, i1 false, i1 false, i32 0, i32 0, null, i1 false} ; [ DW_TAG_subprogram ]
!930 = metadata !{i32 458773, metadata !2, metadata !"", metadata !2, i32 0, i64 0, i64 0, i64 0, i32 0, null, metadata !931, i32 0, null} ; [ DW_TAG_subroutine_type ]
!931 = metadata !{null, metadata !922, metadata !58}
!932 = metadata !{i32 458798, i32 0, metadata !707, metadata !"ap_uint", metadata !"ap_uint", metadata !"", metadata !12, i32 202, metadata !933, i1 false, i1 false, i32 0, i32 0, null, i1 false} ; [ DW_TAG_subprogram ]
!933 = metadata !{i32 458773, metadata !2, metadata !"", metadata !2, i32 0, i64 0, i64 0, i64 0, i32 0, null, metadata !934, i32 0, null} ; [ DW_TAG_subroutine_type ]
!934 = metadata !{null, metadata !922, metadata !62}
!935 = metadata !{i32 458798, i32 0, metadata !707, metadata !"ap_uint", metadata !"ap_uint", metadata !"", metadata !12, i32 203, metadata !936, i1 false, i1 false, i32 0, i32 0, null, i1 false} ; [ DW_TAG_subprogram ]
!936 = metadata !{i32 458773, metadata !2, metadata !"", metadata !2, i32 0, i64 0, i64 0, i64 0, i32 0, null, metadata !937, i32 0, null} ; [ DW_TAG_subroutine_type ]
!937 = metadata !{null, metadata !922, metadata !66}
!938 = metadata !{i32 458798, i32 0, metadata !707, metadata !"ap_uint", metadata !"ap_uint", metadata !"", metadata !12, i32 204, metadata !939, i1 false, i1 false, i32 0, i32 0, null, i1 false} ; [ DW_TAG_subprogram ]
!939 = metadata !{i32 458773, metadata !2, metadata !"", metadata !2, i32 0, i64 0, i64 0, i64 0, i32 0, null, metadata !940, i32 0, null} ; [ DW_TAG_subroutine_type ]
!940 = metadata !{null, metadata !922, metadata !70}
!941 = metadata !{i32 458798, i32 0, metadata !707, metadata !"ap_uint", metadata !"ap_uint", metadata !"", metadata !12, i32 205, metadata !942, i1 false, i1 false, i32 0, i32 0, null, i1 false} ; [ DW_TAG_subprogram ]
!942 = metadata !{i32 458773, metadata !2, metadata !"", metadata !2, i32 0, i64 0, i64 0, i64 0, i32 0, null, metadata !943, i32 0, null} ; [ DW_TAG_subroutine_type ]
!943 = metadata !{null, metadata !922, metadata !74}
!944 = metadata !{i32 458798, i32 0, metadata !707, metadata !"ap_uint", metadata !"ap_uint", metadata !"", metadata !12, i32 206, metadata !945, i1 false, i1 false, i32 0, i32 0, null, i1 false} ; [ DW_TAG_subprogram ]
!945 = metadata !{i32 458773, metadata !2, metadata !"", metadata !2, i32 0, i64 0, i64 0, i64 0, i32 0, null, metadata !946, i32 0, null} ; [ DW_TAG_subroutine_type ]
!946 = metadata !{null, metadata !922, metadata !78}
!947 = metadata !{i32 458798, i32 0, metadata !707, metadata !"ap_uint", metadata !"ap_uint", metadata !"", metadata !12, i32 207, metadata !948, i1 false, i1 false, i32 0, i32 0, null, i1 false} ; [ DW_TAG_subprogram ]
!948 = metadata !{i32 458773, metadata !2, metadata !"", metadata !2, i32 0, i64 0, i64 0, i64 0, i32 0, null, metadata !949, i32 0, null} ; [ DW_TAG_subroutine_type ]
!949 = metadata !{null, metadata !922, metadata !82}
!950 = metadata !{i32 458798, i32 0, metadata !707, metadata !"ap_uint", metadata !"ap_uint", metadata !"", metadata !12, i32 208, metadata !951, i1 false, i1 false, i32 0, i32 0, null, i1 false} ; [ DW_TAG_subprogram ]
!951 = metadata !{i32 458773, metadata !2, metadata !"", metadata !2, i32 0, i64 0, i64 0, i64 0, i32 0, null, metadata !952, i32 0, null} ; [ DW_TAG_subroutine_type ]
!952 = metadata !{null, metadata !922, metadata !40}
!953 = metadata !{i32 458798, i32 0, metadata !707, metadata !"ap_uint", metadata !"ap_uint", metadata !"", metadata !12, i32 209, metadata !954, i1 false, i1 false, i32 0, i32 0, null, i1 false} ; [ DW_TAG_subprogram ]
!954 = metadata !{i32 458773, metadata !2, metadata !"", metadata !2, i32 0, i64 0, i64 0, i64 0, i32 0, null, metadata !955, i32 0, null} ; [ DW_TAG_subroutine_type ]
!955 = metadata !{null, metadata !922, metadata !86}
!956 = metadata !{i32 458798, i32 0, metadata !707, metadata !"ap_uint", metadata !"ap_uint", metadata !"", metadata !12, i32 210, metadata !957, i1 false, i1 false, i32 0, i32 0, null, i1 false} ; [ DW_TAG_subprogram ]
!957 = metadata !{i32 458773, metadata !2, metadata !"", metadata !2, i32 0, i64 0, i64 0, i64 0, i32 0, null, metadata !958, i32 0, null} ; [ DW_TAG_subroutine_type ]
!958 = metadata !{null, metadata !922, metadata !93}
!959 = metadata !{i32 458798, i32 0, metadata !707, metadata !"ap_uint", metadata !"ap_uint", metadata !"", metadata !12, i32 211, metadata !960, i1 false, i1 false, i32 0, i32 0, null, i1 false} ; [ DW_TAG_subprogram ]
!960 = metadata !{i32 458773, metadata !2, metadata !"", metadata !2, i32 0, i64 0, i64 0, i64 0, i32 0, null, metadata !961, i32 0, null} ; [ DW_TAG_subroutine_type ]
!961 = metadata !{null, metadata !922, metadata !97}
!962 = metadata !{i32 458798, i32 0, metadata !707, metadata !"ap_uint", metadata !"ap_uint", metadata !"", metadata !12, i32 213, metadata !963, i1 false, i1 false, i32 0, i32 0, null, i1 false} ; [ DW_TAG_subprogram ]
!963 = metadata !{i32 458773, metadata !2, metadata !"", metadata !2, i32 0, i64 0, i64 0, i64 0, i32 0, null, metadata !964, i32 0, null} ; [ DW_TAG_subroutine_type ]
!964 = metadata !{null, metadata !922, metadata !101}
!965 = metadata !{i32 458798, i32 0, metadata !707, metadata !"ap_uint", metadata !"ap_uint", metadata !"", metadata !12, i32 214, metadata !966, i1 false, i1 false, i32 0, i32 0, null, i1 false} ; [ DW_TAG_subprogram ]
!966 = metadata !{i32 458773, metadata !2, metadata !"", metadata !2, i32 0, i64 0, i64 0, i64 0, i32 0, null, metadata !967, i32 0, null} ; [ DW_TAG_subroutine_type ]
!967 = metadata !{null, metadata !922, metadata !101, metadata !54}
!968 = metadata !{i32 458798, i32 0, metadata !707, metadata !"operator=", metadata !"operator=", metadata !"_ZNV7ap_uintILi4EEaSERKS0_", metadata !12, i32 217, metadata !969, i1 false, i1 false, i32 0, i32 0, null, i1 false} ; [ DW_TAG_subprogram ]
!969 = metadata !{i32 458773, metadata !2, metadata !"", metadata !2, i32 0, i64 0, i64 0, i64 0, i32 0, null, metadata !970, i32 0, null} ; [ DW_TAG_subroutine_type ]
!970 = metadata !{null, metadata !971, metadata !973}
!971 = metadata !{i32 458767, metadata !2, metadata !"", metadata !2, i32 0, i64 32, i64 32, i64 0, i32 64, metadata !972} ; [ DW_TAG_pointer_type ]
!972 = metadata !{i32 458805, metadata !2, metadata !"", metadata !2, i32 0, i64 8, i64 8, i64 0, i32 0, metadata !707} ; [ DW_TAG_volatile_type ]
!973 = metadata !{i32 458768, metadata !2, metadata !"", metadata !2, i32 0, i64 32, i64 32, i64 0, i32 0, metadata !974} ; [ DW_TAG_reference_type ]
!974 = metadata !{i32 458790, metadata !2, metadata !"", metadata !2, i32 0, i64 8, i64 8, i64 0, i32 0, metadata !707} ; [ DW_TAG_const_type ]
!975 = metadata !{i32 458798, i32 0, metadata !707, metadata !"operator=", metadata !"operator=", metadata !"_ZNV7ap_uintILi4EEaSERVKS0_", metadata !12, i32 221, metadata !976, i1 false, i1 false, i32 0, i32 0, null, i1 false} ; [ DW_TAG_subprogram ]
!976 = metadata !{i32 458773, metadata !2, metadata !"", metadata !2, i32 0, i64 0, i64 0, i64 0, i32 0, null, metadata !977, i32 0, null} ; [ DW_TAG_subroutine_type ]
!977 = metadata !{null, metadata !971, metadata !978}
!978 = metadata !{i32 458768, metadata !2, metadata !"", metadata !2, i32 0, i64 32, i64 32, i64 0, i32 0, metadata !979} ; [ DW_TAG_reference_type ]
!979 = metadata !{i32 458790, metadata !2, metadata !"", metadata !2, i32 0, i64 8, i64 8, i64 0, i32 0, metadata !972} ; [ DW_TAG_const_type ]
!980 = metadata !{i32 458798, i32 0, metadata !707, metadata !"operator=", metadata !"operator=", metadata !"_ZN7ap_uintILi4EEaSERVKS0_", metadata !12, i32 225, metadata !981, i1 false, i1 false, i32 0, i32 0, null, i1 false} ; [ DW_TAG_subprogram ]
!981 = metadata !{i32 458773, metadata !2, metadata !"", metadata !2, i32 0, i64 0, i64 0, i64 0, i32 0, null, metadata !982, i32 0, null} ; [ DW_TAG_subroutine_type ]
!982 = metadata !{metadata !983, metadata !922, metadata !978}
!983 = metadata !{i32 458768, metadata !2, metadata !"ap_uint<4>", metadata !2, i32 0, i64 32, i64 32, i64 0, i32 0, metadata !707} ; [ DW_TAG_reference_type ]
!984 = metadata !{i32 458798, i32 0, metadata !707, metadata !"operator=", metadata !"operator=", metadata !"_ZN7ap_uintILi4EEaSERKS0_", metadata !12, i32 230, metadata !985, i1 false, i1 true, i32 0, i32 0, null, i1 false} ; [ DW_TAG_subprogram ]
!985 = metadata !{i32 458773, metadata !2, metadata !"", metadata !2, i32 0, i64 0, i64 0, i64 0, i32 0, null, metadata !986, i32 0, null} ; [ DW_TAG_subroutine_type ]
!986 = metadata !{metadata !983, metadata !922, metadata !973}
!987 = metadata !{i32 458765, metadata !370, metadata !"user", metadata !371, i32 65, i64 8, i64 8, i64 40, i32 0, metadata !988} ; [ DW_TAG_member ]
!988 = metadata !{i32 458771, metadata !2, metadata !"ap_uint<1>", metadata !12, i32 134, i64 8, i64 8, i64 0, i32 0, null, metadata !989, i32 0, null} ; [ DW_TAG_structure_type ]
!989 = metadata !{metadata !990, metadata !1200, metadata !1204, metadata !1207, metadata !1210, metadata !1213, metadata !1216, metadata !1219, metadata !1222, metadata !1225, metadata !1228, metadata !1231, metadata !1234, metadata !1237, metadata !1240, metadata !1243, metadata !1246, metadata !1249, metadata !1256, metadata !1261, metadata !1265}
!990 = metadata !{i32 458780, metadata !2, metadata !"", null, i32 0, i64 0, i64 0, i64 0, i32 0, metadata !991} ; [ DW_TAG_inheritance ]
!991 = metadata !{i32 458771, metadata !2, metadata !"ap_int_base<1,false>", metadata !16, i32 1306, i64 8, i64 8, i64 0, i32 0, null, metadata !992, i32 0, null} ; [ DW_TAG_structure_type ]
!992 = metadata !{metadata !993, metadata !1013, metadata !1017, metadata !1020, metadata !1023, metadata !1026, metadata !1029, metadata !1032, metadata !1035, metadata !1038, metadata !1041, metadata !1044, metadata !1047, metadata !1050, metadata !1053, metadata !1056, metadata !1059, metadata !1062, metadata !1067, metadata !1072, metadata !1077, metadata !1078, metadata !1082, metadata !1085, metadata !1088, metadata !1091, metadata !1094, metadata !1097, metadata !1101, metadata !1104, metadata !1107, metadata !1110, metadata !1113, metadata !1116, metadata !1119, metadata !1120, metadata !1124, metadata !1127, metadata !1130, metadata !1131, metadata !1132, metadata !1133, metadata !1134, metadata !1137, metadata !1138, metadata !1141, metadata !1142, metadata !1143, metadata !1144, metadata !1145, metadata !1146, metadata !1147, metadata !1148, metadata !1151, metadata !1152, metadata !1155, metadata !1159, metadata !1160, metadata !1161, metadata !1165, metadata !1166, metadata !1169, metadata !1170, metadata !1174, metadata !1175, metadata !1176, metadata !1177, metadata !1180, metadata !1181, metadata !1182, metadata !1183, metadata !1184, metadata !1185, metadata !1186, metadata !1187, metadata !1188, metadata !1189, metadata !1190, metadata !1191, metadata !1194, metadata !1197}
!993 = metadata !{i32 458780, metadata !2, metadata !"", null, i32 0, i64 0, i64 0, i64 0, i32 0, metadata !994} ; [ DW_TAG_inheritance ]
!994 = metadata !{i32 458771, metadata !2, metadata !"conv_cint<1,false,true>", metadata !16, i32 1269, i64 8, i64 8, i64 0, i32 0, null, metadata !995, i32 0, null} ; [ DW_TAG_structure_type ]
!995 = metadata !{metadata !996, metadata !1004, metadata !1008}
!996 = metadata !{i32 458780, metadata !2, metadata !"", null, i32 0, i64 0, i64 0, i64 0, i32 0, metadata !997} ; [ DW_TAG_inheritance ]
!997 = metadata !{i32 458771, metadata !2, metadata !"ssdm_int<1,false>", metadata !23, i32 3, i64 8, i64 8, i64 0, i32 0, null, metadata !998, i32 0, null} ; [ DW_TAG_structure_type ]
!998 = metadata !{metadata !999, metadata !1000}
!999 = metadata !{i32 458765, metadata !997, metadata !"V", metadata !23, i32 3, i64 8, i64 8, i64 0, i32 0, metadata !26} ; [ DW_TAG_member ]
!1000 = metadata !{i32 458798, i32 0, metadata !997, metadata !"ssdm_int", metadata !"ssdm_int", metadata !"", metadata !23, i32 3, metadata !1001, i1 false, i1 false, i32 0, i32 0, null, i1 false} ; [ DW_TAG_subprogram ]
!1001 = metadata !{i32 458773, metadata !2, metadata !"", metadata !2, i32 0, i64 0, i64 0, i64 0, i32 0, null, metadata !1002, i32 0, null} ; [ DW_TAG_subroutine_type ]
!1002 = metadata !{null, metadata !1003}
!1003 = metadata !{i32 458767, metadata !2, metadata !"", metadata !2, i32 0, i64 32, i64 32, i64 0, i32 64, metadata !997} ; [ DW_TAG_pointer_type ]
!1004 = metadata !{i32 458798, i32 0, metadata !994, metadata !"conv_cint", metadata !"conv_cint", metadata !"", metadata !16, i32 1275, metadata !1005, i1 false, i1 false, i32 0, i32 0, null, i1 false} ; [ DW_TAG_subprogram ]
!1005 = metadata !{i32 458773, metadata !2, metadata !"", metadata !2, i32 0, i64 0, i64 0, i64 0, i32 0, null, metadata !1006, i32 0, null} ; [ DW_TAG_subroutine_type ]
!1006 = metadata !{null, metadata !1007}
!1007 = metadata !{i32 458767, metadata !2, metadata !"", metadata !2, i32 0, i64 32, i64 32, i64 0, i32 64, metadata !994} ; [ DW_TAG_pointer_type ]
!1008 = metadata !{i32 458798, i32 0, metadata !994, metadata !"operator ap_ulong", metadata !"operator ap_ulong", metadata !"_ZNK9conv_cintILi1ELb0ELb1EEcvyEv", metadata !16, i32 1276, metadata !1009, i1 false, i1 false, i32 0, i32 0, null, i1 false} ; [ DW_TAG_subprogram ]
!1009 = metadata !{i32 458773, metadata !2, metadata !"", metadata !2, i32 0, i64 0, i64 0, i64 0, i32 0, null, metadata !1010, i32 0, null} ; [ DW_TAG_subroutine_type ]
!1010 = metadata !{metadata !38, metadata !1011}
!1011 = metadata !{i32 458767, metadata !2, metadata !"", metadata !2, i32 0, i64 32, i64 32, i64 0, i32 64, metadata !1012} ; [ DW_TAG_pointer_type ]
!1012 = metadata !{i32 458790, metadata !2, metadata !"", metadata !2, i32 0, i64 8, i64 8, i64 0, i32 0, metadata !994} ; [ DW_TAG_const_type ]
!1013 = metadata !{i32 458798, i32 0, metadata !991, metadata !"ap_int_base", metadata !"ap_int_base", metadata !"", metadata !16, i32 1341, metadata !1014, i1 false, i1 false, i32 0, i32 0, null, i1 false} ; [ DW_TAG_subprogram ]
!1014 = metadata !{i32 458773, metadata !2, metadata !"", metadata !2, i32 0, i64 0, i64 0, i64 0, i32 0, null, metadata !1015, i32 0, null} ; [ DW_TAG_subroutine_type ]
!1015 = metadata !{null, metadata !1016}
!1016 = metadata !{i32 458767, metadata !2, metadata !"", metadata !2, i32 0, i64 32, i64 32, i64 0, i32 64, metadata !991} ; [ DW_TAG_pointer_type ]
!1017 = metadata !{i32 458798, i32 0, metadata !991, metadata !"ap_int_base", metadata !"ap_int_base", metadata !"", metadata !16, i32 1363, metadata !1018, i1 false, i1 false, i32 0, i32 0, null, i1 false} ; [ DW_TAG_subprogram ]
!1018 = metadata !{i32 458773, metadata !2, metadata !"", metadata !2, i32 0, i64 0, i64 0, i64 0, i32 0, null, metadata !1019, i32 0, null} ; [ DW_TAG_subroutine_type ]
!1019 = metadata !{null, metadata !1016, metadata !50}
!1020 = metadata !{i32 458798, i32 0, metadata !991, metadata !"ap_int_base", metadata !"ap_int_base", metadata !"", metadata !16, i32 1364, metadata !1021, i1 false, i1 false, i32 0, i32 0, null, i1 false} ; [ DW_TAG_subprogram ]
!1021 = metadata !{i32 458773, metadata !2, metadata !"", metadata !2, i32 0, i64 0, i64 0, i64 0, i32 0, null, metadata !1022, i32 0, null} ; [ DW_TAG_subroutine_type ]
!1022 = metadata !{null, metadata !1016, metadata !54}
!1023 = metadata !{i32 458798, i32 0, metadata !991, metadata !"ap_int_base", metadata !"ap_int_base", metadata !"", metadata !16, i32 1365, metadata !1024, i1 false, i1 false, i32 0, i32 0, null, i1 false} ; [ DW_TAG_subprogram ]
!1024 = metadata !{i32 458773, metadata !2, metadata !"", metadata !2, i32 0, i64 0, i64 0, i64 0, i32 0, null, metadata !1025, i32 0, null} ; [ DW_TAG_subroutine_type ]
!1025 = metadata !{null, metadata !1016, metadata !58}
!1026 = metadata !{i32 458798, i32 0, metadata !991, metadata !"ap_int_base", metadata !"ap_int_base", metadata !"", metadata !16, i32 1366, metadata !1027, i1 false, i1 false, i32 0, i32 0, null, i1 false} ; [ DW_TAG_subprogram ]
!1027 = metadata !{i32 458773, metadata !2, metadata !"", metadata !2, i32 0, i64 0, i64 0, i64 0, i32 0, null, metadata !1028, i32 0, null} ; [ DW_TAG_subroutine_type ]
!1028 = metadata !{null, metadata !1016, metadata !62}
!1029 = metadata !{i32 458798, i32 0, metadata !991, metadata !"ap_int_base", metadata !"ap_int_base", metadata !"", metadata !16, i32 1367, metadata !1030, i1 false, i1 false, i32 0, i32 0, null, i1 false} ; [ DW_TAG_subprogram ]
!1030 = metadata !{i32 458773, metadata !2, metadata !"", metadata !2, i32 0, i64 0, i64 0, i64 0, i32 0, null, metadata !1031, i32 0, null} ; [ DW_TAG_subroutine_type ]
!1031 = metadata !{null, metadata !1016, metadata !66}
!1032 = metadata !{i32 458798, i32 0, metadata !991, metadata !"ap_int_base", metadata !"ap_int_base", metadata !"", metadata !16, i32 1368, metadata !1033, i1 false, i1 false, i32 0, i32 0, null, i1 false} ; [ DW_TAG_subprogram ]
!1033 = metadata !{i32 458773, metadata !2, metadata !"", metadata !2, i32 0, i64 0, i64 0, i64 0, i32 0, null, metadata !1034, i32 0, null} ; [ DW_TAG_subroutine_type ]
!1034 = metadata !{null, metadata !1016, metadata !70}
!1035 = metadata !{i32 458798, i32 0, metadata !991, metadata !"ap_int_base", metadata !"ap_int_base", metadata !"", metadata !16, i32 1369, metadata !1036, i1 false, i1 false, i32 0, i32 0, null, i1 false} ; [ DW_TAG_subprogram ]
!1036 = metadata !{i32 458773, metadata !2, metadata !"", metadata !2, i32 0, i64 0, i64 0, i64 0, i32 0, null, metadata !1037, i32 0, null} ; [ DW_TAG_subroutine_type ]
!1037 = metadata !{null, metadata !1016, metadata !74}
!1038 = metadata !{i32 458798, i32 0, metadata !991, metadata !"ap_int_base", metadata !"ap_int_base", metadata !"", metadata !16, i32 1370, metadata !1039, i1 false, i1 false, i32 0, i32 0, null, i1 false} ; [ DW_TAG_subprogram ]
!1039 = metadata !{i32 458773, metadata !2, metadata !"", metadata !2, i32 0, i64 0, i64 0, i64 0, i32 0, null, metadata !1040, i32 0, null} ; [ DW_TAG_subroutine_type ]
!1040 = metadata !{null, metadata !1016, metadata !78}
!1041 = metadata !{i32 458798, i32 0, metadata !991, metadata !"ap_int_base", metadata !"ap_int_base", metadata !"", metadata !16, i32 1371, metadata !1042, i1 false, i1 false, i32 0, i32 0, null, i1 false} ; [ DW_TAG_subprogram ]
!1042 = metadata !{i32 458773, metadata !2, metadata !"", metadata !2, i32 0, i64 0, i64 0, i64 0, i32 0, null, metadata !1043, i32 0, null} ; [ DW_TAG_subroutine_type ]
!1043 = metadata !{null, metadata !1016, metadata !82}
!1044 = metadata !{i32 458798, i32 0, metadata !991, metadata !"ap_int_base", metadata !"ap_int_base", metadata !"", metadata !16, i32 1372, metadata !1045, i1 false, i1 false, i32 0, i32 0, null, i1 false} ; [ DW_TAG_subprogram ]
!1045 = metadata !{i32 458773, metadata !2, metadata !"", metadata !2, i32 0, i64 0, i64 0, i64 0, i32 0, null, metadata !1046, i32 0, null} ; [ DW_TAG_subroutine_type ]
!1046 = metadata !{null, metadata !1016, metadata !86}
!1047 = metadata !{i32 458798, i32 0, metadata !991, metadata !"ap_int_base", metadata !"ap_int_base", metadata !"", metadata !16, i32 1373, metadata !1048, i1 false, i1 false, i32 0, i32 0, null, i1 false} ; [ DW_TAG_subprogram ]
!1048 = metadata !{i32 458773, metadata !2, metadata !"", metadata !2, i32 0, i64 0, i64 0, i64 0, i32 0, null, metadata !1049, i32 0, null} ; [ DW_TAG_subroutine_type ]
!1049 = metadata !{null, metadata !1016, metadata !40}
!1050 = metadata !{i32 458798, i32 0, metadata !991, metadata !"ap_int_base", metadata !"ap_int_base", metadata !"", metadata !16, i32 1374, metadata !1051, i1 false, i1 false, i32 0, i32 0, null, i1 false} ; [ DW_TAG_subprogram ]
!1051 = metadata !{i32 458773, metadata !2, metadata !"", metadata !2, i32 0, i64 0, i64 0, i64 0, i32 0, null, metadata !1052, i32 0, null} ; [ DW_TAG_subroutine_type ]
!1052 = metadata !{null, metadata !1016, metadata !93}
!1053 = metadata !{i32 458798, i32 0, metadata !991, metadata !"ap_int_base", metadata !"ap_int_base", metadata !"", metadata !16, i32 1375, metadata !1054, i1 false, i1 false, i32 0, i32 0, null, i1 false} ; [ DW_TAG_subprogram ]
!1054 = metadata !{i32 458773, metadata !2, metadata !"", metadata !2, i32 0, i64 0, i64 0, i64 0, i32 0, null, metadata !1055, i32 0, null} ; [ DW_TAG_subroutine_type ]
!1055 = metadata !{null, metadata !1016, metadata !97}
!1056 = metadata !{i32 458798, i32 0, metadata !991, metadata !"ap_int_base", metadata !"ap_int_base", metadata !"", metadata !16, i32 1402, metadata !1057, i1 false, i1 false, i32 0, i32 0, null, i1 false} ; [ DW_TAG_subprogram ]
!1057 = metadata !{i32 458773, metadata !2, metadata !"", metadata !2, i32 0, i64 0, i64 0, i64 0, i32 0, null, metadata !1058, i32 0, null} ; [ DW_TAG_subroutine_type ]
!1058 = metadata !{null, metadata !1016, metadata !101}
!1059 = metadata !{i32 458798, i32 0, metadata !991, metadata !"ap_int_base", metadata !"ap_int_base", metadata !"", metadata !16, i32 1408, metadata !1060, i1 false, i1 false, i32 0, i32 0, null, i1 false} ; [ DW_TAG_subprogram ]
!1060 = metadata !{i32 458773, metadata !2, metadata !"", metadata !2, i32 0, i64 0, i64 0, i64 0, i32 0, null, metadata !1061, i32 0, null} ; [ DW_TAG_subroutine_type ]
!1061 = metadata !{null, metadata !1016, metadata !101, metadata !54}
!1062 = metadata !{i32 458798, i32 0, metadata !991, metadata !"read", metadata !"read", metadata !"_ZNV11ap_int_baseILi1ELb0EE4readEv", metadata !16, i32 1428, metadata !1063, i1 false, i1 false, i32 0, i32 0, null, i1 false} ; [ DW_TAG_subprogram ]
!1063 = metadata !{i32 458773, metadata !2, metadata !"", metadata !2, i32 0, i64 0, i64 0, i64 0, i32 0, null, metadata !1064, i32 0, null} ; [ DW_TAG_subroutine_type ]
!1064 = metadata !{metadata !991, metadata !1065}
!1065 = metadata !{i32 458767, metadata !2, metadata !"", metadata !2, i32 0, i64 32, i64 32, i64 0, i32 64, metadata !1066} ; [ DW_TAG_pointer_type ]
!1066 = metadata !{i32 458805, metadata !2, metadata !"", metadata !2, i32 0, i64 8, i64 8, i64 0, i32 0, metadata !991} ; [ DW_TAG_volatile_type ]
!1067 = metadata !{i32 458798, i32 0, metadata !991, metadata !"write", metadata !"write", metadata !"_ZNV11ap_int_baseILi1ELb0EE5writeERKS0_", metadata !16, i32 1434, metadata !1068, i1 false, i1 false, i32 0, i32 0, null, i1 false} ; [ DW_TAG_subprogram ]
!1068 = metadata !{i32 458773, metadata !2, metadata !"", metadata !2, i32 0, i64 0, i64 0, i64 0, i32 0, null, metadata !1069, i32 0, null} ; [ DW_TAG_subroutine_type ]
!1069 = metadata !{null, metadata !1065, metadata !1070}
!1070 = metadata !{i32 458768, metadata !2, metadata !"", metadata !2, i32 0, i64 32, i64 32, i64 0, i32 0, metadata !1071} ; [ DW_TAG_reference_type ]
!1071 = metadata !{i32 458790, metadata !2, metadata !"", metadata !2, i32 0, i64 8, i64 8, i64 0, i32 0, metadata !991} ; [ DW_TAG_const_type ]
!1072 = metadata !{i32 458798, i32 0, metadata !991, metadata !"operator=", metadata !"operator=", metadata !"_ZNV11ap_int_baseILi1ELb0EEaSERVKS0_", metadata !16, i32 1446, metadata !1073, i1 false, i1 false, i32 0, i32 0, null, i1 false} ; [ DW_TAG_subprogram ]
!1073 = metadata !{i32 458773, metadata !2, metadata !"", metadata !2, i32 0, i64 0, i64 0, i64 0, i32 0, null, metadata !1074, i32 0, null} ; [ DW_TAG_subroutine_type ]
!1074 = metadata !{null, metadata !1065, metadata !1075}
!1075 = metadata !{i32 458768, metadata !2, metadata !"", metadata !2, i32 0, i64 32, i64 32, i64 0, i32 0, metadata !1076} ; [ DW_TAG_reference_type ]
!1076 = metadata !{i32 458790, metadata !2, metadata !"", metadata !2, i32 0, i64 8, i64 8, i64 0, i32 0, metadata !1066} ; [ DW_TAG_const_type ]
!1077 = metadata !{i32 458798, i32 0, metadata !991, metadata !"operator=", metadata !"operator=", metadata !"_ZNV11ap_int_baseILi1ELb0EEaSERKS0_", metadata !16, i32 1455, metadata !1068, i1 false, i1 false, i32 0, i32 0, null, i1 false} ; [ DW_TAG_subprogram ]
!1078 = metadata !{i32 458798, i32 0, metadata !991, metadata !"operator=", metadata !"operator=", metadata !"_ZN11ap_int_baseILi1ELb0EEaSERVKS0_", metadata !16, i32 1478, metadata !1079, i1 false, i1 false, i32 0, i32 0, null, i1 false} ; [ DW_TAG_subprogram ]
!1079 = metadata !{i32 458773, metadata !2, metadata !"", metadata !2, i32 0, i64 0, i64 0, i64 0, i32 0, null, metadata !1080, i32 0, null} ; [ DW_TAG_subroutine_type ]
!1080 = metadata !{metadata !1081, metadata !1016, metadata !1075}
!1081 = metadata !{i32 458768, metadata !2, metadata !"ap_int_base<1,false>", metadata !2, i32 0, i64 32, i64 32, i64 0, i32 0, metadata !991} ; [ DW_TAG_reference_type ]
