; ModuleID = 'C:/WORK/sobel_variable/axi_sobel/axi_sobel/sobel_rd_prj/solution1/.autopilot/db/a.o.3.bc'
target datalayout = "e-p:32:32:32-i1:8:8-i8:8:8-i16:16:16-i32:32:32-i64:64:64-f32:32:32-f64:64:64-v64:64:64-v128:128:128-a0:0:64-f80:32:32-n8:16:32"
target triple = "i386-pc-mingw32"

%sobel_operator_ret = type { i8, i8, i8 }
%struct.RGB = type { %"struct.ap_uint<8>", %"struct.ap_uint<8>", %"struct.ap_uint<8>" }
%"struct.ap_axiu<32,1,1,1>" = type { %"struct.ap_uint<32>", %"struct.ap_uint<4>", %"struct.ap_uint<1>", %"struct.ap_uint<1>", %"struct.ap_uint<1>" }
%"struct.ap_int_base<1,false>" = type { %"struct.conv_cint<1,false,true>" }
%"struct.ap_int_base<32,false>" = type { %"struct.conv_cint<32,false,true>" }
%"struct.ap_int_base<4,false>" = type { %"struct.conv_cint<4,false,true>" }
%"struct.ap_int_base<8,false>" = type { %"struct.conv_cint<8,false,true>" }
%"struct.ap_uint<1>" = type { %"struct.ap_int_base<1,false>" }
%"struct.ap_uint<32>" = type { %"struct.ap_int_base<32,false>" }
%"struct.ap_uint<4>" = type { %"struct.ap_int_base<4,false>" }
%"struct.ap_uint<8>" = type { %"struct.ap_int_base<8,false>" }
%"struct.ap_window<unsigned char,3,3>" = type { [3 x [3 x i8]] }
%"struct.conv_cint<1,false,true>" = type { %"struct.ssdm_int<1,false>" }
%"struct.conv_cint<32,false,true>" = type { %"struct.ssdm_int<32,false>" }
%"struct.conv_cint<4,false,true>" = type { %"struct.ssdm_int<4,false>" }
%"struct.conv_cint<8,false,true>" = type { %"struct.ssdm_int<8,false>" }
%"struct.ssdm_int<1,false>" = type { i1 }
%"struct.ssdm_int<32,false>" = type { i32 }
%"struct.ssdm_int<4,false>" = type { i4 }
%"struct.ssdm_int<8,false>" = type { i8 }
%"struct.std::ios_base::Init" = type <{ i8 }>

@p_str20 = private constant [1 x i8] zeroinitializer, align 1 ; <[1 x i8]*> [#uses=32]
@p_str24 = private constant [14 x i8] c"aesl_label_11\00", align 1 ; <[14 x i8]*> [#uses=2]
@p_str25 = private constant [14 x i8] c"aesl_label_10\00", align 1 ; <[14 x i8]*> [#uses=2]
@p_str26 = private constant [8 x i8] c"ap_fifo\00", align 1 ; <[8 x i8]*> [#uses=2]
@p_str27 = private constant [5 x i8] c"AXIS\00", align 1 ; <[5 x i8]*> [#uses=4]
@p_str28 = private constant [25 x i8] c"-bus_bundle INPUT_STREAM\00", align 1 ; <[25 x i8]*> [#uses=1]
@p_str29 = private constant [126 x i8] c"{inter_pix_data_V TDATA} {inter_pix_strb_V TSTRB} {inter_pix_user_V TUSER} {inter_pix_last_V TLAST} {inter_pix_tdest_V TDEST}\00", align 4 ; <[126 x i8]*> [#uses=1]
@p_str30 = private constant [14 x i8] c"aesl_label_13\00", align 1 ; <[14 x i8]*> [#uses=2]
@p_str31 = private constant [14 x i8] c"aesl_label_12\00", align 1 ; <[14 x i8]*> [#uses=2]
@p_str32 = private constant [26 x i8] c"-bus_bundle OUTPUT_STREAM\00", align 1 ; <[26 x i8]*> [#uses=1]
@p_str33 = private constant [116 x i8] c"{out_pix_data_V TDATA} {out_pix_strb_V TSTRB} {out_pix_user_V TUSER} {out_pix_last_V TLAST} {out_pix_tdest_V TDEST}\00", align 4 ; <[116 x i8]*> [#uses=1]
@p_str34 = private constant [14 x i8] c"aesl_label_14\00", align 1 ; <[14 x i8]*> [#uses=2]
@p_str35 = private constant [8 x i8] c"ap_none\00", align 1 ; <[8 x i8]*> [#uses=2]
@p_str36 = private constant [14 x i8] c"aesl_label_15\00", align 1 ; <[14 x i8]*> [#uses=2]
@p_str37 = private constant [14 x i8] c"aesl_label_16\00", align 1 ; <[14 x i8]*> [#uses=2]
@p_str38 = private constant [10 x i8] c"AXI_SLAVE\00", align 1 ; <[10 x i8]*> [#uses=3]
@p_str39 = private constant [24 x i8] c"-bus_bundle CONTROL_BUS\00", align 1 ; <[24 x i8]*> [#uses=3]
@p_str40 = private constant [14 x i8] c"aesl_label_17\00", align 1 ; <[14 x i8]*> [#uses=2]
@p_str41 = private constant [14 x i8] c"aesl_label_18\00", align 1 ; <[14 x i8]*> [#uses=2]
@p_str42 = private constant [66 x i8] c"{ap_start START} {ap_done DONE} {ap_idle IDLE} {ap_return RETURN}\00", align 4 ; <[66 x i8]*> [#uses=1]
@p_str43 = private constant [14 x i8] c"aesl_label_19\00", align 1 ; <[14 x i8]*> [#uses=2]
@llvm_global_ctors_0 = appending global [1 x i32] [i32 65535] ; <[1 x i32]*> [#uses=0]
@llvm_global_ctors_1 = appending global [1 x void ()*] [void ()* @_GLOBAL__I__Z5rgb2y6ap_rgbILi8ELi8ELi8EE] ; <[1 x void ()*]*> [#uses=0]
@llvm_global_dtors_0 = appending global [1 x i32] [i32 65535] ; <[1 x i32]*> [#uses=0]
@llvm_global_dtors_1 = appending global [1 x void ()*] [void ()* @_GLOBAL__D__Z5rgb2y6ap_rgbILi8ELi8ELi8EE] ; <[1 x void ()*]*> [#uses=0]

declare void @llvm.dbg.declare(metadata, metadata) nounwind readnone

define weak void @_ssdm_op_SpecFifo(...) nounwind {
entry:
  ret void
}

define weak void @_ssdm_op_SpecWire(...) nounwind {
entry:
  ret void
}

declare void @_ssdm_SpecDependence(...) nounwind

define weak void @_ssdm_op_SpecPipeline(...) nounwind {
entry:
  ret void
}

declare void @llvm.dbg.value(metadata, i64, metadata) nounwind readnone

declare void @_GLOBAL__I__Z5rgb2y6ap_rgbILi8ELi8ELi8EE() nounwind

declare void @_GLOBAL__D__Z5rgb2y6ap_rgbILi8ELi8ELi8EE() nounwind

define weak i32 @_ssdm_op_SpecRegionBegin(...) {
entry:
  ret i32 0
}

define weak i32 @_ssdm_op_SpecRegionEnd(...) {
entry:
  ret i32 0
}

define weak void @_ssdm_op_SpecIFCore(...) {
entry:
  ret void
}

define weak i8 @_ssdm_op_PartSelect.i8.i32.i32.i32(i32, i32, i32) nounwind readnone {
entry:
  %empty = call i32 @llvm.part.select.i32(i32 %0, i32 %1, i32 %2) ; <i32> [#uses=1]
  %empty_12 = trunc i32 %empty to i8              ; <i8> [#uses=1]
  ret i8 %empty_12
}

define weak i24 @_ssdm_op_BitConcatenate.i24.i8.i8.i8(i8, i8, i8) nounwind readnone {
entry:
  %empty = zext i8 %1 to i16                      ; <i16> [#uses=1]
  %empty_13 = zext i8 %2 to i16                   ; <i16> [#uses=1]
  %empty_14 = shl i16 %empty, 8                   ; <i16> [#uses=1]
  %empty_15 = or i16 %empty_14, %empty_13         ; <i16> [#uses=1]
  %empty_16 = zext i8 %0 to i24                   ; <i24> [#uses=1]
  %empty_17 = zext i16 %empty_15 to i24           ; <i24> [#uses=1]
  %empty_18 = shl i24 %empty_16, 16               ; <i24> [#uses=1]
  %empty_19 = or i24 %empty_18, %empty_17         ; <i24> [#uses=1]
  ret i24 %empty_19
}

define void @sobel_filter(i32* %inter_pix_data_V, i4* %inter_pix_strb_V, i1* %inter_pix_user_V, i1* %inter_pix_last_V, i1* %inter_pix_tdest_V, i32* %out_pix_data_V, i4* %out_pix_strb_V, i1* %out_pix_user_V, i1* %out_pix_last_V, i1* %out_pix_tdest_V, i32 %rows, i32 %cols) nounwind {
entry:
  %temp = alloca i8                               ; <i8*> [#uses=2]
  call void @llvm.dbg.declare(metadata !{i8* %temp}, metadata !362)
  %tempx_B_V = alloca i8                          ; <i8*> [#uses=2]
  call void @llvm.dbg.declare(metadata !{i8* %tempx_B_V}, metadata !1284)
  %tempx_G_V = alloca i8                          ; <i8*> [#uses=2]
  call void @llvm.dbg.declare(metadata !{i8* %tempx_G_V}, metadata !1296)
  %tempx_R_V = alloca i8                          ; <i8*> [#uses=2]
  call void @llvm.dbg.declare(metadata !{i8* %tempx_R_V}, metadata !1297)
  %buff_C_M_2_2 = alloca i8                       ; <i8*> [#uses=3]
  call void @llvm.dbg.declare(metadata !{i8* %buff_C_M_2_2}, metadata !1298)
  %buff_C_M_0_1 = alloca i8                       ; <i8*> [#uses=2]
  call void @llvm.dbg.declare(metadata !{i8* %buff_C_M_0_1}, metadata !1302)
  %buff_C_M_0_2 = alloca i8                       ; <i8*> [#uses=2]
  call void @llvm.dbg.declare(metadata !{i8* %buff_C_M_0_2}, metadata !1303)
  %buff_C_M_2_1 = alloca i8                       ; <i8*> [#uses=2]
  call void @llvm.dbg.declare(metadata !{i8* %buff_C_M_2_1}, metadata !1304)
  %buff_C_M_1_1 = alloca i8                       ; <i8*> [#uses=2]
  call void @llvm.dbg.declare(metadata !{i8* %buff_C_M_1_1}, metadata !1305)
  %buff_C_M_1_2 = alloca i8                       ; <i8*> [#uses=2]
  call void @llvm.dbg.declare(metadata !{i8* %buff_C_M_1_2}, metadata !1306)
  %cols_read = call i32 @_ssdm_op_WireRead.i32(i32 %cols) nounwind ; <i32> [#uses=4]
  call void @llvm.dbg.value(metadata !{i32 %cols_read}, i64 0, metadata !1307)
  %rows_read = call i32 @_ssdm_op_WireRead.i32(i32 %rows) nounwind ; <i32> [#uses=3]
  call void @llvm.dbg.value(metadata !{i32 %rows_read}, i64 0, metadata !1308)
  %buff_A_M_0 = alloca [1920 x i8], align 1       ; <[1920 x i8]*> [#uses=2]
  %buff_A_M_1 = alloca [1920 x i8], align 1       ; <[1920 x i8]*> [#uses=1]
  %buff_A_M_2 = alloca [1920 x i8], align 1       ; <[1920 x i8]*> [#uses=2]
  call void @llvm.dbg.value(metadata !{i32* %inter_pix_data_V}, i64 0, metadata !1309)
  call void @llvm.dbg.value(metadata !{i4* %inter_pix_strb_V}, i64 0, metadata !1324)
  call void @llvm.dbg.value(metadata !{i1* %inter_pix_user_V}, i64 0, metadata !1336)
  call void @llvm.dbg.value(metadata !{i1* %inter_pix_last_V}, i64 0, metadata !1348)
  call void @llvm.dbg.value(metadata !{i1* %inter_pix_tdest_V}, i64 0, metadata !1349)
  call void @llvm.dbg.value(metadata !{i32* %out_pix_data_V}, i64 0, metadata !1350)
  call void @llvm.dbg.value(metadata !{i4* %out_pix_strb_V}, i64 0, metadata !1352)
  call void @llvm.dbg.value(metadata !{i1* %out_pix_user_V}, i64 0, metadata !1353)
  call void @llvm.dbg.value(metadata !{i1* %out_pix_last_V}, i64 0, metadata !1354)
  call void @llvm.dbg.value(metadata !{i1* %out_pix_tdest_V}, i64 0, metadata !1355)
  call void @llvm.dbg.value(metadata !{i32 %rows}, i64 0, metadata !1308)
  call void @llvm.dbg.value(metadata !{i32 %cols}, i64 0, metadata !1307)
  call void @llvm.dbg.declare(metadata !{[1920 x i8]* %buff_A_M_0}, metadata !1356), !dbg !1386
  call void @llvm.dbg.declare(metadata !{[1920 x i8]* %buff_A_M_1}, metadata !1387), !dbg !1386
  call void @llvm.dbg.declare(metadata !{[1920 x i8]* %buff_A_M_2}, metadata !1388), !dbg !1386
  %tmp_1 = call i32 (...)* @_ssdm_op_SpecRegionBegin([14 x i8]* @p_str24) nounwind, !dbg !1389 ; <i32> [#uses=1]
  %tmp_2 = call i32 (...)* @_ssdm_op_SpecRegionBegin([14 x i8]* @p_str25) nounwind, !dbg !1389 ; <i32> [#uses=1]
  call void (...)* @_ssdm_op_SpecFifo(i32* %inter_pix_data_V, i4* %inter_pix_strb_V, i1* %inter_pix_user_V, i1* %inter_pix_last_V, i1* %inter_pix_tdest_V, [8 x i8]* @p_str26, [1 x i8]* @p_str20), !dbg !1389
  %empty = call i32 (...)* @_ssdm_op_SpecRegionEnd([14 x i8]* @p_str25, i32 %tmp_2) nounwind, !dbg !1389 ; <i32> [#uses=0]
  call void (...)* @_ssdm_op_SpecIFCore(i32* %inter_pix_data_V, i4* %inter_pix_strb_V, i1* %inter_pix_user_V, i1* %inter_pix_last_V, i1* %inter_pix_tdest_V, [1 x i8]* @p_str20, [5 x i8]* @p_str27, [1 x i8]* @p_str20, [1 x i8]* @p_str20, [1 x i8]* @p_str20, [25 x i8]* @p_str28) nounwind, !dbg !1389
  call void (...)* @_ssdm_op_SpecIFCore(i32* %inter_pix_data_V, i4* %inter_pix_strb_V, i1* %inter_pix_user_V, i1* %inter_pix_last_V, i1* %inter_pix_tdest_V, [1 x i8]* @p_str20, [5 x i8]* @p_str27, [1 x i8]* @p_str20, [1 x i8]* @p_str20, [126 x i8]* @p_str29, [1 x i8]* @p_str20) nounwind, !dbg !1389
  %empty_20 = call i32 (...)* @_ssdm_op_SpecRegionEnd([14 x i8]* @p_str24, i32 %tmp_1) nounwind, !dbg !1389 ; <i32> [#uses=0]
  %tmp_3 = call i32 (...)* @_ssdm_op_SpecRegionBegin([14 x i8]* @p_str30) nounwind, !dbg !1390 ; <i32> [#uses=1]
  %tmp_4 = call i32 (...)* @_ssdm_op_SpecRegionBegin([14 x i8]* @p_str31) nounwind, !dbg !1390 ; <i32> [#uses=1]
  call void (...)* @_ssdm_op_SpecFifo(i32* %out_pix_data_V, i4* %out_pix_strb_V, i1* %out_pix_user_V, i1* %out_pix_last_V, i1* %out_pix_tdest_V, [8 x i8]* @p_str26, [1 x i8]* @p_str20), !dbg !1390
  %empty_21 = call i32 (...)* @_ssdm_op_SpecRegionEnd([14 x i8]* @p_str31, i32 %tmp_4) nounwind, !dbg !1390 ; <i32> [#uses=0]
  call void (...)* @_ssdm_op_SpecIFCore(i32* %out_pix_data_V, i4* %out_pix_strb_V, i1* %out_pix_user_V, i1* %out_pix_last_V, i1* %out_pix_tdest_V, [1 x i8]* @p_str20, [5 x i8]* @p_str27, [1 x i8]* @p_str20, [1 x i8]* @p_str20, [1 x i8]* @p_str20, [26 x i8]* @p_str32) nounwind, !dbg !1390
  call void (...)* @_ssdm_op_SpecIFCore(i32* %out_pix_data_V, i4* %out_pix_strb_V, i1* %out_pix_user_V, i1* %out_pix_last_V, i1* %out_pix_tdest_V, [1 x i8]* @p_str20, [5 x i8]* @p_str27, [1 x i8]* @p_str20, [1 x i8]* @p_str20, [116 x i8]* @p_str33, [1 x i8]* @p_str20) nounwind, !dbg !1390
  %empty_22 = call i32 (...)* @_ssdm_op_SpecRegionEnd([14 x i8]* @p_str30, i32 %tmp_3) nounwind, !dbg !1390 ; <i32> [#uses=0]
  %tmp_5 = call i32 (...)* @_ssdm_op_SpecRegionBegin([14 x i8]* @p_str34) nounwind, !dbg !1391 ; <i32> [#uses=1]
  call void (...)* @_ssdm_op_SpecWire(i32 %rows, [8 x i8]* @p_str35, [1 x i8]* @p_str20) nounwind, !dbg !1391
  %empty_23 = call i32 (...)* @_ssdm_op_SpecRegionEnd([14 x i8]* @p_str34, i32 %tmp_5) nounwind, !dbg !1391 ; <i32> [#uses=0]
  %tmp_8 = call i32 (...)* @_ssdm_op_SpecRegionBegin([14 x i8]* @p_str36) nounwind, !dbg !1392 ; <i32> [#uses=1]
  call void (...)* @_ssdm_op_SpecWire(i32 %cols, [8 x i8]* @p_str35, [1 x i8]* @p_str20) nounwind, !dbg !1392
  %empty_24 = call i32 (...)* @_ssdm_op_SpecRegionEnd([14 x i8]* @p_str36, i32 %tmp_8) nounwind, !dbg !1392 ; <i32> [#uses=0]
  %tmp_9 = call i32 (...)* @_ssdm_op_SpecRegionBegin([14 x i8]* @p_str37) nounwind, !dbg !1393 ; <i32> [#uses=1]
  call void (...)* @_ssdm_op_SpecIFCore(i32 %rows, [1 x i8]* @p_str20, [10 x i8]* @p_str38, [1 x i8]* @p_str20, [1 x i8]* @p_str20, [1 x i8]* @p_str20, [24 x i8]* @p_str39) nounwind, !dbg !1393
  %empty_25 = call i32 (...)* @_ssdm_op_SpecRegionEnd([14 x i8]* @p_str37, i32 %tmp_9) nounwind, !dbg !1393 ; <i32> [#uses=0]
  %tmp_6 = call i32 (...)* @_ssdm_op_SpecRegionBegin([14 x i8]* @p_str40) nounwind, !dbg !1394 ; <i32> [#uses=1]
  call void (...)* @_ssdm_op_SpecIFCore(i32 %cols, [1 x i8]* @p_str20, [10 x i8]* @p_str38, [1 x i8]* @p_str20, [1 x i8]* @p_str20, [1 x i8]* @p_str20, [24 x i8]* @p_str39) nounwind, !dbg !1394
  %empty_26 = call i32 (...)* @_ssdm_op_SpecRegionEnd([14 x i8]* @p_str40, i32 %tmp_6) nounwind, !dbg !1394 ; <i32> [#uses=0]
  %tmp_10 = call i32 (...)* @_ssdm_op_SpecRegionBegin([14 x i8]* @p_str41) nounwind, !dbg !1395 ; <i32> [#uses=1]
  call void (...)* @_ssdm_op_SpecIFCore(i32 0, [1 x i8]* @p_str20, [10 x i8]* @p_str38, [1 x i8]* @p_str20, [1 x i8]* @p_str20, [66 x i8]* @p_str42, [24 x i8]* @p_str39) nounwind, !dbg !1395
  %empty_27 = call i32 (...)* @_ssdm_op_SpecRegionEnd([14 x i8]* @p_str41, i32 %tmp_10) nounwind, !dbg !1395 ; <i32> [#uses=0]
  call void @llvm.dbg.value(metadata !{i32 0}, i64 0, metadata !1396), !dbg !1397
  %tmp2 = add i32 %cols_read, 1                   ; <i32> [#uses=2]
  %tmp15_cast = trunc i32 %tmp2 to i31            ; <i31> [#uses=1]
  %tmp3 = add i32 %rows_read, 1                   ; <i32> [#uses=2]
  %tmp16_cast = trunc i32 %tmp3 to i31            ; <i31> [#uses=1]
  %tmp1 = icmp sgt i32 %tmp2, 0                   ; <i1> [#uses=1]
  %smax2 = select i1 %tmp1, i31 %tmp15_cast, i31 0 ; <i31> [#uses=1]
  %tmp4 = icmp sgt i32 %tmp3, 0                   ; <i1> [#uses=1]
  %smax = select i1 %tmp4, i31 %tmp16_cast, i31 0 ; <i31> [#uses=1]
  %tmp_14 = add nsw i32 %rows_read, -1, !dbg !1398 ; <i32> [#uses=1]
  %tmp_16 = add nsw i32 %cols_read, -1, !dbg !1398 ; <i32> [#uses=1]
  br label %bb23, !dbg !1397

bb1:                                              ; preds = %bb21
  %tmp_13 = call i32 (...)* @_ssdm_op_SpecRegionBegin([14 x i8]* @p_str43) nounwind, !dbg !1399 ; <i32> [#uses=1]
  call void (...)* @_ssdm_op_SpecPipeline(i32 1, i32 1, i32 1, [1 x i8]* @p_str20) nounwind, !dbg !1400
  %tmp_s = icmp slt i32 %ColIndex_assign_cast, %cols_read, !dbg !1401 ; <i1> [#uses=5]
  br i1 %tmp_s, label %bb.i.0, label %bb3, !dbg !1401

bb.i.0:                                           ; preds = %bb1
  %buff_A_M_1_addr = getelementptr [1920 x i8]* %buff_A_M_1, i32 0, i32 %ColIndex_assign_cast ; <i8*> [#uses=2]
  %buff_A_M_1_load = load i8* %buff_A_M_1_addr, align 1, !dbg !1402 ; <i8> [#uses=1]
  %buff_A_M_2_addr = getelementptr [1920 x i8]* %buff_A_M_2, i32 0, i32 %ColIndex_assign_cast ; <i8*> [#uses=1]
  store i8 %buff_A_M_1_load, i8* %buff_A_M_2_addr, align 1, !dbg !1402
  %buff_A_M_0_addr = getelementptr [1920 x i8]* %buff_A_M_0, i32 0, i32 %ColIndex_assign_cast ; <i8*> [#uses=1]
  %return_value_5 = load i8* %buff_A_M_0_addr, align 1, !dbg !1402 ; <i8> [#uses=2]
  store i8 %return_value_5, i8* %buff_A_M_1_addr, align 1, !dbg !1402
  call void @llvm.dbg.value(metadata !{i32 0}, i64 0, metadata !1406) nounwind
  call void @llvm.dbg.value(metadata !{i31 %col_1}, i64 0, metadata !1407) nounwind
  call void @llvm.dbg.value(metadata !{i8 %return_value_5}, i64 0, metadata !1408) nounwind, !dbg !1411
  call void @llvm.dbg.value(metadata !{i8 %return_value_5}, i64 0, metadata !362), !dbg !1412
  store i8 %return_value_5, i8* %temp, !dbg !1411
  br label %bb3, !dbg !1412

bb3:                                              ; preds = %bb.i.0, %bb1
  %tmp_12 = and i1 %tmp_s, %tmp_11, !dbg !1413    ; <i1> [#uses=1]
  br i1 %tmp_12, label %bb5, label %bb.i463.0_ifconv, !dbg !1413

bb5:                                              ; preds = %bb3
  %input_pixel_data_V = call i32 @_ssdm_op_FifoRead.volatile.i32P(i32* %inter_pix_data_V) nounwind, !dbg !1414 ; <i32> [#uses=3]
  call void @llvm.dbg.value(metadata !{i32 %input_pixel_data_V}, i64 0, metadata !1419), !dbg !1414
  %input_pixel_strb_V_0 = call i4 @_ssdm_op_FifoRead.volatile.i4P(i4* %inter_pix_strb_V) nounwind, !dbg !1421 ; <i4> [#uses=0]
  call void @llvm.dbg.value(metadata !{i4 %input_pixel_strb_V_0}, i64 0, metadata !1423), !dbg !1421
  %input_pixel_user_V_0 = call i1 @_ssdm_op_FifoRead.volatile.i1P(i1* %inter_pix_user_V) nounwind, !dbg !1424 ; <i1> [#uses=0]
  call void @llvm.dbg.value(metadata !{i1 %input_pixel_user_V_0}, i64 0, metadata !1426), !dbg !1424
  %input_pixel_last_V_0 = call i1 @_ssdm_op_FifoRead.volatile.i1P(i1* %inter_pix_last_V) nounwind, !dbg !1424 ; <i1> [#uses=0]
  call void @llvm.dbg.value(metadata !{i1 %input_pixel_last_V_0}, i64 0, metadata !1427), !dbg !1424
  %input_pixel_tdest_V_0 = call i1 @_ssdm_op_FifoRead.volatile.i1P(i1* %inter_pix_tdest_V) nounwind, !dbg !1424 ; <i1> [#uses=0]
  call void @llvm.dbg.value(metadata !{i1 %input_pixel_tdest_V_0}, i64 0, metadata !1428), !dbg !1424
  call void @llvm.dbg.value(metadata !1429, i64 0, metadata !1430)
  call void @llvm.dbg.value(metadata !{i32 0}, i64 0, metadata !1431)
  call void @llvm.dbg.value(metadata !1429, i64 0, metadata !1432)
  call void @llvm.dbg.value(metadata !{i32 0}, i64 0, metadata !1434)
  call void @llvm.dbg.value(metadata !{i32 0}, i64 0, metadata !1435), !dbg !1439
  call void @llvm.dbg.value(metadata !{i32 %input_pixel_data_V}, i64 0, metadata !1451), !dbg !1439
  %new_pix_B_V = trunc i32 %input_pixel_data_V to i8, !dbg !1439 ; <i8> [#uses=2]
  call void @llvm.dbg.value(metadata !{i8 %new_pix_B_V}, i64 0, metadata !1452), !dbg !1454
  call void @llvm.dbg.value(metadata !1456, i64 0, metadata !1430)
  call void @llvm.dbg.value(metadata !{i32 8}, i64 0, metadata !1431)
  call void @llvm.dbg.value(metadata !1456, i64 0, metadata !1432)
  call void @llvm.dbg.value(metadata !{i32 8}, i64 0, metadata !1434)
  call void @llvm.dbg.value(metadata !{i32 0}, i64 0, metadata !1435), !dbg !1457
  call void @llvm.dbg.value(metadata !{i32 %input_pixel_data_V}, i64 0, metadata !1451), !dbg !1457
  %new_pix_G_V = call i8 @_ssdm_op_PartSelect.i8.i32.i32.i32(i32 %input_pixel_data_V, i32 8, i32 15), !dbg !1457 ; <i8> [#uses=3]
  call void @llvm.dbg.value(metadata !{i8 %new_pix_G_V}, i64 0, metadata !1461), !dbg !1462
  call void @llvm.dbg.value(metadata !1463, i64 0, metadata !1430)
  call void @llvm.dbg.value(metadata !1464, i64 0, metadata !1431)
  call void @llvm.dbg.value(metadata !1463, i64 0, metadata !1432)
  call void @llvm.dbg.value(metadata !1464, i64 0, metadata !1434)
  call void @llvm.dbg.value(metadata !{i32 0}, i64 0, metadata !1435), !dbg !1465
  call void @llvm.dbg.value(metadata !{i32 %input_pixel_data_V}, i64 0, metadata !1451), !dbg !1465
  %new_pix_R_V = call i8 @_ssdm_op_PartSelect.i8.i32.i32.i32(i32 %input_pixel_data_V, i32 16, i32 23), !dbg !1465 ; <i8> [#uses=3]
  call void @llvm.dbg.value(metadata !{i8 %new_pix_R_V}, i64 0, metadata !1469), !dbg !1470
  call void @llvm.dbg.value(metadata !{i8 %new_pix_B_V}, i64 0, metadata !1284), !dbg !1471
  call void @llvm.dbg.value(metadata !{i8 %new_pix_G_V}, i64 0, metadata !1296), !dbg !1471
  call void @llvm.dbg.value(metadata !{i8 %new_pix_R_V}, i64 0, metadata !1297), !dbg !1471
  call void @llvm.dbg.value(metadata !{i8 %new_pix_B_V}, i64 0, metadata !1474), !dbg !1479
  call void @llvm.dbg.value(metadata !{i8 %new_pix_G_V}, i64 0, metadata !1481), !dbg !1479
  call void @llvm.dbg.value(metadata !{i8 %new_pix_R_V}, i64 0, metadata !1482), !dbg !1479
  %retval_i_i_cast1 = zext i8 %new_pix_R_V to i9, !dbg !1483 ; <i9> [#uses=1]
  %retval_i_i_cast = zext i8 %new_pix_R_V to i14, !dbg !1483 ; <i14> [#uses=1]
  %p_shl_i = shl i14 %retval_i_i_cast, 6, !dbg !1483 ; <i14> [#uses=1]
  %p_shl_i_cast = zext i14 %p_shl_i to i16, !dbg !1483 ; <i16> [#uses=1]
  %p_shl1_i = shl i9 %retval_i_i_cast1, 1, !dbg !1483 ; <i9> [#uses=1]
  %p_shl1_i_cast = zext i9 %p_shl1_i to i16, !dbg !1483 ; <i16> [#uses=1]
  %retval_i5_i_cast1 = zext i8 %new_pix_G_V to i9, !dbg !1483 ; <i9> [#uses=1]
  %retval_i5_i_cast = zext i8 %new_pix_G_V to i15, !dbg !1483 ; <i15> [#uses=1]
  %p_shl2_i = shl i15 %retval_i5_i_cast, 7, !dbg !1483 ; <i15> [#uses=1]
  %p_shl2_i_cast = zext i15 %p_shl2_i to i16, !dbg !1483 ; <i16> [#uses=1]
  %retval_i2_i_cast = zext i8 %new_pix_B_V to i13, !dbg !1483 ; <i13> [#uses=1]
  %tmp_2_i = mul i13 %retval_i2_i_cast, 25, !dbg !1483 ; <i13> [#uses=1]
  %tmp5 = add i16 %p_shl1_i_cast, %p_shl2_i_cast, !dbg !1483 ; <i16> [#uses=1]
  %tmp = add i16 %tmp5, %p_shl_i_cast, !dbg !1483 ; <i16> [#uses=1]
  %tmp6 = add i9 %retval_i5_i_cast1, 128, !dbg !1483 ; <i9> [#uses=1]
  %tmp31_cast = zext i9 %tmp6 to i13, !dbg !1483  ; <i13> [#uses=1]
  %tmp7 = add i13 %tmp31_cast, %tmp_2_i, !dbg !1483 ; <i13> [#uses=1]
  %tmp30_cast = zext i13 %tmp7 to i16, !dbg !1483 ; <i16> [#uses=1]
  %tmp_5_i = add i16 %tmp30_cast, %tmp, !dbg !1483 ; <i16> [#uses=1]
  %tmp_25 = call i8 @_ssdm_op_PartSelect.i8.i16.i32.i32(i16 %tmp_5_i, i32 8, i32 15), !dbg !1483 ; <i8> [#uses=1]
  %y = add i8 %tmp_25, 16, !dbg !1483             ; <i8> [#uses=1]
  call void @llvm.dbg.value(metadata !{i8 %y}, i64 0, metadata !1486), !dbg !1483
  call void @llvm.dbg.value(metadata !{i8 %y}, i64 0, metadata !1487)
  call void @llvm.dbg.value(metadata !{i31 %col_1}, i64 0, metadata !1488)
  %buff_A_M_0_addr_1 = getelementptr [1920 x i8]* %buff_A_M_0, i32 0, i32 %ColIndex_assign_cast ; <i8*> [#uses=1]
  store i8 %y, i8* %buff_A_M_0_addr_1, align 1, !dbg !1489
  store i8 %new_pix_R_V, i8* %tempx_R_V, !dbg !1470
  store i8 %new_pix_G_V, i8* %tempx_G_V, !dbg !1471
  store i8 %new_pix_B_V, i8* %tempx_B_V, !dbg !1479
  br label %bb.i463.0_ifconv, !dbg !1480

bb.i463.0_ifconv:                                 ; preds = %bb5, %bb3
  %temp_load = load i8* %temp                     ; <i8> [#uses=1]
  %tempx_B_V_2 = load i8* %tempx_B_V              ; <i8> [#uses=1]
  %tempx_G_V_2 = load i8* %tempx_G_V              ; <i8> [#uses=2]
  %tempx_R_V_2 = load i8* %tempx_R_V              ; <i8> [#uses=2]
  %buff_C_M_2_2_load_1 = load i8* %buff_C_M_2_2, !dbg !1491 ; <i8> [#uses=2]
  %buff_C_M_0_1_load = load i8* %buff_C_M_0_1     ; <i8> [#uses=1]
  %buff_C_M_2_1_load = load i8* %buff_C_M_2_1, !dbg !1498 ; <i8> [#uses=1]
  %buff_C_M_1_1_load = load i8* %buff_C_M_1_1, !dbg !1498 ; <i8> [#uses=1]
  call void @llvm.dbg.value(metadata !{i8 %tempx_R_V_2}, i64 0, metadata !1297)
  call void @llvm.dbg.value(metadata !{i8 %tempx_G_V_2}, i64 0, metadata !1296)
  call void @llvm.dbg.value(metadata !{i8 %tempx_B_V_2}, i64 0, metadata !1284)
  call void @llvm.dbg.value(metadata !{i32 0}, i64 0, metadata !1499) nounwind, !dbg !1502
  call void @llvm.dbg.value(metadata !{i32 1}, i64 0, metadata !1499) nounwind, !dbg !1502
  call void @llvm.dbg.value(metadata !{i8 %buff_C_M_0_1_2}, i64 0, metadata !1302), !dbg !1504
  call void @llvm.dbg.value(metadata !{i32 2}, i64 0, metadata !1499) nounwind, !dbg !1502
  call void @llvm.dbg.value(metadata !{i32 1}, i64 0, metadata !1505) nounwind, !dbg !1506
  call void @llvm.dbg.value(metadata !{i32 0}, i64 0, metadata !1499) nounwind, !dbg !1502
  call void @llvm.dbg.value(metadata !{i32 1}, i64 0, metadata !1499) nounwind, !dbg !1502
  call void @llvm.dbg.value(metadata !{i8 %buff_C_M_1_1_1}, i64 0, metadata !1305), !dbg !1504
  call void @llvm.dbg.value(metadata !{i32 2}, i64 0, metadata !1499) nounwind, !dbg !1502
  call void @llvm.dbg.value(metadata !{i32 2}, i64 0, metadata !1505) nounwind, !dbg !1506
  call void @llvm.dbg.value(metadata !{i32 0}, i64 0, metadata !1499) nounwind, !dbg !1502
  call void @llvm.dbg.value(metadata !{i32 1}, i64 0, metadata !1499) nounwind, !dbg !1502
  call void @llvm.dbg.value(metadata !{i32 2}, i64 0, metadata !1499) nounwind, !dbg !1502
  call void @llvm.dbg.value(metadata !{i32 3}, i64 0, metadata !1505) nounwind, !dbg !1506
  call void @llvm.dbg.value(metadata !{i32 2}, i64 0, metadata !1406) nounwind
  call void @llvm.dbg.value(metadata !{i31 %col_1}, i64 0, metadata !1407) nounwind
  %buff_A_M_2_addr_1 = getelementptr [1920 x i8]* %buff_A_M_2, i32 0, i32 %ColIndex_assign_cast ; <i8*> [#uses=1]
  %return_value = load i8* %buff_A_M_2_addr_1, align 1, !dbg !1507 ; <i8> [#uses=1]
  call void @llvm.dbg.value(metadata !{i8 %return_value}, i64 0, metadata !1408) nounwind, !dbg !1507
  call void @llvm.dbg.value(metadata !{i8 %return_value}, i64 0, metadata !1509)
  call void @llvm.dbg.value(metadata !{i32 0}, i64 0, metadata !1510)
  call void @llvm.dbg.value(metadata !{i32 2}, i64 0, metadata !1511)
  call void @llvm.dbg.value(metadata !{i8 %return_value}, i64 0, metadata !1303), !dbg !1512
  call void @llvm.dbg.value(metadata !{i32 1}, i64 0, metadata !1510)
  call void @llvm.dbg.value(metadata !{i32 2}, i64 0, metadata !1511)
  call void @llvm.dbg.value(metadata !{i8 %tempx_B_V_2}, i64 0, metadata !1474), !dbg !1514
  call void @llvm.dbg.value(metadata !{i8 %tempx_G_V_2}, i64 0, metadata !1481), !dbg !1514
  call void @llvm.dbg.value(metadata !{i8 %tempx_R_V_2}, i64 0, metadata !1482), !dbg !1514
  %retval_i_i1_cast1 = zext i8 %tempx_R_V_2 to i9, !dbg !1516 ; <i9> [#uses=1]
  %retval_i_i1_cast = zext i8 %tempx_R_V_2 to i14, !dbg !1516 ; <i14> [#uses=1]
  %p_shl_i1 = shl i14 %retval_i_i1_cast, 6, !dbg !1516 ; <i14> [#uses=1]
  %p_shl_i1_cast = zext i14 %p_shl_i1 to i16, !dbg !1516 ; <i16> [#uses=1]
  %p_shl1_i1 = shl i9 %retval_i_i1_cast1, 1, !dbg !1516 ; <i9> [#uses=1]
  %p_shl1_i1_cast = zext i9 %p_shl1_i1 to i16, !dbg !1516 ; <i16> [#uses=1]
  %retval_i5_i1_cast1 = zext i8 %tempx_G_V_2 to i9, !dbg !1516 ; <i9> [#uses=1]
  %retval_i5_i1_cast = zext i8 %tempx_G_V_2 to i15, !dbg !1516 ; <i15> [#uses=1]
  %p_shl2_i1 = shl i15 %retval_i5_i1_cast, 7, !dbg !1516 ; <i15> [#uses=1]
  %p_shl2_i1_cast = zext i15 %p_shl2_i1 to i16, !dbg !1516 ; <i16> [#uses=1]
  %retval_i2_i1_cast = zext i8 %tempx_B_V_2 to i13, !dbg !1516 ; <i13> [#uses=1]
  %tmp_2_i1 = mul i13 %retval_i2_i1_cast, 25, !dbg !1516 ; <i13> [#uses=1]
  %tmp8 = add i16 %p_shl1_i1_cast, %p_shl2_i1_cast, !dbg !1516 ; <i16> [#uses=1]
  %tmp9 = add i16 %tmp8, %p_shl_i1_cast, !dbg !1516 ; <i16> [#uses=1]
  %tmp10 = add i9 %retval_i5_i1_cast1, 128, !dbg !1516 ; <i9> [#uses=1]
  %tmp35_cast = zext i9 %tmp10 to i13, !dbg !1516 ; <i13> [#uses=1]
  %tmp11 = add i13 %tmp35_cast, %tmp_2_i1, !dbg !1516 ; <i13> [#uses=1]
  %tmp34_cast = zext i13 %tmp11 to i16, !dbg !1516 ; <i16> [#uses=1]
  %tmp_5_i1 = add i16 %tmp34_cast, %tmp9, !dbg !1516 ; <i16> [#uses=1]
  %tmp_26 = call i8 @_ssdm_op_PartSelect.i8.i16.i32.i32(i16 %tmp_5_i1, i32 8, i32 15), !dbg !1516 ; <i8> [#uses=1]
  %y_2 = add i8 %tmp_26, 16, !dbg !1516           ; <i8> [#uses=1]
  call void @llvm.dbg.value(metadata !{i8 %y_2}, i64 0, metadata !1486), !dbg !1516
  call void @llvm.dbg.value(metadata !{i8 %y_2}, i64 0, metadata !1509)
  call void @llvm.dbg.value(metadata !{i32 2}, i64 0, metadata !1510)
  call void @llvm.dbg.value(metadata !{i32 2}, i64 0, metadata !1511)
  call void @llvm.dbg.value(metadata !{i8 %y_2}, i64 0, metadata !1298), !dbg !1517
  %buff_C_M_1_2_3 = select i1 %tmp_s, i8 %temp_load, i8 %buff_C_M_1_1_1 ; <i8> [#uses=2]
  call void @llvm.dbg.value(metadata !{i8 %buff_C_M_1_2_3}, i64 0, metadata !1306)
  %buff_C_M_0_2_4 = select i1 %tmp_s, i8 %return_value, i8 %buff_C_M_0_1_2 ; <i8> [#uses=2]
  call void @llvm.dbg.value(metadata !{i8 %buff_C_M_0_2_4}, i64 0, metadata !1303)
  %buff_C_M_2_2_3 = select i1 %tmp_s, i8 %y_2, i8 %buff_C_M_2_2_load_1, !dbg !1491 ; <i8> [#uses=2]
  call void @llvm.dbg.value(metadata !{i8 %buff_C_M_2_2_3}, i64 0, metadata !1298)
  call void @llvm.dbg.value(metadata !{i8 %buff_C_M_1_2_3}, i64 0, metadata !1306)
  call void @llvm.dbg.value(metadata !{i8 %buff_C_M_0_2_4}, i64 0, metadata !1303)
  call void @llvm.dbg.value(metadata !{i8 %buff_C_M_2_2_3}, i64 0, metadata !1298)
  %tmp_27 = call i30 @_ssdm_op_PartSelect.i30.i31.i32.i32(i31 %col_1, i32 1, i32 30), !dbg !1398 ; <i30> [#uses=1]
  %icmp7 = icmp ult i30 %tmp_27, 1, !dbg !1398    ; <i1> [#uses=2]
  %or_cond = or i1 %icmp, %icmp7, !dbg !1398      ; <i1> [#uses=2]
  %tmp_17 = icmp slt i32 %tmp_16, %ColIndex_assign_cast, !dbg !1398 ; <i1> [#uses=2]
  call void @llvm.dbg.value(metadata !{i8 0}, i64 0, metadata !1518)
  call void @llvm.dbg.value(metadata !{i8 0}, i64 0, metadata !1521)
  call void @llvm.dbg.value(metadata !{i8 0}, i64 0, metadata !1522)
  call void @llvm.dbg.value(metadata !{i8 %buff_C_M_0_1_2}, i64 0, metadata !1523)
  call void @llvm.dbg.value(metadata !{i8 %buff_C_M_0_2_4}, i64 0, metadata !1525)
  call void @llvm.dbg.value(metadata !{i8* null}, i64 0, metadata !1526)
  call void @llvm.dbg.value(metadata !{i8 %buff_C_M_1_2_3}, i64 0, metadata !1528)
  call void @llvm.dbg.value(metadata !{i8 %buff_C_M_2_2_3}, i64 0, metadata !1529)
  call void @llvm.dbg.value(metadata !{i16 0}, i64 0, metadata !1530), !dbg !1531
  call void @llvm.dbg.value(metadata !{i16 0}, i64 0, metadata !1532), !dbg !1533
  call void @llvm.dbg.value(metadata !{i8 0}, i64 0, metadata !1534)
  call void @llvm.dbg.value(metadata !{i8 0}, i64 0, metadata !1539)
  call void @llvm.dbg.value(metadata !{i8 0}, i64 0, metadata !1540)
  call void @llvm.dbg.value(metadata !{i8 0}, i64 0, metadata !1541), !dbg !1542
  call void @llvm.dbg.value(metadata !{i8 %buff_C_M_0_1_2}, i64 0, metadata !1543)
  call void @llvm.dbg.value(metadata !{i8 %buff_C_M_0_2_4}, i64 0, metadata !1547)
  call void @llvm.dbg.value(metadata !{i8* null}, i64 0, metadata !1548)
  call void @llvm.dbg.value(metadata !{i8 %buff_C_M_1_2_3}, i64 0, metadata !1549)
  call void @llvm.dbg.value(metadata !{i8 %buff_C_M_2_2_3}, i64 0, metadata !1550)
  call void @llvm.dbg.value(metadata !{i32 0}, i64 0, metadata !1551) nounwind
  call void @llvm.dbg.value(metadata !{i32 0}, i64 0, metadata !1552) nounwind
  %y_weight_cast = zext i8 %buff_C_M_0_1_load to i9 ; <i9> [#uses=2]
  call void @llvm.dbg.value(metadata !{i8 %buff_C_M_0_1_2}, i64 0, metadata !1543)
  call void @llvm.dbg.value(metadata !{i8 %buff_C_M_0_2_4}, i64 0, metadata !1547)
  call void @llvm.dbg.value(metadata !{i8* null}, i64 0, metadata !1548)
  call void @llvm.dbg.value(metadata !{i8 %buff_C_M_1_2_3}, i64 0, metadata !1549)
  call void @llvm.dbg.value(metadata !{i8 %buff_C_M_2_2_3}, i64 0, metadata !1550)
  call void @llvm.dbg.value(metadata !{i32 0}, i64 0, metadata !1551) nounwind
  call void @llvm.dbg.value(metadata !{i32 0}, i64 0, metadata !1552) nounwind
  call void @llvm.dbg.value(metadata !{i8 1}, i64 0, metadata !1553), !dbg !1554
  call void @llvm.dbg.value(metadata !{i8 %buff_C_M_0_1_2}, i64 0, metadata !1543)
  call void @llvm.dbg.value(metadata !{i8 %buff_C_M_0_2_4}, i64 0, metadata !1547)
  call void @llvm.dbg.value(metadata !{i8* null}, i64 0, metadata !1548)
  call void @llvm.dbg.value(metadata !{i8 %buff_C_M_1_2_3}, i64 0, metadata !1549)
  call void @llvm.dbg.value(metadata !{i8 %buff_C_M_2_2_3}, i64 0, metadata !1550)
  call void @llvm.dbg.value(metadata !{i32 0}, i64 0, metadata !1551) nounwind
  call void @llvm.dbg.value(metadata !{i32 1}, i64 0, metadata !1552) nounwind
  call void @llvm.dbg.value(metadata !{i8 %buff_C_M_0_1_2}, i64 0, metadata !1555) nounwind, !dbg !1556
  %tmp_1_0_1_i_cast = zext i8 %buff_C_M_0_1_2 to i9 ; <i9> [#uses=1]
  call void @llvm.dbg.value(metadata !{i8 %buff_C_M_0_1_2}, i64 0, metadata !1543)
  call void @llvm.dbg.value(metadata !{i8 %buff_C_M_0_2_4}, i64 0, metadata !1547)
  call void @llvm.dbg.value(metadata !{i8* null}, i64 0, metadata !1548)
  call void @llvm.dbg.value(metadata !{i8 %buff_C_M_1_2_3}, i64 0, metadata !1549)
  call void @llvm.dbg.value(metadata !{i8 %buff_C_M_2_2_3}, i64 0, metadata !1550)
  call void @llvm.dbg.value(metadata !{i32 0}, i64 0, metadata !1551) nounwind
  call void @llvm.dbg.value(metadata !{i32 1}, i64 0, metadata !1552) nounwind
  call void @llvm.dbg.value(metadata !{i8 %buff_C_M_0_1_2}, i64 0, metadata !1555) nounwind, !dbg !1491
  %tmp_5_0_1_i = shl i9 %tmp_1_0_1_i_cast, 1, !dbg !1494 ; <i9> [#uses=1]
  %tmp_5_0_1_i_cast = zext i9 %tmp_5_0_1_i to i10, !dbg !1494 ; <i10> [#uses=1]
  call void @llvm.dbg.value(metadata !{i8 2}, i64 0, metadata !1553), !dbg !1554
  call void @llvm.dbg.value(metadata !{i8 %buff_C_M_0_1_2}, i64 0, metadata !1543)
  call void @llvm.dbg.value(metadata !{i8 %buff_C_M_0_2_4}, i64 0, metadata !1547)
  call void @llvm.dbg.value(metadata !{i8* null}, i64 0, metadata !1548)
  call void @llvm.dbg.value(metadata !{i8 %buff_C_M_1_2_3}, i64 0, metadata !1549)
  call void @llvm.dbg.value(metadata !{i8 %buff_C_M_2_2_3}, i64 0, metadata !1550)
  call void @llvm.dbg.value(metadata !{i32 0}, i64 0, metadata !1551) nounwind
  call void @llvm.dbg.value(metadata !{i32 2}, i64 0, metadata !1552) nounwind
  call void @llvm.dbg.value(metadata !{i8 %buff_C_M_0_2_4}, i64 0, metadata !1555) nounwind, !dbg !1556
  %tmp_1_0_2_i_cast = zext i8 %buff_C_M_0_2_4 to i9, !dbg !1498 ; <i9> [#uses=2]
  %x_weight = sub i9 %tmp_1_0_2_i_cast, %y_weight_cast, !dbg !1498 ; <i9> [#uses=1]
  %x_weight_cast = sext i9 %x_weight to i11, !dbg !1498 ; <i11> [#uses=1]
  call void @llvm.dbg.value(metadata !{i9 %x_weight}, i64 0, metadata !1530)
  call void @llvm.dbg.value(metadata !{i9 %x_weight}, i64 0, metadata !1530)
  call void @llvm.dbg.value(metadata !{i9 %x_weight}, i64 0, metadata !1530)
  call void @llvm.dbg.value(metadata !{i9 %x_weight}, i64 0, metadata !1530), !dbg !1498
  call void @llvm.dbg.value(metadata !{i8 %buff_C_M_0_1_2}, i64 0, metadata !1543)
  call void @llvm.dbg.value(metadata !{i8 %buff_C_M_0_2_4}, i64 0, metadata !1547)
  call void @llvm.dbg.value(metadata !{i8* null}, i64 0, metadata !1548)
  call void @llvm.dbg.value(metadata !{i8 %buff_C_M_1_2_3}, i64 0, metadata !1549)
  call void @llvm.dbg.value(metadata !{i8 %buff_C_M_2_2_3}, i64 0, metadata !1550)
  call void @llvm.dbg.value(metadata !{i32 0}, i64 0, metadata !1551) nounwind
  call void @llvm.dbg.value(metadata !{i32 2}, i64 0, metadata !1552) nounwind
  call void @llvm.dbg.value(metadata !{i8 %buff_C_M_0_2_4}, i64 0, metadata !1555) nounwind, !dbg !1491
  %tmp12 = add i9 %y_weight_cast, %tmp_1_0_2_i_cast, !dbg !1494 ; <i9> [#uses=1]
  %tmp36_cast = zext i9 %tmp12 to i10, !dbg !1494 ; <i10> [#uses=1]
  %y_weight = add i10 %tmp36_cast, %tmp_5_0_1_i_cast, !dbg !1494 ; <i10> [#uses=1]
  %y_weight_2_cast = zext i10 %y_weight to i11, !dbg !1494 ; <i11> [#uses=1]
  call void @llvm.dbg.value(metadata !{i10 %y_weight}, i64 0, metadata !1532)
  call void @llvm.dbg.value(metadata !{i10 %y_weight}, i64 0, metadata !1532)
  call void @llvm.dbg.value(metadata !{i10 %y_weight}, i64 0, metadata !1532)
  call void @llvm.dbg.value(metadata !{i10 %y_weight}, i64 0, metadata !1532)
  call void @llvm.dbg.value(metadata !{i10 %y_weight}, i64 0, metadata !1532)
  call void @llvm.dbg.value(metadata !{i10 %y_weight}, i64 0, metadata !1532)
  call void @llvm.dbg.value(metadata !{i10 %y_weight}, i64 0, metadata !1532)
  call void @llvm.dbg.value(metadata !{i10 %y_weight}, i64 0, metadata !1532)
  call void @llvm.dbg.value(metadata !{i10 %y_weight}, i64 0, metadata !1532), !dbg !1494
  call void @llvm.dbg.value(metadata !{i8 3}, i64 0, metadata !1553), !dbg !1554
  call void @llvm.dbg.value(metadata !{i8 %buff_C_M_0_1_2}, i64 0, metadata !1543)
  call void @llvm.dbg.value(metadata !{i8 %buff_C_M_0_2_4}, i64 0, metadata !1547)
  call void @llvm.dbg.value(metadata !{i8* null}, i64 0, metadata !1548)
  call void @llvm.dbg.value(metadata !{i8 %buff_C_M_1_2_3}, i64 0, metadata !1549)
  call void @llvm.dbg.value(metadata !{i8 %buff_C_M_2_2_3}, i64 0, metadata !1550)
  call void @llvm.dbg.value(metadata !{i32 1}, i64 0, metadata !1551) nounwind
  call void @llvm.dbg.value(metadata !{i32 0}, i64 0, metadata !1552) nounwind
  %tmp_1_1_0_i_cast = zext i8 %buff_C_M_1_1_load to i9, !dbg !1498 ; <i9> [#uses=1]
  %p_shl_i2 = shl i9 %tmp_1_1_0_i_cast, 1, !dbg !1498 ; <i9> [#uses=1]
  %p_shl_i2_cast = zext i9 %p_shl_i2 to i11, !dbg !1498 ; <i11> [#uses=1]
  %x_weight_1 = sub i11 %x_weight_cast, %p_shl_i2_cast, !dbg !1498 ; <i11> [#uses=1]
  call void @llvm.dbg.value(metadata !{i11 %x_weight_1}, i64 0, metadata !1530)
  call void @llvm.dbg.value(metadata !{i11 %x_weight_1}, i64 0, metadata !1530)
  call void @llvm.dbg.value(metadata !{i11 %x_weight_1}, i64 0, metadata !1530), !dbg !1498
  call void @llvm.dbg.value(metadata !{i8 %buff_C_M_0_1_2}, i64 0, metadata !1543)
  call void @llvm.dbg.value(metadata !{i8 %buff_C_M_0_2_4}, i64 0, metadata !1547)
  call void @llvm.dbg.value(metadata !{i8* null}, i64 0, metadata !1548)
  call void @llvm.dbg.value(metadata !{i8 %buff_C_M_1_2_3}, i64 0, metadata !1549)
  call void @llvm.dbg.value(metadata !{i8 %buff_C_M_2_2_3}, i64 0, metadata !1550)
  call void @llvm.dbg.value(metadata !{i32 1}, i64 0, metadata !1551) nounwind
  call void @llvm.dbg.value(metadata !{i32 0}, i64 0, metadata !1552) nounwind
  call void @llvm.dbg.value(metadata !{i10 %y_weight}, i64 0, metadata !1532), !dbg !1494
  call void @llvm.dbg.value(metadata !{i8 1}, i64 0, metadata !1553), !dbg !1554
  call void @llvm.dbg.value(metadata !{i8 %buff_C_M_0_1_2}, i64 0, metadata !1543)
  call void @llvm.dbg.value(metadata !{i8 %buff_C_M_0_2_4}, i64 0, metadata !1547)
  call void @llvm.dbg.value(metadata !{i8* null}, i64 0, metadata !1548)
  call void @llvm.dbg.value(metadata !{i8 %buff_C_M_1_2_3}, i64 0, metadata !1549)
  call void @llvm.dbg.value(metadata !{i8 %buff_C_M_2_2_3}, i64 0, metadata !1550)
  call void @llvm.dbg.value(metadata !{i32 1}, i64 0, metadata !1551) nounwind
  call void @llvm.dbg.value(metadata !{i32 1}, i64 0, metadata !1552) nounwind
  call void @llvm.dbg.value(metadata !{i11 %x_weight_1}, i64 0, metadata !1530), !dbg !1498
  call void @llvm.dbg.value(metadata !{i8 %buff_C_M_0_1_2}, i64 0, metadata !1543)
  call void @llvm.dbg.value(metadata !{i8 %buff_C_M_0_2_4}, i64 0, metadata !1547)
  call void @llvm.dbg.value(metadata !{i8* null}, i64 0, metadata !1548)
  call void @llvm.dbg.value(metadata !{i8 %buff_C_M_1_2_3}, i64 0, metadata !1549)
  call void @llvm.dbg.value(metadata !{i8 %buff_C_M_2_2_3}, i64 0, metadata !1550)
  call void @llvm.dbg.value(metadata !{i32 1}, i64 0, metadata !1551) nounwind
  call void @llvm.dbg.value(metadata !{i32 1}, i64 0, metadata !1552) nounwind
  call void @llvm.dbg.value(metadata !{i10 %y_weight}, i64 0, metadata !1532), !dbg !1494
  call void @llvm.dbg.value(metadata !{i8 2}, i64 0, metadata !1553), !dbg !1554
  call void @llvm.dbg.value(metadata !{i8 %buff_C_M_0_1_2}, i64 0, metadata !1543)
  call void @llvm.dbg.value(metadata !{i8 %buff_C_M_0_2_4}, i64 0, metadata !1547)
  call void @llvm.dbg.value(metadata !{i8* null}, i64 0, metadata !1548)
  call void @llvm.dbg.value(metadata !{i8 %buff_C_M_1_2_3}, i64 0, metadata !1549)
  call void @llvm.dbg.value(metadata !{i8 %buff_C_M_2_2_3}, i64 0, metadata !1550)
  call void @llvm.dbg.value(metadata !{i32 1}, i64 0, metadata !1551) nounwind
  call void @llvm.dbg.value(metadata !{i32 2}, i64 0, metadata !1552) nounwind
  call void @llvm.dbg.value(metadata !{i8 %buff_C_M_1_2_3}, i64 0, metadata !1555) nounwind, !dbg !1556
  %tmp_1_1_2_i_cast = zext i8 %buff_C_M_1_2_3 to i9, !dbg !1498 ; <i9> [#uses=1]
  %tmp_3_1_2_i = shl i9 %tmp_1_1_2_i_cast, 1, !dbg !1498 ; <i9> [#uses=1]
  %tmp_3_1_2_i_cast = zext i9 %tmp_3_1_2_i to i11, !dbg !1498 ; <i11> [#uses=1]
  %x_weight_2 = add i11 %tmp_3_1_2_i_cast, %x_weight_1, !dbg !1498 ; <i11> [#uses=1]
  call void @llvm.dbg.value(metadata !{i11 %x_weight_2}, i64 0, metadata !1530)
  call void @llvm.dbg.value(metadata !{i11 %x_weight_2}, i64 0, metadata !1530)
  call void @llvm.dbg.value(metadata !{i11 %x_weight_2}, i64 0, metadata !1530)
  call void @llvm.dbg.value(metadata !{i11 %x_weight_2}, i64 0, metadata !1530), !dbg !1498
  call void @llvm.dbg.value(metadata !{i8 %buff_C_M_0_1_2}, i64 0, metadata !1543)
  call void @llvm.dbg.value(metadata !{i8 %buff_C_M_0_2_4}, i64 0, metadata !1547)
  call void @llvm.dbg.value(metadata !{i8* null}, i64 0, metadata !1548)
  call void @llvm.dbg.value(metadata !{i8 %buff_C_M_1_2_3}, i64 0, metadata !1549)
  call void @llvm.dbg.value(metadata !{i8 %buff_C_M_2_2_3}, i64 0, metadata !1550)
  call void @llvm.dbg.value(metadata !{i32 1}, i64 0, metadata !1551) nounwind
  call void @llvm.dbg.value(metadata !{i32 2}, i64 0, metadata !1552) nounwind
  call void @llvm.dbg.value(metadata !{i8 %buff_C_M_1_2_3}, i64 0, metadata !1555) nounwind, !dbg !1491
  call void @llvm.dbg.value(metadata !{i10 %y_weight}, i64 0, metadata !1532), !dbg !1494
  call void @llvm.dbg.value(metadata !{i8 3}, i64 0, metadata !1553), !dbg !1554
  call void @llvm.dbg.value(metadata !{i8 %buff_C_M_0_1_2}, i64 0, metadata !1543)
  call void @llvm.dbg.value(metadata !{i8 %buff_C_M_0_2_4}, i64 0, metadata !1547)
  call void @llvm.dbg.value(metadata !{i8* null}, i64 0, metadata !1548)
  call void @llvm.dbg.value(metadata !{i8 %buff_C_M_1_2_3}, i64 0, metadata !1549)
  call void @llvm.dbg.value(metadata !{i8 %buff_C_M_2_2_3}, i64 0, metadata !1550)
  call void @llvm.dbg.value(metadata !{i32 2}, i64 0, metadata !1551) nounwind
  call void @llvm.dbg.value(metadata !{i32 0}, i64 0, metadata !1552) nounwind
  %tmp_1_2_0_i_cast = zext i8 %buff_C_M_2_1_load to i11, !dbg !1498 ; <i11> [#uses=2]
  %x_weight_3 = sub i11 %x_weight_2, %tmp_1_2_0_i_cast, !dbg !1498 ; <i11> [#uses=1]
  call void @llvm.dbg.value(metadata !{i11 %x_weight_3}, i64 0, metadata !1530)
  call void @llvm.dbg.value(metadata !{i11 %x_weight_3}, i64 0, metadata !1530)
  call void @llvm.dbg.value(metadata !{i11 %x_weight_3}, i64 0, metadata !1530), !dbg !1498
  call void @llvm.dbg.value(metadata !{i8 %buff_C_M_0_1_2}, i64 0, metadata !1543)
  call void @llvm.dbg.value(metadata !{i8 %buff_C_M_0_2_4}, i64 0, metadata !1547)
  call void @llvm.dbg.value(metadata !{i8* null}, i64 0, metadata !1548)
  call void @llvm.dbg.value(metadata !{i8 %buff_C_M_1_2_3}, i64 0, metadata !1549)
  call void @llvm.dbg.value(metadata !{i8 %buff_C_M_2_2_3}, i64 0, metadata !1550)
  call void @llvm.dbg.value(metadata !{i32 2}, i64 0, metadata !1551) nounwind
  call void @llvm.dbg.value(metadata !{i32 0}, i64 0, metadata !1552) nounwind
  %y_weight_1 = sub i11 %y_weight_2_cast, %tmp_1_2_0_i_cast, !dbg !1494 ; <i11> [#uses=1]
  call void @llvm.dbg.value(metadata !{i11 %y_weight_1}, i64 0, metadata !1532)
  call void @llvm.dbg.value(metadata !{i11 %y_weight_1}, i64 0, metadata !1532), !dbg !1494
  call void @llvm.dbg.value(metadata !{i8 1}, i64 0, metadata !1553), !dbg !1554
  call void @llvm.dbg.value(metadata !{i8 %buff_C_M_0_1_2}, i64 0, metadata !1543)
  call void @llvm.dbg.value(metadata !{i8 %buff_C_M_0_2_4}, i64 0, metadata !1547)
  call void @llvm.dbg.value(metadata !{i8* null}, i64 0, metadata !1548)
  call void @llvm.dbg.value(metadata !{i8 %buff_C_M_1_2_3}, i64 0, metadata !1549)
  call void @llvm.dbg.value(metadata !{i8 %buff_C_M_2_2_3}, i64 0, metadata !1550)
  call void @llvm.dbg.value(metadata !{i32 2}, i64 0, metadata !1551) nounwind
  call void @llvm.dbg.value(metadata !{i32 1}, i64 0, metadata !1552) nounwind
  %tmp_1_2_1_i_cast = zext i8 %buff_C_M_2_2_load_1 to i9, !dbg !1498 ; <i9> [#uses=1]
  call void @llvm.dbg.value(metadata !{i11 %x_weight_3}, i64 0, metadata !1530), !dbg !1498
  call void @llvm.dbg.value(metadata !{i8 %buff_C_M_0_1_2}, i64 0, metadata !1543)
  call void @llvm.dbg.value(metadata !{i8 %buff_C_M_0_2_4}, i64 0, metadata !1547)
  call void @llvm.dbg.value(metadata !{i8* null}, i64 0, metadata !1548)
  call void @llvm.dbg.value(metadata !{i8 %buff_C_M_1_2_3}, i64 0, metadata !1549)
  call void @llvm.dbg.value(metadata !{i8 %buff_C_M_2_2_3}, i64 0, metadata !1550)
  call void @llvm.dbg.value(metadata !{i32 2}, i64 0, metadata !1551) nounwind
  call void @llvm.dbg.value(metadata !{i32 1}, i64 0, metadata !1552) nounwind
  %p_shl11_i = shl i9 %tmp_1_2_1_i_cast, 1, !dbg !1494 ; <i9> [#uses=1]
  %p_shl11_i_cast = zext i9 %p_shl11_i to i11, !dbg !1494 ; <i11> [#uses=1]
  %y_weight_2 = sub i11 %y_weight_1, %p_shl11_i_cast, !dbg !1494 ; <i11> [#uses=1]
  call void @llvm.dbg.value(metadata !{i11 %y_weight_2}, i64 0, metadata !1532)
  call void @llvm.dbg.value(metadata !{i11 %y_weight_2}, i64 0, metadata !1532), !dbg !1494
  call void @llvm.dbg.value(metadata !{i8 2}, i64 0, metadata !1553), !dbg !1554
  call void @llvm.dbg.value(metadata !{i8 %buff_C_M_0_1_2}, i64 0, metadata !1543)
  call void @llvm.dbg.value(metadata !{i8 %buff_C_M_0_2_4}, i64 0, metadata !1547)
  call void @llvm.dbg.value(metadata !{i8* null}, i64 0, metadata !1548)
  call void @llvm.dbg.value(metadata !{i8 %buff_C_M_1_2_3}, i64 0, metadata !1549)
  call void @llvm.dbg.value(metadata !{i8 %buff_C_M_2_2_3}, i64 0, metadata !1550)
  call void @llvm.dbg.value(metadata !{i32 2}, i64 0, metadata !1551) nounwind
  call void @llvm.dbg.value(metadata !{i32 2}, i64 0, metadata !1552) nounwind
  call void @llvm.dbg.value(metadata !{i8 %buff_C_M_2_2_3}, i64 0, metadata !1555) nounwind, !dbg !1556
  %tmp_1_2_2_i_cast = zext i8 %buff_C_M_2_2_3 to i11, !dbg !1498 ; <i11> [#uses=2]
  %x_weight_4 = add i11 %x_weight_3, %tmp_1_2_2_i_cast, !dbg !1498 ; <i11> [#uses=2]
  %x_weight_4_cast = trunc i11 %x_weight_4 to i8  ; <i8> [#uses=2]
  call void @llvm.dbg.value(metadata !{i11 %x_weight_4}, i64 0, metadata !1530)
  call void @llvm.dbg.value(metadata !{i11 %x_weight_4}, i64 0, metadata !1530)
  call void @llvm.dbg.value(metadata !{i11 %x_weight_4}, i64 0, metadata !1530), !dbg !1498
  call void @llvm.dbg.value(metadata !{i8 %buff_C_M_0_1_2}, i64 0, metadata !1543)
  call void @llvm.dbg.value(metadata !{i8 %buff_C_M_0_2_4}, i64 0, metadata !1547)
  call void @llvm.dbg.value(metadata !{i8* null}, i64 0, metadata !1548)
  call void @llvm.dbg.value(metadata !{i8 %buff_C_M_1_2_3}, i64 0, metadata !1549)
  call void @llvm.dbg.value(metadata !{i8 %buff_C_M_2_2_3}, i64 0, metadata !1550)
  call void @llvm.dbg.value(metadata !{i32 2}, i64 0, metadata !1551) nounwind
  call void @llvm.dbg.value(metadata !{i32 2}, i64 0, metadata !1552) nounwind
  call void @llvm.dbg.value(metadata !{i8 %buff_C_M_2_2_3}, i64 0, metadata !1555) nounwind, !dbg !1491
  %y_weight_3 = sub i11 %y_weight_2, %tmp_1_2_2_i_cast, !dbg !1494 ; <i11> [#uses=2]
  %y_weight_5_cast = trunc i11 %y_weight_3 to i8  ; <i8> [#uses=2]
  call void @llvm.dbg.value(metadata !{i11 %y_weight_3}, i64 0, metadata !1532)
  call void @llvm.dbg.value(metadata !{i11 %y_weight_3}, i64 0, metadata !1532)
  call void @llvm.dbg.value(metadata !{i11 %y_weight_3}, i64 0, metadata !1532), !dbg !1494
  call void @llvm.dbg.value(metadata !{i8 3}, i64 0, metadata !1553), !dbg !1554
  %neg_i_cast = sub i8 0, %x_weight_4_cast        ; <i8> [#uses=1]
  %tmp_28 = call i1 @_ssdm_op_BitSelect.i1.i11.i32(i11 %x_weight_4, i32 10), !dbg !1557 ; <i1> [#uses=1]
  %abs_i = select i1 %tmp_28, i8 %neg_i_cast, i8 %x_weight_4_cast ; <i8> [#uses=1]
  %neg7_i_cast = sub i8 0, %y_weight_5_cast       ; <i8> [#uses=1]
  %tmp_29 = call i1 @_ssdm_op_BitSelect.i1.i11.i32(i11 %y_weight_3, i32 10), !dbg !1557 ; <i1> [#uses=1]
  %abs9_i = select i1 %tmp_29, i8 %neg7_i_cast, i8 %y_weight_5_cast ; <i8> [#uses=1]
  %tmp_i2 = add i8 %abs9_i, %abs_i, !dbg !1558    ; <i8> [#uses=3]
  %edge_val = xor i8 %tmp_i2, -1, !dbg !1558      ; <i8> [#uses=1]
  call void @llvm.dbg.value(metadata !{i8 %edge_val}, i64 0, metadata !1559), !dbg !1558
  %tmp_8_i = icmp ult i8 %tmp_i2, 55, !dbg !1560  ; <i1> [#uses=2]
  %tmp_i = icmp ugt i8 %tmp_i2, -101, !dbg !1561  ; <i1> [#uses=1]
  call void @llvm.dbg.value(metadata !{i8 0}, i64 0, metadata !1559), !dbg !1562
  %sel_tmp6_demorgan = or i1 %or_cond, %tmp_15    ; <i1> [#uses=2]
  %sel_tmp6 = xor i1 %sel_tmp6_demorgan, true     ; <i1> [#uses=1]
  %sel_tmp7 = and i1 %tmp_17, %sel_tmp6           ; <i1> [#uses=1]
  %sel_tmp9_demorgan = or i1 %icmp, %icmp7, !dbg !1398 ; <i1> [#uses=1]
  %sel_tmp9 = xor i1 %sel_tmp9_demorgan, true, !dbg !1398 ; <i1> [#uses=1]
  %sel_tmp = and i1 %tmp_15, %sel_tmp9            ; <i1> [#uses=1]
  %tmp_18 = or i1 %sel_tmp, %sel_tmp7, !dbg !1563 ; <i1> [#uses=1]
  %sel_tmp17_demorgan = or i1 %sel_tmp6_demorgan, %tmp_17 ; <i1> [#uses=2]
  %sel_tmp19_demorgan = or i1 %sel_tmp17_demorgan, %tmp_8_i ; <i1> [#uses=1]
  %sel_tmp2 = xor i1 %sel_tmp19_demorgan, true    ; <i1> [#uses=1]
  %sel_tmp3 = and i1 %tmp_i, %sel_tmp2            ; <i1> [#uses=1]
  %tmp_20 = or i1 %sel_tmp3, %or_cond, !dbg !1563 ; <i1> [#uses=1]
  %tmp_21 = or i1 %tmp_20, %tmp_18, !dbg !1563    ; <i1> [#uses=1]
  %sel_tmp5 = xor i1 %sel_tmp17_demorgan, true    ; <i1> [#uses=1]
  %sel_tmp8 = and i1 %tmp_8_i, %sel_tmp5          ; <i1> [#uses=2]
  %sel_tmp4 = sext i1 %sel_tmp8 to i8, !dbg !1563 ; <i8> [#uses=1]
  %tmp_30 = or i1 %sel_tmp8, %tmp_21, !dbg !1563  ; <i1> [#uses=1]
  %edge_G_V = select i1 %tmp_30, i8 %sel_tmp4, i8 %edge_val, !dbg !1563 ; <i8> [#uses=3]
  call void @llvm.dbg.value(metadata !{i8 %edge_G_V}, i64 0, metadata !1820)
  call void @llvm.dbg.value(metadata !{i8 %edge_G_V}, i64 0, metadata !1822)
  call void @llvm.dbg.value(metadata !{i8 %edge_G_V}, i64 0, metadata !1823), !dbg !1824
  %tmp_19 = icmp ne i31 %col_1, 0, !dbg !1826     ; <i1> [#uses=1]
  %or_cond1 = and i1 %tmp_7, %tmp_19, !dbg !1826  ; <i1> [#uses=1]
  br i1 %or_cond1, label %bb16, label %bb20, !dbg !1826

bb16:                                             ; preds = %bb.i463.0_ifconv
  call void @llvm.dbg.value(metadata !1827, i64 0, metadata !1828)
  call void @llvm.dbg.value(metadata !{i8 -1}, i64 0, metadata !1830), !dbg !1832
  call void @llvm.dbg.value(metadata !{i32 0}, i64 0, metadata !1834)
  call void @llvm.dbg.value(metadata !{i16 0}, i64 0, metadata !2046), !dbg !2087
  call void @llvm.dbg.value(metadata !{i32 8}, i64 0, metadata !2101), !dbg !2102
  call void @llvm.dbg.value(metadata !{i32 8}, i64 0, metadata !2103), !dbg !2104
  call void @llvm.dbg.value(metadata !{i16 0}, i64 0, metadata !2105), !dbg !2107
  call void @llvm.dbg.value(metadata !{i16 0}, i64 0, metadata !2108), !dbg !2107
  call void @llvm.dbg.value(metadata !{i8 %edge_G_V}, i64 0, metadata !2109), !dbg !2107
  call void @llvm.dbg.value(metadata !{i16 0}, i64 0, metadata !2110), !dbg !2112
  call void @llvm.dbg.value(metadata !{i8 %edge_G_V}, i64 0, metadata !2113), !dbg !2112
  call void @llvm.dbg.value(metadata !{i32 0}, i64 0, metadata !2114)
  call void @llvm.dbg.value(metadata !{i40 0}, i64 0, metadata !2116), !dbg !2124
  call void @llvm.dbg.value(metadata !{i32 32}, i64 0, metadata !2126), !dbg !2127
  call void @llvm.dbg.value(metadata !{i32 8}, i64 0, metadata !2128), !dbg !2129
  call void @llvm.dbg.value(metadata !{i40 0}, i64 0, metadata !2130), !dbg !1563
  call void @llvm.dbg.value(metadata !{i40 0}, i64 0, metadata !2132), !dbg !1563
  call void @llvm.dbg.value(metadata !{i8 %edge_G_V}, i64 0, metadata !2133), !dbg !1563
  call void @llvm.dbg.value(metadata !{i40 0}, i64 0, metadata !2134), !dbg !2136
  %tmp_22 = call i24 @_ssdm_op_BitConcatenate.i24.i8.i8.i8(i8 %edge_G_V, i8 %edge_G_V, i8 %edge_G_V) ; <i24> [#uses=1]
  %p_Repl2_s = zext i24 %tmp_22 to i32, !dbg !2137 ; <i32> [#uses=1]
  call void @llvm.dbg.value(metadata !{i32 0}, i64 0, metadata !2114)
  call void @llvm.dbg.value(metadata !{i40 0}, i64 0, metadata !2138), !dbg !2173
  call void @llvm.dbg.value(metadata !{i32 8}, i64 0, metadata !2187), !dbg !2188
  call void @llvm.dbg.value(metadata !{i32 32}, i64 0, metadata !2189), !dbg !2190
  call void @llvm.dbg.value(metadata !{i40 0}, i64 0, metadata !2191), !dbg !2193
  call void @llvm.dbg.value(metadata !{i40 0}, i64 0, metadata !2194), !dbg !2193
  call void @llvm.dbg.value(metadata !{i32 %p_Repl2_s}, i64 0, metadata !2195), !dbg !2193
  call void @llvm.dbg.value(metadata !{i40 0}, i64 0, metadata !2196), !dbg !2198
  call void @llvm.dbg.value(metadata !{i8 -1}, i64 0, metadata !2199), !dbg !2198
  call void @llvm.dbg.value(metadata !{i32 %p_Repl2_s}, i64 0, metadata !2200), !dbg !2202
  call void @llvm.dbg.value(metadata !1456, i64 0, metadata !2203)
  call void @llvm.dbg.value(metadata !2205, i64 0, metadata !2206), !dbg !2207
  call void @llvm.dbg.value(metadata !{i32 1}, i64 0, metadata !2209)
  call void @llvm.dbg.value(metadata !2211, i64 0, metadata !2212), !dbg !2213
  call void @llvm.dbg.value(metadata !{i32 1}, i64 0, metadata !2209)
  call void @llvm.dbg.value(metadata !2211, i64 0, metadata !2215), !dbg !2216
  %output_pixel_last_V = icmp eq i32 %ColIndex_assign_cast, %cols_read, !dbg !2218 ; <i1> [#uses=1]
  call void @llvm.dbg.value(metadata !{i32 0}, i64 0, metadata !2209)
  call void @llvm.dbg.value(metadata !{i1 %output_pixel_last_V}, i64 0, metadata !2219), !dbg !2220
  call void @_ssdm_op_FifoWrite.volatile.i32P(i32* %out_pix_data_V, i32 %p_Repl2_s) nounwind, !dbg !2222
  call void @_ssdm_op_FifoWrite.volatile.i4P(i4* %out_pix_strb_V, i4 -1) nounwind, !dbg !2225
  call void @_ssdm_op_FifoWrite.volatile.i1P(i1* %out_pix_user_V, i1 true) nounwind, !dbg !2226
  call void @_ssdm_op_FifoWrite.volatile.i1P(i1* %out_pix_last_V, i1 %output_pixel_last_V) nounwind, !dbg !2226
  call void @_ssdm_op_FifoWrite.volatile.i1P(i1* %out_pix_tdest_V, i1 true) nounwind, !dbg !2226
  br label %bb20, !dbg !2224

bb20:                                             ; preds = %bb16, %bb.i463.0_ifconv
  %buff_C_M_2_2_load = load i8* %buff_C_M_2_2     ; <i8> [#uses=1]
  %empty_28 = call i32 (...)* @_ssdm_op_SpecRegionEnd([14 x i8]* @p_str43, i32 %tmp_13) nounwind, !dbg !2227 ; <i32> [#uses=0]
  call void @llvm.dbg.value(metadata !{i31 %col}, i64 0, metadata !2228), !dbg !2229
  store i8 %buff_C_M_1_2_3, i8* %buff_C_M_1_2
  store i8 %buff_C_M_1_1_1, i8* %buff_C_M_1_1, !dbg !1504
  store i8 %buff_C_M_2_2_load, i8* %buff_C_M_2_1
  store i8 %buff_C_M_0_2_4, i8* %buff_C_M_0_2
  store i8 %buff_C_M_0_1_2, i8* %buff_C_M_0_1
  store i8 %buff_C_M_2_2_3, i8* %buff_C_M_2_2
  br label %bb21, !dbg !2229

bb21:                                             ; preds = %bb21.preheader, %bb20
  %col_1 = phi i31 [ 0, %bb21.preheader ], [ %col, %bb20 ] ; <i31> [#uses=5]
  %buff_C_M_0_1_2 = load i8* %buff_C_M_0_2        ; <i8> [#uses=3]
  %buff_C_M_1_1_1 = load i8* %buff_C_M_1_2        ; <i8> [#uses=2]
  %ColIndex_assign_cast = zext i31 %col_1 to i32  ; <i32> [#uses=8]
  call void @llvm.dbg.value(metadata !{i8 %buff_C_M_1_1_1}, i64 0, metadata !1306)
  call void @llvm.dbg.value(metadata !{i8 %buff_C_M_0_1_2}, i64 0, metadata !1303)
  call void @llvm.dbg.value(metadata !{i8 undef}, i64 0, metadata !1297)
  call void @llvm.dbg.value(metadata !{i8 undef}, i64 0, metadata !1296)
  call void @llvm.dbg.value(metadata !{i8 undef}, i64 0, metadata !1284)
  call void @llvm.dbg.value(metadata !{i31 %col_1}, i64 0, metadata !2230) nounwind
  call void @llvm.dbg.value(metadata !{i31 %col_1}, i64 0, metadata !2228)
  call void @llvm.dbg.value(metadata !{i8 undef}, i64 0, metadata !362)
  %exitcond = icmp eq i31 %col_1, %smax2, !dbg !2229 ; <i1> [#uses=1]
  %col = add i31 %col_1, 1, !dbg !2229            ; <i31> [#uses=1]
  br i1 %exitcond, label %bb23, label %bb1, !dbg !2229

bb23:                                             ; preds = %bb21, %entry
  %row = phi i31 [ 0, %entry ], [ %row_1, %bb21 ] ; <i31> [#uses=5]
  %row_cast = zext i31 %row to i32                ; <i32> [#uses=2]
  call void @llvm.dbg.value(metadata !{i8 undef}, i64 0, metadata !1306)
  call void @llvm.dbg.value(metadata !{i8 undef}, i64 0, metadata !1305)
  call void @llvm.dbg.value(metadata !{i8 undef}, i64 0, metadata !1304)
  call void @llvm.dbg.value(metadata !{i8 undef}, i64 0, metadata !1303)
  call void @llvm.dbg.value(metadata !{i8 undef}, i64 0, metadata !1302)
  call void @llvm.dbg.value(metadata !{i8 undef}, i64 0, metadata !1298)
  call void @llvm.dbg.value(metadata !{i8 undef}, i64 0, metadata !1297)
  call void @llvm.dbg.value(metadata !{i8 undef}, i64 0, metadata !1296)
  call void @llvm.dbg.value(metadata !{i8 undef}, i64 0, metadata !1284)
  call void @llvm.dbg.value(metadata !{i31 %row}, i64 0, metadata !1396)
  call void @llvm.dbg.value(metadata !{i8 undef}, i64 0, metadata !362)
  %exitcond3 = icmp eq i31 %row, %smax, !dbg !1397 ; <i1> [#uses=1]
  %row_1 = add i31 %row, 1, !dbg !1397            ; <i31> [#uses=1]
  call void @llvm.dbg.value(metadata !{i31 %row_1}, i64 0, metadata !1396), !dbg !1397
  br i1 %exitcond3, label %bb24, label %bb21.preheader, !dbg !1397

bb21.preheader:                                   ; preds = %bb23
  %tmp_23 = call i30 @_ssdm_op_PartSelect.i30.i31.i32.i32(i31 %row, i32 1, i32 30), !dbg !1398 ; <i30> [#uses=1]
  %icmp = icmp ult i30 %tmp_23, 1, !dbg !1398     ; <i1> [#uses=2]
  %tmp_7 = icmp ne i31 %row, 0, !dbg !1826        ; <i1> [#uses=1]
  %tmp_11 = icmp slt i32 %row_cast, %rows_read, !dbg !1413 ; <i1> [#uses=1]
  %tmp_15 = icmp slt i32 %tmp_14, %row_cast, !dbg !1398 ; <i1> [#uses=2]
  br label %bb21

bb24:                                             ; preds = %bb23
  ret void, !dbg !2231
}

define weak i32 @_ssdm_op_WireRead.i32(i32) {
entry:
  ret i32 %0
}

define weak i32 @_ssdm_op_FifoRead.volatile.i32P(i32*) {
entry:
  %empty = call i32 @_autotb_FifoRead_i32(i32* %0) ; <i32> [#uses=1]
  ret i32 %empty
}

define weak i4 @_ssdm_op_FifoRead.volatile.i4P(i4*) {
entry:
  %empty = call i4 @_autotb_FifoRead_i4(i4* %0)   ; <i4> [#uses=1]
  ret i4 %empty
}

define weak i1 @_ssdm_op_FifoRead.volatile.i1P(i1*) {
entry:
  %empty = call i1 @_autotb_FifoRead_i1(i1* %0)   ; <i1> [#uses=1]
  ret i1 %empty
}

define weak void @_ssdm_op_FifoWrite.volatile.i32P(i32*, i32) {
entry:
  %empty = call i32 @_autotb_FifoWrite_i32(i32* %0, i32 %1) ; <i32> [#uses=0]
  ret void
}

define weak void @_ssdm_op_FifoWrite.volatile.i4P(i4*, i4) {
entry:
  %empty = call i4 @_autotb_FifoWrite_i4(i4* %0, i4 %1) ; <i4> [#uses=0]
  ret void
}

define weak void @_ssdm_op_FifoWrite.volatile.i1P(i1*, i1) {
entry:
  %empty = call i1 @_autotb_FifoWrite_i1(i1* %0, i1 %1) ; <i1> [#uses=0]
  ret void
}

define weak i8 @_ssdm_op_PartSelect.i8.i16.i32.i32(i16, i32, i32) nounwind readnone {
entry:
  %empty = call i16 @llvm.part.select.i16(i16 %0, i32 %1, i32 %2) ; <i16> [#uses=1]
  %empty_29 = trunc i16 %empty to i8              ; <i8> [#uses=1]
  ret i8 %empty_29
}

define weak i30 @_ssdm_op_PartSelect.i30.i31.i32.i32(i31, i32, i32) nounwind readnone {
entry:
  %empty = call i31 @llvm.part.select.i31(i31 %0, i32 %1, i32 %2) ; <i31> [#uses=1]
  %empty_30 = trunc i31 %empty to i30             ; <i30> [#uses=1]
  ret i30 %empty_30
}

define weak i1 @_ssdm_op_BitSelect.i1.i11.i32(i11, i32) nounwind readnone {
entry:
  %empty = trunc i32 %1 to i11                    ; <i11> [#uses=1]
  %empty_31 = shl i11 1, %empty                   ; <i11> [#uses=1]
  %empty_32 = and i11 %0, %empty_31               ; <i11> [#uses=1]
  %empty_33 = icmp ne i11 %empty_32, 0            ; <i1> [#uses=1]
  ret i1 %empty_33
}

declare i32 @_autotb_FifoRead_i32(i32*)

declare i4 @_autotb_FifoRead_i4(i4*)

declare i1 @_autotb_FifoRead_i1(i1*)

declare i32 @_autotb_FifoWrite_i32(i32*, i32)

declare i4 @_autotb_FifoWrite_i4(i4*, i4)

declare i1 @_autotb_FifoWrite_i1(i1*, i1)

declare i32 @llvm.part.select.i32(i32, i32, i32) nounwind readnone

declare i16 @llvm.part.select.i16(i16, i32, i32) nounwind readnone

declare i31 @llvm.part.select.i31(i31, i32, i32) nounwind readnone

!llvm.dbg.gv = !{!0, !361}

!0 = metadata !{i32 458804, i32 0, metadata !1, metadata !"y_op", metadata !"y_op", metadata !"", metadata !3, i32 78, metadata !360, i1 true, i1 true, null} ; [ DW_TAG_variable ]
!1 = metadata !{i32 458798, i32 0, metadata !2, metadata !"sobel_operator", metadata !"sobel_operator", metadata !"_Z14sobel_operatorP9ap_windowIhLi3ELi3EE", metadata !3, i32 61, metadata !4, i1 false, i1 true, i32 0, i32 0, null, i1 false} ; [ DW_TAG_subprogram ]
!2 = metadata !{i32 458769, i32 0, i32 4, metadata !"sobel.pragma.2.cpp", metadata !"C:\5CWORK\5Csobel_variable\5Caxi_sobel\5Caxi_sobel/C:/WORK/sobel_variable/axi_sobel/axi_sobel/sobel_rd_prj/solution1/.autopilot/db", metadata !"4.2.1 (Based on Apple Inc. build 5658) (LLVM build)", i1 true, i1 false, metadata !"", i32 0} ; [ DW_TAG_compile_unit ]
!3 = metadata !{i32 458769, i32 0, i32 4, metadata !"sobel.cpp", metadata !"C:\5CWORK\5Csobel_variable\5Caxi_sobel\5Caxi_sobel/", metadata !"4.2.1 (Based on Apple Inc. build 5658) (LLVM build)", i1 false, i1 false, metadata !"", i32 0} ; [ DW_TAG_compile_unit ]
!4 = metadata !{i32 458773, metadata !2, metadata !"", metadata !2, i32 0, i64 0, i64 0, i64 0, i32 0, null, metadata !5, i32 0, null} ; [ DW_TAG_subroutine_type ]
!5 = metadata !{metadata !6, metadata !333}
!6 = metadata !{i32 458774, metadata !2, metadata !"RGB", metadata !7, i32 176, i64 0, i64 0, i64 0, i32 0, metadata !8} ; [ DW_TAG_typedef ]
!7 = metadata !{i32 458769, i32 0, i32 4, metadata !"ap_video.h", metadata !"C:\5CWORK\5Csobel_variable\5Caxi_sobel\5Caxi_sobel/", metadata !"4.2.1 (Based on Apple Inc. build 5658) (LLVM build)", i1 false, i1 false, metadata !"", i32 0} ; [ DW_TAG_compile_unit ]
!8 = metadata !{i32 458771, metadata !2, metadata !"ap_rgb<8,8,8>", metadata !7, i32 54, i64 24, i64 8, i64 0, i32 0, null, metadata !9, i32 0, null} ; [ DW_TAG_structure_type ]
!9 = metadata !{metadata !10, metadata !321, metadata !322, metadata !323, metadata !330}
!10 = metadata !{i32 458765, metadata !8, metadata !"B", metadata !7, i32 55, i64 8, i64 8, i64 0, i32 0, metadata !11} ; [ DW_TAG_member ]
!11 = metadata !{i32 458771, metadata !2, metadata !"ap_uint<8>", metadata !12, i32 134, i64 8, i64 8, i64 0, i32 0, null, metadata !13, i32 0, null} ; [ DW_TAG_structure_type ]
!12 = metadata !{i32 458769, i32 0, i32 4, metadata !"ap_int.h", metadata !"C:\5CWORK\5Csobel_variable\5Caxi_sobel\5Caxi_sobel/C:/Xilinx/Vivado_HLS/2012.2/common/technology/autopilot", metadata !"4.2.1 (Based on Apple Inc. build 5658) (LLVM build)", i1 false, i1 false, metadata !"", i32 0} ; [ DW_TAG_compile_unit ]
!13 = metadata !{metadata !14, metadata !253, metadata !257, metadata !260, metadata !263, metadata !266, metadata !269, metadata !272, metadata !275, metadata !278, metadata !281, metadata !284, metadata !287, metadata !290, metadata !293, metadata !296, metadata !299, metadata !302, metadata !309, metadata !314, metadata !318}
!14 = metadata !{i32 458780, metadata !2, metadata !"", null, i32 0, i64 0, i64 0, i64 0, i32 0, metadata !15} ; [ DW_TAG_inheritance ]
!15 = metadata !{i32 458771, metadata !2, metadata !"ap_int_base<8,false>", metadata !16, i32 1306, i64 8, i64 8, i64 0, i32 0, null, metadata !17, i32 0, null} ; [ DW_TAG_structure_type ]
!16 = metadata !{i32 458769, i32 0, i32 4, metadata !"ap_int_syn.h", metadata !"C:\5CWORK\5Csobel_variable\5Caxi_sobel\5Caxi_sobel/C:/Xilinx/Vivado_HLS/2012.2/common/technology/autopilot", metadata !"4.2.1 (Based on Apple Inc. build 5658) (LLVM build)", i1 false, i1 false, metadata !"", i32 0} ; [ DW_TAG_compile_unit ]
!17 = metadata !{metadata !18, metadata !43, metadata !47, metadata !51, metadata !55, metadata !59, metadata !63, metadata !67, metadata !71, metadata !75, metadata !79, metadata !83, metadata !87, metadata !90, metadata !94, metadata !98, metadata !104, metadata !107, metadata !112, metadata !117, metadata !122, metadata !123, metadata !127, metadata !130, metadata !133, metadata !136, metadata !139, metadata !142, metadata !146, metadata !149, metadata !152, metadata !155, metadata !159, metadata !162, metadata !165, metadata !166, metadata !170, metadata !173, metadata !176, metadata !177, metadata !178, metadata !179, metadata !180, metadata !183, metadata !184, metadata !187, metadata !188, metadata !189, metadata !190, metadata !191, metadata !192, metadata !193, metadata !194, metadata !197, metadata !198, metadata !201, metadata !205, metadata !206, metadata !207, metadata !211, metadata !212, metadata !215, metadata !216, metadata !220, metadata !221, metadata !222, metadata !223, metadata !226, metadata !227, metadata !228, metadata !229, metadata !230, metadata !231, metadata !232, metadata !233, metadata !234, metadata !235, metadata !236, metadata !237, metadata !247, metadata !250}
!18 = metadata !{i32 458780, metadata !2, metadata !"", null, i32 0, i64 0, i64 0, i64 0, i32 0, metadata !19} ; [ DW_TAG_inheritance ]
!19 = metadata !{i32 458771, metadata !2, metadata !"conv_cint<8,false,true>", metadata !16, i32 1269, i64 8, i64 8, i64 0, i32 0, null, metadata !20, i32 0, null} ; [ DW_TAG_structure_type ]
!20 = metadata !{metadata !21, metadata !31, metadata !35}
!21 = metadata !{i32 458780, metadata !2, metadata !"", null, i32 0, i64 0, i64 0, i64 0, i32 0, metadata !22} ; [ DW_TAG_inheritance ]
!22 = metadata !{i32 458771, metadata !2, metadata !"ssdm_int<8,false>", metadata !23, i32 10, i64 8, i64 8, i64 0, i32 0, null, metadata !24, i32 0, null} ; [ DW_TAG_structure_type ]
!23 = metadata !{i32 458769, i32 0, i32 4, metadata !"autopilot_dt.def", metadata !"C:\5CWORK\5Csobel_variable\5Caxi_sobel\5Caxi_sobel/C:/Xilinx/Vivado_HLS/2012.2/common/technology/autopilot/etc", metadata !"4.2.1 (Based on Apple Inc. build 5658) (LLVM build)", i1 false, i1 false, metadata !"", i32 0} ; [ DW_TAG_compile_unit ]
!24 = metadata !{metadata !25, metadata !27}
!25 = metadata !{i32 458765, metadata !22, metadata !"V", metadata !23, i32 10, i64 8, i64 8, i64 0, i32 0, metadata !26} ; [ DW_TAG_member ]
!26 = metadata !{i32 458788, metadata !2, metadata !"", metadata !2, i32 0, i64 8, i64 8, i64 0, i32 0, i32 7} ; [ DW_TAG_base_type ]
!27 = metadata !{i32 458798, i32 0, metadata !22, metadata !"ssdm_int", metadata !"ssdm_int", metadata !"", metadata !23, i32 10, metadata !28, i1 false, i1 false, i32 0, i32 0, null, i1 false} ; [ DW_TAG_subprogram ]
!28 = metadata !{i32 458773, metadata !2, metadata !"", metadata !2, i32 0, i64 0, i64 0, i64 0, i32 0, null, metadata !29, i32 0, null} ; [ DW_TAG_subroutine_type ]
!29 = metadata !{null, metadata !30}
!30 = metadata !{i32 458767, metadata !2, metadata !"", metadata !2, i32 0, i64 32, i64 32, i64 0, i32 64, metadata !22} ; [ DW_TAG_pointer_type ]
!31 = metadata !{i32 458798, i32 0, metadata !19, metadata !"conv_cint", metadata !"conv_cint", metadata !"", metadata !16, i32 1275, metadata !32, i1 false, i1 false, i32 0, i32 0, null, i1 false} ; [ DW_TAG_subprogram ]
!32 = metadata !{i32 458773, metadata !2, metadata !"", metadata !2, i32 0, i64 0, i64 0, i64 0, i32 0, null, metadata !33, i32 0, null} ; [ DW_TAG_subroutine_type ]
!33 = metadata !{null, metadata !34}
!34 = metadata !{i32 458767, metadata !2, metadata !"", metadata !2, i32 0, i64 32, i64 32, i64 0, i32 64, metadata !19} ; [ DW_TAG_pointer_type ]
!35 = metadata !{i32 458798, i32 0, metadata !19, metadata !"operator ap_ulong", metadata !"operator ap_ulong", metadata !"_ZNK9conv_cintILi8ELb0ELb1EEcvyEv", metadata !16, i32 1276, metadata !36, i1 false, i1 false, i32 0, i32 0, null, i1 false} ; [ DW_TAG_subprogram ]
!36 = metadata !{i32 458773, metadata !2, metadata !"", metadata !2, i32 0, i64 0, i64 0, i64 0, i32 0, null, metadata !37, i32 0, null} ; [ DW_TAG_subroutine_type ]
!37 = metadata !{metadata !38, metadata !41}
!38 = metadata !{i32 458774, metadata !2, metadata !"ap_ulong", metadata !39, i32 812, i64 0, i64 0, i64 0, i32 0, metadata !40} ; [ DW_TAG_typedef ]
!39 = metadata !{i32 458769, i32 0, i32 4, metadata !"math.h", metadata !"C:\5CWORK\5Csobel_variable\5Caxi_sobel\5Caxi_sobel/c:/xilinx/vivado_hls/2012.2/win_x86/tools/llvm_gcc/bin/../lib/gcc/i686-pc-mingw32/4.2.1/../../../../include", metadata !"4.2.1 (Based on Apple Inc. build 5658) (LLVM build)", i1 false, i1 false, metadata !"", i32 0} ; [ DW_TAG_compile_unit ]
!40 = metadata !{i32 458788, metadata !2, metadata !"long long unsigned int", metadata !2, i32 0, i64 64, i64 64, i64 0, i32 0, i32 7} ; [ DW_TAG_base_type ]
!41 = metadata !{i32 458767, metadata !2, metadata !"", metadata !2, i32 0, i64 32, i64 32, i64 0, i32 64, metadata !42} ; [ DW_TAG_pointer_type ]
!42 = metadata !{i32 458790, metadata !2, metadata !"", metadata !2, i32 0, i64 8, i64 8, i64 0, i32 0, metadata !19} ; [ DW_TAG_const_type ]
!43 = metadata !{i32 458798, i32 0, metadata !15, metadata !"ap_int_base", metadata !"ap_int_base", metadata !"", metadata !16, i32 1341, metadata !44, i1 false, i1 false, i32 0, i32 0, null, i1 false} ; [ DW_TAG_subprogram ]
!44 = metadata !{i32 458773, metadata !2, metadata !"", metadata !2, i32 0, i64 0, i64 0, i64 0, i32 0, null, metadata !45, i32 0, null} ; [ DW_TAG_subroutine_type ]
!45 = metadata !{null, metadata !46}
!46 = metadata !{i32 458767, metadata !2, metadata !"", metadata !2, i32 0, i64 32, i64 32, i64 0, i32 64, metadata !15} ; [ DW_TAG_pointer_type ]
!47 = metadata !{i32 458798, i32 0, metadata !15, metadata !"ap_int_base", metadata !"ap_int_base", metadata !"", metadata !16, i32 1363, metadata !48, i1 false, i1 false, i32 0, i32 0, null, i1 false} ; [ DW_TAG_subprogram ]
!48 = metadata !{i32 458773, metadata !2, metadata !"", metadata !2, i32 0, i64 0, i64 0, i64 0, i32 0, null, metadata !49, i32 0, null} ; [ DW_TAG_subroutine_type ]
!49 = metadata !{null, metadata !46, metadata !50}
!50 = metadata !{i32 458788, metadata !2, metadata !"bool", metadata !2, i32 0, i64 8, i64 8, i64 0, i32 0, i32 2} ; [ DW_TAG_base_type ]
!51 = metadata !{i32 458798, i32 0, metadata !15, metadata !"ap_int_base", metadata !"ap_int_base", metadata !"", metadata !16, i32 1364, metadata !52, i1 false, i1 false, i32 0, i32 0, null, i1 false} ; [ DW_TAG_subprogram ]
!52 = metadata !{i32 458773, metadata !2, metadata !"", metadata !2, i32 0, i64 0, i64 0, i64 0, i32 0, null, metadata !53, i32 0, null} ; [ DW_TAG_subroutine_type ]
!53 = metadata !{null, metadata !46, metadata !54}
!54 = metadata !{i32 458788, metadata !2, metadata !"signed char", metadata !2, i32 0, i64 8, i64 8, i64 0, i32 0, i32 6} ; [ DW_TAG_base_type ]
!55 = metadata !{i32 458798, i32 0, metadata !15, metadata !"ap_int_base", metadata !"ap_int_base", metadata !"", metadata !16, i32 1365, metadata !56, i1 false, i1 false, i32 0, i32 0, null, i1 false} ; [ DW_TAG_subprogram ]
!56 = metadata !{i32 458773, metadata !2, metadata !"", metadata !2, i32 0, i64 0, i64 0, i64 0, i32 0, null, metadata !57, i32 0, null} ; [ DW_TAG_subroutine_type ]
!57 = metadata !{null, metadata !46, metadata !58}
!58 = metadata !{i32 458788, metadata !2, metadata !"unsigned char", metadata !2, i32 0, i64 8, i64 8, i64 0, i32 0, i32 8} ; [ DW_TAG_base_type ]
!59 = metadata !{i32 458798, i32 0, metadata !15, metadata !"ap_int_base", metadata !"ap_int_base", metadata !"", metadata !16, i32 1366, metadata !60, i1 false, i1 false, i32 0, i32 0, null, i1 false} ; [ DW_TAG_subprogram ]
!60 = metadata !{i32 458773, metadata !2, metadata !"", metadata !2, i32 0, i64 0, i64 0, i64 0, i32 0, null, metadata !61, i32 0, null} ; [ DW_TAG_subroutine_type ]
!61 = metadata !{null, metadata !46, metadata !62}
!62 = metadata !{i32 458788, metadata !2, metadata !"short int", metadata !2, i32 0, i64 16, i64 16, i64 0, i32 0, i32 5} ; [ DW_TAG_base_type ]
!63 = metadata !{i32 458798, i32 0, metadata !15, metadata !"ap_int_base", metadata !"ap_int_base", metadata !"", metadata !16, i32 1367, metadata !64, i1 false, i1 false, i32 0, i32 0, null, i1 false} ; [ DW_TAG_subprogram ]
!64 = metadata !{i32 458773, metadata !2, metadata !"", metadata !2, i32 0, i64 0, i64 0, i64 0, i32 0, null, metadata !65, i32 0, null} ; [ DW_TAG_subroutine_type ]
!65 = metadata !{null, metadata !46, metadata !66}
!66 = metadata !{i32 458788, metadata !2, metadata !"short unsigned int", metadata !2, i32 0, i64 16, i64 16, i64 0, i32 0, i32 7} ; [ DW_TAG_base_type ]
!67 = metadata !{i32 458798, i32 0, metadata !15, metadata !"ap_int_base", metadata !"ap_int_base", metadata !"", metadata !16, i32 1368, metadata !68, i1 false, i1 false, i32 0, i32 0, null, i1 false} ; [ DW_TAG_subprogram ]
!68 = metadata !{i32 458773, metadata !2, metadata !"", metadata !2, i32 0, i64 0, i64 0, i64 0, i32 0, null, metadata !69, i32 0, null} ; [ DW_TAG_subroutine_type ]
!69 = metadata !{null, metadata !46, metadata !70}
!70 = metadata !{i32 458788, metadata !2, metadata !"int", metadata !2, i32 0, i64 32, i64 32, i64 0, i32 0, i32 5} ; [ DW_TAG_base_type ]
!71 = metadata !{i32 458798, i32 0, metadata !15, metadata !"ap_int_base", metadata !"ap_int_base", metadata !"", metadata !16, i32 1369, metadata !72, i1 false, i1 false, i32 0, i32 0, null, i1 false} ; [ DW_TAG_subprogram ]
!72 = metadata !{i32 458773, metadata !2, metadata !"", metadata !2, i32 0, i64 0, i64 0, i64 0, i32 0, null, metadata !73, i32 0, null} ; [ DW_TAG_subroutine_type ]
!73 = metadata !{null, metadata !46, metadata !74}
!74 = metadata !{i32 458788, metadata !2, metadata !"unsigned int", metadata !2, i32 0, i64 32, i64 32, i64 0, i32 0, i32 7} ; [ DW_TAG_base_type ]
!75 = metadata !{i32 458798, i32 0, metadata !15, metadata !"ap_int_base", metadata !"ap_int_base", metadata !"", metadata !16, i32 1370, metadata !76, i1 false, i1 false, i32 0, i32 0, null, i1 false} ; [ DW_TAG_subprogram ]
!76 = metadata !{i32 458773, metadata !2, metadata !"", metadata !2, i32 0, i64 0, i64 0, i64 0, i32 0, null, metadata !77, i32 0, null} ; [ DW_TAG_subroutine_type ]
!77 = metadata !{null, metadata !46, metadata !78}
!78 = metadata !{i32 458788, metadata !2, metadata !"long int", metadata !2, i32 0, i64 32, i64 32, i64 0, i32 0, i32 5} ; [ DW_TAG_base_type ]
!79 = metadata !{i32 458798, i32 0, metadata !15, metadata !"ap_int_base", metadata !"ap_int_base", metadata !"", metadata !16, i32 1371, metadata !80, i1 false, i1 false, i32 0, i32 0, null, i1 false} ; [ DW_TAG_subprogram ]
!80 = metadata !{i32 458773, metadata !2, metadata !"", metadata !2, i32 0, i64 0, i64 0, i64 0, i32 0, null, metadata !81, i32 0, null} ; [ DW_TAG_subroutine_type ]
!81 = metadata !{null, metadata !46, metadata !82}
!82 = metadata !{i32 458788, metadata !2, metadata !"long unsigned int", metadata !2, i32 0, i64 32, i64 32, i64 0, i32 0, i32 7} ; [ DW_TAG_base_type ]
!83 = metadata !{i32 458798, i32 0, metadata !15, metadata !"ap_int_base", metadata !"ap_int_base", metadata !"", metadata !16, i32 1372, metadata !84, i1 false, i1 false, i32 0, i32 0, null, i1 false} ; [ DW_TAG_subprogram ]
!84 = metadata !{i32 458773, metadata !2, metadata !"", metadata !2, i32 0, i64 0, i64 0, i64 0, i32 0, null, metadata !85, i32 0, null} ; [ DW_TAG_subroutine_type ]
!85 = metadata !{null, metadata !46, metadata !86}
!86 = metadata !{i32 458788, metadata !2, metadata !"long long int", metadata !2, i32 0, i64 64, i64 64, i64 0, i32 0, i32 5} ; [ DW_TAG_base_type ]
!87 = metadata !{i32 458798, i32 0, metadata !15, metadata !"ap_int_base", metadata !"ap_int_base", metadata !"", metadata !16, i32 1373, metadata !88, i1 false, i1 false, i32 0, i32 0, null, i1 false} ; [ DW_TAG_subprogram ]
!88 = metadata !{i32 458773, metadata !2, metadata !"", metadata !2, i32 0, i64 0, i64 0, i64 0, i32 0, null, metadata !89, i32 0, null} ; [ DW_TAG_subroutine_type ]
!89 = metadata !{null, metadata !46, metadata !40}
!90 = metadata !{i32 458798, i32 0, metadata !15, metadata !"ap_int_base", metadata !"ap_int_base", metadata !"", metadata !16, i32 1374, metadata !91, i1 false, i1 false, i32 0, i32 0, null, i1 false} ; [ DW_TAG_subprogram ]
!91 = metadata !{i32 458773, metadata !2, metadata !"", metadata !2, i32 0, i64 0, i64 0, i64 0, i32 0, null, metadata !92, i32 0, null} ; [ DW_TAG_subroutine_type ]
!92 = metadata !{null, metadata !46, metadata !93}
!93 = metadata !{i32 458788, metadata !2, metadata !"float", metadata !2, i32 0, i64 32, i64 32, i64 0, i32 0, i32 4} ; [ DW_TAG_base_type ]
!94 = metadata !{i32 458798, i32 0, metadata !15, metadata !"ap_int_base", metadata !"ap_int_base", metadata !"", metadata !16, i32 1375, metadata !95, i1 false, i1 false, i32 0, i32 0, null, i1 false} ; [ DW_TAG_subprogram ]
!95 = metadata !{i32 458773, metadata !2, metadata !"", metadata !2, i32 0, i64 0, i64 0, i64 0, i32 0, null, metadata !96, i32 0, null} ; [ DW_TAG_subroutine_type ]
!96 = metadata !{null, metadata !46, metadata !97}
!97 = metadata !{i32 458788, metadata !2, metadata !"double", metadata !2, i32 0, i64 64, i64 64, i64 0, i32 0, i32 4} ; [ DW_TAG_base_type ]
!98 = metadata !{i32 458798, i32 0, metadata !15, metadata !"ap_int_base", metadata !"ap_int_base", metadata !"", metadata !16, i32 1402, metadata !99, i1 false, i1 false, i32 0, i32 0, null, i1 false} ; [ DW_TAG_subprogram ]
!99 = metadata !{i32 458773, metadata !2, metadata !"", metadata !2, i32 0, i64 0, i64 0, i64 0, i32 0, null, metadata !100, i32 0, null} ; [ DW_TAG_subroutine_type ]
!100 = metadata !{null, metadata !46, metadata !101}
!101 = metadata !{i32 458767, metadata !2, metadata !"", metadata !2, i32 0, i64 32, i64 32, i64 0, i32 0, metadata !102} ; [ DW_TAG_pointer_type ]
!102 = metadata !{i32 458790, metadata !2, metadata !"", metadata !2, i32 0, i64 8, i64 8, i64 0, i32 0, metadata !103} ; [ DW_TAG_const_type ]
!103 = metadata !{i32 458788, metadata !2, metadata !"char", metadata !2, i32 0, i64 8, i64 8, i64 0, i32 0, i32 6} ; [ DW_TAG_base_type ]
!104 = metadata !{i32 458798, i32 0, metadata !15, metadata !"ap_int_base", metadata !"ap_int_base", metadata !"", metadata !16, i32 1408, metadata !105, i1 false, i1 false, i32 0, i32 0, null, i1 false} ; [ DW_TAG_subprogram ]
!105 = metadata !{i32 458773, metadata !2, metadata !"", metadata !2, i32 0, i64 0, i64 0, i64 0, i32 0, null, metadata !106, i32 0, null} ; [ DW_TAG_subroutine_type ]
!106 = metadata !{null, metadata !46, metadata !101, metadata !54}
!107 = metadata !{i32 458798, i32 0, metadata !15, metadata !"read", metadata !"read", metadata !"_ZNV11ap_int_baseILi8ELb0EE4readEv", metadata !16, i32 1428, metadata !108, i1 false, i1 false, i32 0, i32 0, null, i1 false} ; [ DW_TAG_subprogram ]
!108 = metadata !{i32 458773, metadata !2, metadata !"", metadata !2, i32 0, i64 0, i64 0, i64 0, i32 0, null, metadata !109, i32 0, null} ; [ DW_TAG_subroutine_type ]
!109 = metadata !{metadata !15, metadata !110}
!110 = metadata !{i32 458767, metadata !2, metadata !"", metadata !2, i32 0, i64 32, i64 32, i64 0, i32 64, metadata !111} ; [ DW_TAG_pointer_type ]
!111 = metadata !{i32 458805, metadata !2, metadata !"", metadata !2, i32 0, i64 8, i64 8, i64 0, i32 0, metadata !15} ; [ DW_TAG_volatile_type ]
!112 = metadata !{i32 458798, i32 0, metadata !15, metadata !"write", metadata !"write", metadata !"_ZNV11ap_int_baseILi8ELb0EE5writeERKS0_", metadata !16, i32 1434, metadata !113, i1 false, i1 false, i32 0, i32 0, null, i1 false} ; [ DW_TAG_subprogram ]
!113 = metadata !{i32 458773, metadata !2, metadata !"", metadata !2, i32 0, i64 0, i64 0, i64 0, i32 0, null, metadata !114, i32 0, null} ; [ DW_TAG_subroutine_type ]
!114 = metadata !{null, metadata !110, metadata !115}
!115 = metadata !{i32 458768, metadata !2, metadata !"", metadata !2, i32 0, i64 32, i64 32, i64 0, i32 0, metadata !116} ; [ DW_TAG_reference_type ]
!116 = metadata !{i32 458790, metadata !2, metadata !"", metadata !2, i32 0, i64 8, i64 8, i64 0, i32 0, metadata !15} ; [ DW_TAG_const_type ]
!117 = metadata !{i32 458798, i32 0, metadata !15, metadata !"operator=", metadata !"operator=", metadata !"_ZNV11ap_int_baseILi8ELb0EEaSERVKS0_", metadata !16, i32 1446, metadata !118, i1 false, i1 false, i32 0, i32 0, null, i1 false} ; [ DW_TAG_subprogram ]
!118 = metadata !{i32 458773, metadata !2, metadata !"", metadata !2, i32 0, i64 0, i64 0, i64 0, i32 0, null, metadata !119, i32 0, null} ; [ DW_TAG_subroutine_type ]
!119 = metadata !{null, metadata !110, metadata !120}
!120 = metadata !{i32 458768, metadata !2, metadata !"", metadata !2, i32 0, i64 32, i64 32, i64 0, i32 0, metadata !121} ; [ DW_TAG_reference_type ]
!121 = metadata !{i32 458790, metadata !2, metadata !"", metadata !2, i32 0, i64 8, i64 8, i64 0, i32 0, metadata !111} ; [ DW_TAG_const_type ]
!122 = metadata !{i32 458798, i32 0, metadata !15, metadata !"operator=", metadata !"operator=", metadata !"_ZNV11ap_int_baseILi8ELb0EEaSERKS0_", metadata !16, i32 1455, metadata !113, i1 false, i1 false, i32 0, i32 0, null, i1 false} ; [ DW_TAG_subprogram ]
!123 = metadata !{i32 458798, i32 0, metadata !15, metadata !"operator=", metadata !"operator=", metadata !"_ZN11ap_int_baseILi8ELb0EEaSERVKS0_", metadata !16, i32 1478, metadata !124, i1 false, i1 false, i32 0, i32 0, null, i1 false} ; [ DW_TAG_subprogram ]
!124 = metadata !{i32 458773, metadata !2, metadata !"", metadata !2, i32 0, i64 0, i64 0, i64 0, i32 0, null, metadata !125, i32 0, null} ; [ DW_TAG_subroutine_type ]
!125 = metadata !{metadata !126, metadata !46, metadata !120}
!126 = metadata !{i32 458768, metadata !2, metadata !"ap_int_base<8,false>", metadata !2, i32 0, i64 32, i64 32, i64 0, i32 0, metadata !15} ; [ DW_TAG_reference_type ]
!127 = metadata !{i32 458798, i32 0, metadata !15, metadata !"operator=", metadata !"operator=", metadata !"_ZN11ap_int_baseILi8ELb0EEaSERKS0_", metadata !16, i32 1483, metadata !128, i1 false, i1 false, i32 0, i32 0, null, i1 false} ; [ DW_TAG_subprogram ]
!128 = metadata !{i32 458773, metadata !2, metadata !"", metadata !2, i32 0, i64 0, i64 0, i64 0, i32 0, null, metadata !129, i32 0, null} ; [ DW_TAG_subroutine_type ]
!129 = metadata !{metadata !126, metadata !46, metadata !115}
!130 = metadata !{i32 458798, i32 0, metadata !15, metadata !"operator=", metadata !"operator=", metadata !"_ZN11ap_int_baseILi8ELb0EEaSEPKc", metadata !16, i32 1487, metadata !131, i1 false, i1 false, i32 0, i32 0, null, i1 false} ; [ DW_TAG_subprogram ]
!131 = metadata !{i32 458773, metadata !2, metadata !"", metadata !2, i32 0, i64 0, i64 0, i64 0, i32 0, null, metadata !132, i32 0, null} ; [ DW_TAG_subroutine_type ]
!132 = metadata !{metadata !126, metadata !46, metadata !101}
!133 = metadata !{i32 458798, i32 0, metadata !15, metadata !"set", metadata !"set", metadata !"_ZN11ap_int_baseILi8ELb0EE3setEPKca", metadata !16, i32 1494, metadata !134, i1 false, i1 false, i32 0, i32 0, null, i1 false} ; [ DW_TAG_subprogram ]
!134 = metadata !{i32 458773, metadata !2, metadata !"", metadata !2, i32 0, i64 0, i64 0, i64 0, i32 0, null, metadata !135, i32 0, null} ; [ DW_TAG_subroutine_type ]
!135 = metadata !{metadata !126, metadata !46, metadata !101, metadata !54}
!136 = metadata !{i32 458798, i32 0, metadata !15, metadata !"operator=", metadata !"operator=", metadata !"_ZN11ap_int_baseILi8ELb0EEaSEy", metadata !16, i32 1502, metadata !137, i1 false, i1 false, i32 0, i32 0, null, i1 false} ; [ DW_TAG_subprogram ]
!137 = metadata !{i32 458773, metadata !2, metadata !"", metadata !2, i32 0, i64 0, i64 0, i64 0, i32 0, null, metadata !138, i32 0, null} ; [ DW_TAG_subroutine_type ]
!138 = metadata !{metadata !126, metadata !46, metadata !40}
!139 = metadata !{i32 458798, i32 0, metadata !15, metadata !"operator=", metadata !"operator=", metadata !"_ZN11ap_int_baseILi8ELb0EEaSEx", metadata !16, i32 1507, metadata !140, i1 false, i1 false, i32 0, i32 0, null, i1 false} ; [ DW_TAG_subprogram ]
!140 = metadata !{i32 458773, metadata !2, metadata !"", metadata !2, i32 0, i64 0, i64 0, i64 0, i32 0, null, metadata !141, i32 0, null} ; [ DW_TAG_subroutine_type ]
!141 = metadata !{metadata !126, metadata !46, metadata !86}
!142 = metadata !{i32 458798, i32 0, metadata !15, metadata !"to_int", metadata !"to_int", metadata !"_ZNK11ap_int_baseILi8ELb0EE6to_intEv", metadata !16, i32 1553, metadata !143, i1 false, i1 true, i32 0, i32 0, null, i1 false} ; [ DW_TAG_subprogram ]
!143 = metadata !{i32 458773, metadata !2, metadata !"", metadata !2, i32 0, i64 0, i64 0, i64 0, i32 0, null, metadata !144, i32 0, null} ; [ DW_TAG_subroutine_type ]
!144 = metadata !{metadata !70, metadata !145}
!145 = metadata !{i32 458767, metadata !2, metadata !"", metadata !2, i32 0, i64 32, i64 32, i64 0, i32 64, metadata !116} ; [ DW_TAG_pointer_type ]
!146 = metadata !{i32 458798, i32 0, metadata !15, metadata !"to_uint", metadata !"to_uint", metadata !"_ZNK11ap_int_baseILi8ELb0EE7to_uintEv", metadata !16, i32 1554, metadata !147, i1 false, i1 false, i32 0, i32 0, null, i1 false} ; [ DW_TAG_subprogram ]
!147 = metadata !{i32 458773, metadata !2, metadata !"", metadata !2, i32 0, i64 0, i64 0, i64 0, i32 0, null, metadata !148, i32 0, null} ; [ DW_TAG_subroutine_type ]
!148 = metadata !{metadata !74, metadata !145}
!149 = metadata !{i32 458798, i32 0, metadata !15, metadata !"to_long", metadata !"to_long", metadata !"_ZNK11ap_int_baseILi8ELb0EE7to_longEv", metadata !16, i32 1555, metadata !150, i1 false, i1 false, i32 0, i32 0, null, i1 false} ; [ DW_TAG_subprogram ]
!150 = metadata !{i32 458773, metadata !2, metadata !"", metadata !2, i32 0, i64 0, i64 0, i64 0, i32 0, null, metadata !151, i32 0, null} ; [ DW_TAG_subroutine_type ]
!151 = metadata !{metadata !78, metadata !145}
!152 = metadata !{i32 458798, i32 0, metadata !15, metadata !"to_ulong", metadata !"to_ulong", metadata !"_ZNK11ap_int_baseILi8ELb0EE8to_ulongEv", metadata !16, i32 1556, metadata !153, i1 false, i1 false, i32 0, i32 0, null, i1 false} ; [ DW_TAG_subprogram ]
!153 = metadata !{i32 458773, metadata !2, metadata !"", metadata !2, i32 0, i64 0, i64 0, i64 0, i32 0, null, metadata !154, i32 0, null} ; [ DW_TAG_subroutine_type ]
!154 = metadata !{metadata !82, metadata !145}
!155 = metadata !{i32 458798, i32 0, metadata !15, metadata !"to_int64", metadata !"to_int64", metadata !"_ZNK11ap_int_baseILi8ELb0EE8to_int64Ev", metadata !16, i32 1557, metadata !156, i1 false, i1 false, i32 0, i32 0, null, i1 false} ; [ DW_TAG_subprogram ]
!156 = metadata !{i32 458773, metadata !2, metadata !"", metadata !2, i32 0, i64 0, i64 0, i64 0, i32 0, null, metadata !157, i32 0, null} ; [ DW_TAG_subroutine_type ]
!157 = metadata !{metadata !158, metadata !145}
!158 = metadata !{i32 458774, metadata !2, metadata !"ap_slong", metadata !16, i32 65, i64 0, i64 0, i64 0, i32 0, metadata !86} ; [ DW_TAG_typedef ]
!159 = metadata !{i32 458798, i32 0, metadata !15, metadata !"to_uint64", metadata !"to_uint64", metadata !"_ZNK11ap_int_baseILi8ELb0EE9to_uint64Ev", metadata !16, i32 1558, metadata !160, i1 false, i1 false, i32 0, i32 0, null, i1 false} ; [ DW_TAG_subprogram ]
!160 = metadata !{i32 458773, metadata !2, metadata !"", metadata !2, i32 0, i64 0, i64 0, i64 0, i32 0, null, metadata !161, i32 0, null} ; [ DW_TAG_subroutine_type ]
!161 = metadata !{metadata !38, metadata !145}
!162 = metadata !{i32 458798, i32 0, metadata !15, metadata !"to_double", metadata !"to_double", metadata !"_ZNK11ap_int_baseILi8ELb0EE9to_doubleEv", metadata !16, i32 1559, metadata !163, i1 false, i1 false, i32 0, i32 0, null, i1 false} ; [ DW_TAG_subprogram ]
!163 = metadata !{i32 458773, metadata !2, metadata !"", metadata !2, i32 0, i64 0, i64 0, i64 0, i32 0, null, metadata !164, i32 0, null} ; [ DW_TAG_subroutine_type ]
!164 = metadata !{metadata !97, metadata !145}
!165 = metadata !{i32 458798, i32 0, metadata !15, metadata !"length", metadata !"length", metadata !"_ZNK11ap_int_baseILi8ELb0EE6lengthEv", metadata !16, i32 1572, metadata !143, i1 false, i1 true, i32 0, i32 0, null, i1 false} ; [ DW_TAG_subprogram ]
!166 = metadata !{i32 458798, i32 0, metadata !15, metadata !"length", metadata !"length", metadata !"_ZNVK11ap_int_baseILi8ELb0EE6lengthEv", metadata !16, i32 1573, metadata !167, i1 false, i1 false, i32 0, i32 0, null, i1 false} ; [ DW_TAG_subprogram ]
!167 = metadata !{i32 458773, metadata !2, metadata !"", metadata !2, i32 0, i64 0, i64 0, i64 0, i32 0, null, metadata !168, i32 0, null} ; [ DW_TAG_subroutine_type ]
!168 = metadata !{metadata !70, metadata !169}
!169 = metadata !{i32 458767, metadata !2, metadata !"", metadata !2, i32 0, i64 32, i64 32, i64 0, i32 64, metadata !121} ; [ DW_TAG_pointer_type ]
!170 = metadata !{i32 458798, i32 0, metadata !15, metadata !"reverse", metadata !"reverse", metadata !"_ZN11ap_int_baseILi8ELb0EE7reverseEv", metadata !16, i32 1578, metadata !171, i1 false, i1 false, i32 0, i32 0, null, i1 false} ; [ DW_TAG_subprogram ]
!171 = metadata !{i32 458773, metadata !2, metadata !"", metadata !2, i32 0, i64 0, i64 0, i64 0, i32 0, null, metadata !172, i32 0, null} ; [ DW_TAG_subroutine_type ]
!172 = metadata !{metadata !126, metadata !46}
!173 = metadata !{i32 458798, i32 0, metadata !15, metadata !"iszero", metadata !"iszero", metadata !"_ZNK11ap_int_baseILi8ELb0EE6iszeroEv", metadata !16, i32 1584, metadata !174, i1 false, i1 false, i32 0, i32 0, null, i1 false} ; [ DW_TAG_subprogram ]
!174 = metadata !{i32 458773, metadata !2, metadata !"", metadata !2, i32 0, i64 0, i64 0, i64 0, i32 0, null, metadata !175, i32 0, null} ; [ DW_TAG_subroutine_type ]
!175 = metadata !{metadata !50, metadata !145}
!176 = metadata !{i32 458798, i32 0, metadata !15, metadata !"is_zero", metadata !"is_zero", metadata !"_ZNK11ap_int_baseILi8ELb0EE7is_zeroEv", metadata !16, i32 1589, metadata !174, i1 false, i1 false, i32 0, i32 0, null, i1 false} ; [ DW_TAG_subprogram ]
!177 = metadata !{i32 458798, i32 0, metadata !15, metadata !"sign", metadata !"sign", metadata !"_ZNK11ap_int_baseILi8ELb0EE4signEv", metadata !16, i32 1594, metadata !174, i1 false, i1 false, i32 0, i32 0, null, i1 false} ; [ DW_TAG_subprogram ]
!178 = metadata !{i32 458798, i32 0, metadata !15, metadata !"clear", metadata !"clear", metadata !"_ZN11ap_int_baseILi8ELb0EE5clearEi", metadata !16, i32 1602, metadata !68, i1 false, i1 false, i32 0, i32 0, null, i1 false} ; [ DW_TAG_subprogram ]
!179 = metadata !{i32 458798, i32 0, metadata !15, metadata !"invert", metadata !"invert", metadata !"_ZN11ap_int_baseILi8ELb0EE6invertEi", metadata !16, i32 1608, metadata !68, i1 false, i1 false, i32 0, i32 0, null, i1 false} ; [ DW_TAG_subprogram ]
!180 = metadata !{i32 458798, i32 0, metadata !15, metadata !"test", metadata !"test", metadata !"_ZNK11ap_int_baseILi8ELb0EE4testEi", metadata !16, i32 1616, metadata !181, i1 false, i1 false, i32 0, i32 0, null, i1 false} ; [ DW_TAG_subprogram ]
!181 = metadata !{i32 458773, metadata !2, metadata !"", metadata !2, i32 0, i64 0, i64 0, i64 0, i32 0, null, metadata !182, i32 0, null} ; [ DW_TAG_subroutine_type ]
!182 = metadata !{metadata !50, metadata !145, metadata !70}
!183 = metadata !{i32 458798, i32 0, metadata !15, metadata !"set", metadata !"set", metadata !"_ZN11ap_int_baseILi8ELb0EE3setEi", metadata !16, i32 1622, metadata !68, i1 false, i1 false, i32 0, i32 0, null, i1 false} ; [ DW_TAG_subprogram ]
!184 = metadata !{i32 458798, i32 0, metadata !15, metadata !"set", metadata !"set", metadata !"_ZN11ap_int_baseILi8ELb0EE3setEib", metadata !16, i32 1628, metadata !185, i1 false, i1 false, i32 0, i32 0, null, i1 false} ; [ DW_TAG_subprogram ]
!185 = metadata !{i32 458773, metadata !2, metadata !"", metadata !2, i32 0, i64 0, i64 0, i64 0, i32 0, null, metadata !186, i32 0, null} ; [ DW_TAG_subroutine_type ]
!186 = metadata !{null, metadata !46, metadata !70, metadata !50}
!187 = metadata !{i32 458798, i32 0, metadata !15, metadata !"lrotate", metadata !"lrotate", metadata !"_ZN11ap_int_baseILi8ELb0EE7lrotateEi", metadata !16, i32 1635, metadata !68, i1 false, i1 false, i32 0, i32 0, null, i1 false} ; [ DW_TAG_subprogram ]
!188 = metadata !{i32 458798, i32 0, metadata !15, metadata !"rrotate", metadata !"rrotate", metadata !"_ZN11ap_int_baseILi8ELb0EE7rrotateEi", metadata !16, i32 1644, metadata !68, i1 false, i1 false, i32 0, i32 0, null, i1 false} ; [ DW_TAG_subprogram ]
!189 = metadata !{i32 458798, i32 0, metadata !15, metadata !"set_bit", metadata !"set_bit", metadata !"_ZN11ap_int_baseILi8ELb0EE7set_bitEib", metadata !16, i32 1652, metadata !185, i1 false, i1 false, i32 0, i32 0, null, i1 false} ; [ DW_TAG_subprogram ]
!190 = metadata !{i32 458798, i32 0, metadata !15, metadata !"get_bit", metadata !"get_bit", metadata !"_ZNK11ap_int_baseILi8ELb0EE7get_bitEi", metadata !16, i32 1657, metadata !181, i1 false, i1 false, i32 0, i32 0, null, i1 false} ; [ DW_TAG_subprogram ]
!191 = metadata !{i32 458798, i32 0, metadata !15, metadata !"b_not", metadata !"b_not", metadata !"_ZN11ap_int_baseILi8ELb0EE5b_notEv", metadata !16, i32 1662, metadata !44, i1 false, i1 false, i32 0, i32 0, null, i1 false} ; [ DW_TAG_subprogram ]
!192 = metadata !{i32 458798, i32 0, metadata !15, metadata !"operator++", metadata !"operator++", metadata !"_ZN11ap_int_baseILi8ELb0EEppEv", metadata !16, i32 1733, metadata !171, i1 false, i1 false, i32 0, i32 0, null, i1 false} ; [ DW_TAG_subprogram ]
!193 = metadata !{i32 458798, i32 0, metadata !15, metadata !"operator--", metadata !"operator--", metadata !"_ZN11ap_int_baseILi8ELb0EEmmEv", metadata !16, i32 1737, metadata !171, i1 false, i1 false, i32 0, i32 0, null, i1 false} ; [ DW_TAG_subprogram ]
!194 = metadata !{i32 458798, i32 0, metadata !15, metadata !"operator++", metadata !"operator++", metadata !"_ZN11ap_int_baseILi8ELb0EEppEi", metadata !16, i32 1745, metadata !195, i1 false, i1 false, i32 0, i32 0, null, i1 false} ; [ DW_TAG_subprogram ]
!195 = metadata !{i32 458773, metadata !2, metadata !"", metadata !2, i32 0, i64 0, i64 0, i64 0, i32 0, null, metadata !196, i32 0, null} ; [ DW_TAG_subroutine_type ]
!196 = metadata !{metadata !116, metadata !46, metadata !70}
!197 = metadata !{i32 458798, i32 0, metadata !15, metadata !"operator--", metadata !"operator--", metadata !"_ZN11ap_int_baseILi8ELb0EEmmEi", metadata !16, i32 1750, metadata !195, i1 false, i1 false, i32 0, i32 0, null, i1 false} ; [ DW_TAG_subprogram ]
!198 = metadata !{i32 458798, i32 0, metadata !15, metadata !"operator+", metadata !"operator+", metadata !"_ZN11ap_int_baseILi8ELb0EEpsEv", metadata !16, i32 1759, metadata !199, i1 false, i1 false, i32 0, i32 0, null, i1 false} ; [ DW_TAG_subprogram ]
!199 = metadata !{i32 458773, metadata !2, metadata !"", metadata !2, i32 0, i64 0, i64 0, i64 0, i32 0, null, metadata !200, i32 0, null} ; [ DW_TAG_subroutine_type ]
!200 = metadata !{metadata !15, metadata !46}
!201 = metadata !{i32 458798, i32 0, metadata !15, metadata !"operator-", metadata !"operator-", metadata !"_ZNK11ap_int_baseILi8ELb0EEngEv", metadata !16, i32 1762, metadata !202, i1 false, i1 false, i32 0, i32 0, null, i1 false} ; [ DW_TAG_subprogram ]
!202 = metadata !{i32 458773, metadata !2, metadata !"", metadata !2, i32 0, i64 0, i64 0, i64 0, i32 0, null, metadata !203, i32 0, null} ; [ DW_TAG_subroutine_type ]
!203 = metadata !{metadata !204, metadata !145}
!204 = metadata !{i32 458771, metadata !2, metadata !"ap_int_base<9,true>", metadata !16, i32 1306, i64 0, i64 0, i64 0, i32 4, null, null, i32 0, null} ; [ DW_TAG_structure_type ]
!205 = metadata !{i32 458798, i32 0, metadata !15, metadata !"operator!", metadata !"operator!", metadata !"_ZNK11ap_int_baseILi8ELb0EEntEv", metadata !16, i32 1769, metadata !174, i1 false, i1 false, i32 0, i32 0, null, i1 false} ; [ DW_TAG_subprogram ]
!206 = metadata !{i32 458798, i32 0, metadata !15, metadata !"operator~", metadata !"operator~", metadata !"_ZNK11ap_int_baseILi8ELb0EEcoEv", metadata !16, i32 1776, metadata !202, i1 false, i1 false, i32 0, i32 0, null, i1 false} ; [ DW_TAG_subprogram ]
!207 = metadata !{i32 458798, i32 0, metadata !15, metadata !"range", metadata !"range", metadata !"_ZN11ap_int_baseILi8ELb0EE5rangeEii", metadata !16, i32 1901, metadata !208, i1 false, i1 false, i32 0, i32 0, null, i1 false} ; [ DW_TAG_subprogram ]
!208 = metadata !{i32 458773, metadata !2, metadata !"", metadata !2, i32 0, i64 0, i64 0, i64 0, i32 0, null, metadata !209, i32 0, null} ; [ DW_TAG_subroutine_type ]
!209 = metadata !{metadata !210, metadata !46, metadata !70, metadata !70}
!210 = metadata !{i32 458771, metadata !2, metadata !"ap_range_ref<8,false>", metadata !16, i32 871, i64 0, i64 0, i64 0, i32 4, null, null, i32 0, null} ; [ DW_TAG_structure_type ]
!211 = metadata !{i32 458798, i32 0, metadata !15, metadata !"operator()", metadata !"operator()", metadata !"_ZN11ap_int_baseILi8ELb0EEclEii", metadata !16, i32 1907, metadata !208, i1 false, i1 false, i32 0, i32 0, null, i1 false} ; [ DW_TAG_subprogram ]
!212 = metadata !{i32 458798, i32 0, metadata !15, metadata !"range", metadata !"range", metadata !"_ZNK11ap_int_baseILi8ELb0EE5rangeEii", metadata !16, i32 1913, metadata !213, i1 false, i1 false, i32 0, i32 0, null, i1 false} ; [ DW_TAG_subprogram ]
!213 = metadata !{i32 458773, metadata !2, metadata !"", metadata !2, i32 0, i64 0, i64 0, i64 0, i32 0, null, metadata !214, i32 0, null} ; [ DW_TAG_subroutine_type ]
!214 = metadata !{metadata !210, metadata !145, metadata !70, metadata !70}
!215 = metadata !{i32 458798, i32 0, metadata !15, metadata !"operator()", metadata !"operator()", metadata !"_ZNK11ap_int_baseILi8ELb0EEclEii", metadata !16, i32 1919, metadata !213, i1 false, i1 false, i32 0, i32 0, null, i1 false} ; [ DW_TAG_subprogram ]
!216 = metadata !{i32 458798, i32 0, metadata !15, metadata !"operator[]", metadata !"operator[]", metadata !"_ZN11ap_int_baseILi8ELb0EEixEi", metadata !16, i32 1978, metadata !217, i1 false, i1 false, i32 0, i32 0, null, i1 false} ; [ DW_TAG_subprogram ]
!217 = metadata !{i32 458773, metadata !2, metadata !"", metadata !2, i32 0, i64 0, i64 0, i64 0, i32 0, null, metadata !218, i32 0, null} ; [ DW_TAG_subroutine_type ]
!218 = metadata !{metadata !219, metadata !46, metadata !70}
!219 = metadata !{i32 458771, metadata !2, metadata !"ap_bit_ref<8,false>", metadata !16, i32 1106, i64 0, i64 0, i64 0, i32 4, null, null, i32 0, null} ; [ DW_TAG_structure_type ]
!220 = metadata !{i32 458798, i32 0, metadata !15, metadata !"operator[]", metadata !"operator[]", metadata !"_ZNK11ap_int_baseILi8ELb0EEixEi", metadata !16, i32 1992, metadata !181, i1 false, i1 false, i32 0, i32 0, null, i1 false} ; [ DW_TAG_subprogram ]
!221 = metadata !{i32 458798, i32 0, metadata !15, metadata !"bit", metadata !"bit", metadata !"_ZN11ap_int_baseILi8ELb0EE3bitEi", metadata !16, i32 2006, metadata !217, i1 false, i1 false, i32 0, i32 0, null, i1 false} ; [ DW_TAG_subprogram ]
!222 = metadata !{i32 458798, i32 0, metadata !15, metadata !"bit", metadata !"bit", metadata !"_ZNK11ap_int_baseILi8ELb0EE3bitEi", metadata !16, i32 2020, metadata !181, i1 false, i1 false, i32 0, i32 0, null, i1 false} ; [ DW_TAG_subprogram ]
!223 = metadata !{i32 458798, i32 0, metadata !15, metadata !"and_reduce", metadata !"and_reduce", metadata !"_ZN11ap_int_baseILi8ELb0EE10and_reduceEv", metadata !16, i32 2200, metadata !224, i1 false, i1 false, i32 0, i32 0, null, i1 false} ; [ DW_TAG_subprogram ]
!224 = metadata !{i32 458773, metadata !2, metadata !"", metadata !2, i32 0, i64 0, i64 0, i64 0, i32 0, null, metadata !225, i32 0, null} ; [ DW_TAG_subroutine_type ]
!225 = metadata !{metadata !50, metadata !46}
!226 = metadata !{i32 458798, i32 0, metadata !15, metadata !"nand_reduce", metadata !"nand_reduce", metadata !"_ZN11ap_int_baseILi8ELb0EE11nand_reduceEv", metadata !16, i32 2203, metadata !224, i1 false, i1 false, i32 0, i32 0, null, i1 false} ; [ DW_TAG_subprogram ]
!227 = metadata !{i32 458798, i32 0, metadata !15, metadata !"or_reduce", metadata !"or_reduce", metadata !"_ZN11ap_int_baseILi8ELb0EE9or_reduceEv", metadata !16, i32 2206, metadata !224, i1 false, i1 false, i32 0, i32 0, null, i1 false} ; [ DW_TAG_subprogram ]
!228 = metadata !{i32 458798, i32 0, metadata !15, metadata !"nor_reduce", metadata !"nor_reduce", metadata !"_ZN11ap_int_baseILi8ELb0EE10nor_reduceEv", metadata !16, i32 2209, metadata !224, i1 false, i1 false, i32 0, i32 0, null, i1 false} ; [ DW_TAG_subprogram ]
!229 = metadata !{i32 458798, i32 0, metadata !15, metadata !"xor_reduce", metadata !"xor_reduce", metadata !"_ZN11ap_int_baseILi8ELb0EE10xor_reduceEv", metadata !16, i32 2212, metadata !224, i1 false, i1 false, i32 0, i32 0, null, i1 false} ; [ DW_TAG_subprogram ]
!230 = metadata !{i32 458798, i32 0, metadata !15, metadata !"xnor_reduce", metadata !"xnor_reduce", metadata !"_ZN11ap_int_baseILi8ELb0EE11xnor_reduceEv", metadata !16, i32 2215, metadata !224, i1 false, i1 false, i32 0, i32 0, null, i1 false} ; [ DW_TAG_subprogram ]
!231 = metadata !{i32 458798, i32 0, metadata !15, metadata !"and_reduce", metadata !"and_reduce", metadata !"_ZNK11ap_int_baseILi8ELb0EE10and_reduceEv", metadata !16, i32 2219, metadata !174, i1 false, i1 false, i32 0, i32 0, null, i1 false} ; [ DW_TAG_subprogram ]
!232 = metadata !{i32 458798, i32 0, metadata !15, metadata !"nand_reduce", metadata !"nand_reduce", metadata !"_ZNK11ap_int_baseILi8ELb0EE11nand_reduceEv", metadata !16, i32 2222, metadata !174, i1 false, i1 false, i32 0, i32 0, null, i1 false} ; [ DW_TAG_subprogram ]
!233 = metadata !{i32 458798, i32 0, metadata !15, metadata !"or_reduce", metadata !"or_reduce", metadata !"_ZNK11ap_int_baseILi8ELb0EE9or_reduceEv", metadata !16, i32 2225, metadata !174, i1 false, i1 false, i32 0, i32 0, null, i1 false} ; [ DW_TAG_subprogram ]
!234 = metadata !{i32 458798, i32 0, metadata !15, metadata !"nor_reduce", metadata !"nor_reduce", metadata !"_ZNK11ap_int_baseILi8ELb0EE10nor_reduceEv", metadata !16, i32 2228, metadata !174, i1 false, i1 false, i32 0, i32 0, null, i1 false} ; [ DW_TAG_subprogram ]
!235 = metadata !{i32 458798, i32 0, metadata !15, metadata !"xor_reduce", metadata !"xor_reduce", metadata !"_ZNK11ap_int_baseILi8ELb0EE10xor_reduceEv", metadata !16, i32 2231, metadata !174, i1 false, i1 false, i32 0, i32 0, null, i1 false} ; [ DW_TAG_subprogram ]
!236 = metadata !{i32 458798, i32 0, metadata !15, metadata !"xnor_reduce", metadata !"xnor_reduce", metadata !"_ZNK11ap_int_baseILi8ELb0EE11xnor_reduceEv", metadata !16, i32 2234, metadata !174, i1 false, i1 false, i32 0, i32 0, null, i1 false} ; [ DW_TAG_subprogram ]
!237 = metadata !{i32 458798, i32 0, metadata !15, metadata !"to_string", metadata !"to_string", metadata !"_ZNK11ap_int_baseILi8ELb0EE9to_stringEPci8BaseModeb", metadata !16, i32 2241, metadata !238, i1 false, i1 false, i32 0, i32 0, null, i1 false} ; [ DW_TAG_subprogram ]
!238 = metadata !{i32 458773, metadata !2, metadata !"", metadata !2, i32 0, i64 0, i64 0, i64 0, i32 0, null, metadata !239, i32 0, null} ; [ DW_TAG_subroutine_type ]
!239 = metadata !{null, metadata !145, metadata !240, metadata !70, metadata !241, metadata !50}
!240 = metadata !{i32 458767, metadata !2, metadata !"", metadata !2, i32 0, i64 32, i64 32, i64 0, i32 0, metadata !103} ; [ DW_TAG_pointer_type ]
!241 = metadata !{i32 458756, metadata !2, metadata !"BaseMode", metadata !16, i32 551, i64 32, i64 32, i64 0, i32 0, null, metadata !242, i32 0, null} ; [ DW_TAG_enumeration_type ]
!242 = metadata !{metadata !243, metadata !244, metadata !245, metadata !246}
!243 = metadata !{i32 458792, metadata !"SC_BIN", i64 2} ; [ DW_TAG_enumerator ]
!244 = metadata !{i32 458792, metadata !"SC_OCT", i64 8} ; [ DW_TAG_enumerator ]
!245 = metadata !{i32 458792, metadata !"SC_DEC", i64 10} ; [ DW_TAG_enumerator ]
!246 = metadata !{i32 458792, metadata !"SC_HEX", i64 16} ; [ DW_TAG_enumerator ]
!247 = metadata !{i32 458798, i32 0, metadata !15, metadata !"to_string", metadata !"to_string", metadata !"_ZNK11ap_int_baseILi8ELb0EE9to_stringE8BaseModeb", metadata !16, i32 2268, metadata !248, i1 false, i1 false, i32 0, i32 0, null, i1 false} ; [ DW_TAG_subprogram ]
!248 = metadata !{i32 458773, metadata !2, metadata !"", metadata !2, i32 0, i64 0, i64 0, i64 0, i32 0, null, metadata !249, i32 0, null} ; [ DW_TAG_subroutine_type ]
!249 = metadata !{metadata !240, metadata !145, metadata !241, metadata !50}
!250 = metadata !{i32 458798, i32 0, metadata !15, metadata !"to_string", metadata !"to_string", metadata !"_ZNK11ap_int_baseILi8ELb0EE9to_stringEab", metadata !16, i32 2272, metadata !251, i1 false, i1 false, i32 0, i32 0, null, i1 false} ; [ DW_TAG_subprogram ]
!251 = metadata !{i32 458773, metadata !2, metadata !"", metadata !2, i32 0, i64 0, i64 0, i64 0, i32 0, null, metadata !252, i32 0, null} ; [ DW_TAG_subroutine_type ]
!252 = metadata !{metadata !240, metadata !145, metadata !54, metadata !50}
!253 = metadata !{i32 458798, i32 0, metadata !11, metadata !"ap_uint", metadata !"ap_uint", metadata !"", metadata !12, i32 137, metadata !254, i1 false, i1 false, i32 0, i32 0, null, i1 false} ; [ DW_TAG_subprogram ]
!254 = metadata !{i32 458773, metadata !2, metadata !"", metadata !2, i32 0, i64 0, i64 0, i64 0, i32 0, null, metadata !255, i32 0, null} ; [ DW_TAG_subroutine_type ]
!255 = metadata !{null, metadata !256}
!256 = metadata !{i32 458767, metadata !2, metadata !"", metadata !2, i32 0, i64 32, i64 32, i64 0, i32 64, metadata !11} ; [ DW_TAG_pointer_type ]
!257 = metadata !{i32 458798, i32 0, metadata !11, metadata !"ap_uint", metadata !"ap_uint", metadata !"", metadata !12, i32 199, metadata !258, i1 false, i1 false, i32 0, i32 0, null, i1 false} ; [ DW_TAG_subprogram ]
!258 = metadata !{i32 458773, metadata !2, metadata !"", metadata !2, i32 0, i64 0, i64 0, i64 0, i32 0, null, metadata !259, i32 0, null} ; [ DW_TAG_subroutine_type ]
!259 = metadata !{null, metadata !256, metadata !50}
!260 = metadata !{i32 458798, i32 0, metadata !11, metadata !"ap_uint", metadata !"ap_uint", metadata !"", metadata !12, i32 200, metadata !261, i1 false, i1 false, i32 0, i32 0, null, i1 false} ; [ DW_TAG_subprogram ]
!261 = metadata !{i32 458773, metadata !2, metadata !"", metadata !2, i32 0, i64 0, i64 0, i64 0, i32 0, null, metadata !262, i32 0, null} ; [ DW_TAG_subroutine_type ]
!262 = metadata !{null, metadata !256, metadata !54}
!263 = metadata !{i32 458798, i32 0, metadata !11, metadata !"ap_uint", metadata !"ap_uint", metadata !"", metadata !12, i32 201, metadata !264, i1 false, i1 false, i32 0, i32 0, null, i1 false} ; [ DW_TAG_subprogram ]
!264 = metadata !{i32 458773, metadata !2, metadata !"", metadata !2, i32 0, i64 0, i64 0, i64 0, i32 0, null, metadata !265, i32 0, null} ; [ DW_TAG_subroutine_type ]
!265 = metadata !{null, metadata !256, metadata !58}
!266 = metadata !{i32 458798, i32 0, metadata !11, metadata !"ap_uint", metadata !"ap_uint", metadata !"", metadata !12, i32 202, metadata !267, i1 false, i1 false, i32 0, i32 0, null, i1 false} ; [ DW_TAG_subprogram ]
!267 = metadata !{i32 458773, metadata !2, metadata !"", metadata !2, i32 0, i64 0, i64 0, i64 0, i32 0, null, metadata !268, i32 0, null} ; [ DW_TAG_subroutine_type ]
!268 = metadata !{null, metadata !256, metadata !62}
!269 = metadata !{i32 458798, i32 0, metadata !11, metadata !"ap_uint", metadata !"ap_uint", metadata !"", metadata !12, i32 203, metadata !270, i1 false, i1 false, i32 0, i32 0, null, i1 false} ; [ DW_TAG_subprogram ]
!270 = metadata !{i32 458773, metadata !2, metadata !"", metadata !2, i32 0, i64 0, i64 0, i64 0, i32 0, null, metadata !271, i32 0, null} ; [ DW_TAG_subroutine_type ]
!271 = metadata !{null, metadata !256, metadata !66}
!272 = metadata !{i32 458798, i32 0, metadata !11, metadata !"ap_uint", metadata !"ap_uint", metadata !"", metadata !12, i32 204, metadata !273, i1 false, i1 false, i32 0, i32 0, null, i1 false} ; [ DW_TAG_subprogram ]
!273 = metadata !{i32 458773, metadata !2, metadata !"", metadata !2, i32 0, i64 0, i64 0, i64 0, i32 0, null, metadata !274, i32 0, null} ; [ DW_TAG_subroutine_type ]
!274 = metadata !{null, metadata !256, metadata !70}
!275 = metadata !{i32 458798, i32 0, metadata !11, metadata !"ap_uint", metadata !"ap_uint", metadata !"", metadata !12, i32 205, metadata !276, i1 false, i1 false, i32 0, i32 0, null, i1 false} ; [ DW_TAG_subprogram ]
!276 = metadata !{i32 458773, metadata !2, metadata !"", metadata !2, i32 0, i64 0, i64 0, i64 0, i32 0, null, metadata !277, i32 0, null} ; [ DW_TAG_subroutine_type ]
!277 = metadata !{null, metadata !256, metadata !74}
!278 = metadata !{i32 458798, i32 0, metadata !11, metadata !"ap_uint", metadata !"ap_uint", metadata !"", metadata !12, i32 206, metadata !279, i1 false, i1 false, i32 0, i32 0, null, i1 false} ; [ DW_TAG_subprogram ]
!279 = metadata !{i32 458773, metadata !2, metadata !"", metadata !2, i32 0, i64 0, i64 0, i64 0, i32 0, null, metadata !280, i32 0, null} ; [ DW_TAG_subroutine_type ]
!280 = metadata !{null, metadata !256, metadata !78}
!281 = metadata !{i32 458798, i32 0, metadata !11, metadata !"ap_uint", metadata !"ap_uint", metadata !"", metadata !12, i32 207, metadata !282, i1 false, i1 false, i32 0, i32 0, null, i1 false} ; [ DW_TAG_subprogram ]
!282 = metadata !{i32 458773, metadata !2, metadata !"", metadata !2, i32 0, i64 0, i64 0, i64 0, i32 0, null, metadata !283, i32 0, null} ; [ DW_TAG_subroutine_type ]
!283 = metadata !{null, metadata !256, metadata !82}
!284 = metadata !{i32 458798, i32 0, metadata !11, metadata !"ap_uint", metadata !"ap_uint", metadata !"", metadata !12, i32 208, metadata !285, i1 false, i1 false, i32 0, i32 0, null, i1 false} ; [ DW_TAG_subprogram ]
!285 = metadata !{i32 458773, metadata !2, metadata !"", metadata !2, i32 0, i64 0, i64 0, i64 0, i32 0, null, metadata !286, i32 0, null} ; [ DW_TAG_subroutine_type ]
!286 = metadata !{null, metadata !256, metadata !40}
!287 = metadata !{i32 458798, i32 0, metadata !11, metadata !"ap_uint", metadata !"ap_uint", metadata !"", metadata !12, i32 209, metadata !288, i1 false, i1 false, i32 0, i32 0, null, i1 false} ; [ DW_TAG_subprogram ]
!288 = metadata !{i32 458773, metadata !2, metadata !"", metadata !2, i32 0, i64 0, i64 0, i64 0, i32 0, null, metadata !289, i32 0, null} ; [ DW_TAG_subroutine_type ]
!289 = metadata !{null, metadata !256, metadata !86}
!290 = metadata !{i32 458798, i32 0, metadata !11, metadata !"ap_uint", metadata !"ap_uint", metadata !"", metadata !12, i32 210, metadata !291, i1 false, i1 false, i32 0, i32 0, null, i1 false} ; [ DW_TAG_subprogram ]
!291 = metadata !{i32 458773, metadata !2, metadata !"", metadata !2, i32 0, i64 0, i64 0, i64 0, i32 0, null, metadata !292, i32 0, null} ; [ DW_TAG_subroutine_type ]
!292 = metadata !{null, metadata !256, metadata !93}
!293 = metadata !{i32 458798, i32 0, metadata !11, metadata !"ap_uint", metadata !"ap_uint", metadata !"", metadata !12, i32 211, metadata !294, i1 false, i1 false, i32 0, i32 0, null, i1 false} ; [ DW_TAG_subprogram ]
!294 = metadata !{i32 458773, metadata !2, metadata !"", metadata !2, i32 0, i64 0, i64 0, i64 0, i32 0, null, metadata !295, i32 0, null} ; [ DW_TAG_subroutine_type ]
!295 = metadata !{null, metadata !256, metadata !97}
!296 = metadata !{i32 458798, i32 0, metadata !11, metadata !"ap_uint", metadata !"ap_uint", metadata !"", metadata !12, i32 213, metadata !297, i1 false, i1 false, i32 0, i32 0, null, i1 false} ; [ DW_TAG_subprogram ]
!297 = metadata !{i32 458773, metadata !2, metadata !"", metadata !2, i32 0, i64 0, i64 0, i64 0, i32 0, null, metadata !298, i32 0, null} ; [ DW_TAG_subroutine_type ]
!298 = metadata !{null, metadata !256, metadata !101}
!299 = metadata !{i32 458798, i32 0, metadata !11, metadata !"ap_uint", metadata !"ap_uint", metadata !"", metadata !12, i32 214, metadata !300, i1 false, i1 false, i32 0, i32 0, null, i1 false} ; [ DW_TAG_subprogram ]
!300 = metadata !{i32 458773, metadata !2, metadata !"", metadata !2, i32 0, i64 0, i64 0, i64 0, i32 0, null, metadata !301, i32 0, null} ; [ DW_TAG_subroutine_type ]
!301 = metadata !{null, metadata !256, metadata !101, metadata !54}
!302 = metadata !{i32 458798, i32 0, metadata !11, metadata !"operator=", metadata !"operator=", metadata !"_ZNV7ap_uintILi8EEaSERKS0_", metadata !12, i32 217, metadata !303, i1 false, i1 false, i32 0, i32 0, null, i1 false} ; [ DW_TAG_subprogram ]
!303 = metadata !{i32 458773, metadata !2, metadata !"", metadata !2, i32 0, i64 0, i64 0, i64 0, i32 0, null, metadata !304, i32 0, null} ; [ DW_TAG_subroutine_type ]
!304 = metadata !{null, metadata !305, metadata !307}
!305 = metadata !{i32 458767, metadata !2, metadata !"", metadata !2, i32 0, i64 32, i64 32, i64 0, i32 64, metadata !306} ; [ DW_TAG_pointer_type ]
!306 = metadata !{i32 458805, metadata !2, metadata !"", metadata !2, i32 0, i64 8, i64 8, i64 0, i32 0, metadata !11} ; [ DW_TAG_volatile_type ]
!307 = metadata !{i32 458768, metadata !2, metadata !"", metadata !2, i32 0, i64 32, i64 32, i64 0, i32 0, metadata !308} ; [ DW_TAG_reference_type ]
!308 = metadata !{i32 458790, metadata !2, metadata !"", metadata !2, i32 0, i64 8, i64 8, i64 0, i32 0, metadata !11} ; [ DW_TAG_const_type ]
!309 = metadata !{i32 458798, i32 0, metadata !11, metadata !"operator=", metadata !"operator=", metadata !"_ZNV7ap_uintILi8EEaSERVKS0_", metadata !12, i32 221, metadata !310, i1 false, i1 false, i32 0, i32 0, null, i1 false} ; [ DW_TAG_subprogram ]
!310 = metadata !{i32 458773, metadata !2, metadata !"", metadata !2, i32 0, i64 0, i64 0, i64 0, i32 0, null, metadata !311, i32 0, null} ; [ DW_TAG_subroutine_type ]
!311 = metadata !{null, metadata !305, metadata !312}
!312 = metadata !{i32 458768, metadata !2, metadata !"", metadata !2, i32 0, i64 32, i64 32, i64 0, i32 0, metadata !313} ; [ DW_TAG_reference_type ]
!313 = metadata !{i32 458790, metadata !2, metadata !"", metadata !2, i32 0, i64 8, i64 8, i64 0, i32 0, metadata !306} ; [ DW_TAG_const_type ]
!314 = metadata !{i32 458798, i32 0, metadata !11, metadata !"operator=", metadata !"operator=", metadata !"_ZN7ap_uintILi8EEaSERVKS0_", metadata !12, i32 225, metadata !315, i1 false, i1 false, i32 0, i32 0, null, i1 false} ; [ DW_TAG_subprogram ]
!315 = metadata !{i32 458773, metadata !2, metadata !"", metadata !2, i32 0, i64 0, i64 0, i64 0, i32 0, null, metadata !316, i32 0, null} ; [ DW_TAG_subroutine_type ]
!316 = metadata !{metadata !317, metadata !256, metadata !312}
!317 = metadata !{i32 458768, metadata !2, metadata !"ap_uint<8>", metadata !2, i32 0, i64 32, i64 32, i64 0, i32 0, metadata !11} ; [ DW_TAG_reference_type ]
!318 = metadata !{i32 458798, i32 0, metadata !11, metadata !"operator=", metadata !"operator=", metadata !"_ZN7ap_uintILi8EEaSERKS0_", metadata !12, i32 230, metadata !319, i1 false, i1 true, i32 0, i32 0, null, i1 false} ; [ DW_TAG_subprogram ]
!319 = metadata !{i32 458773, metadata !2, metadata !"", metadata !2, i32 0, i64 0, i64 0, i64 0, i32 0, null, metadata !320, i32 0, null} ; [ DW_TAG_subroutine_type ]
!320 = metadata !{metadata !317, metadata !256, metadata !307}
!321 = metadata !{i32 458765, metadata !8, metadata !"G", metadata !7, i32 56, i64 8, i64 8, i64 8, i32 0, metadata !11} ; [ DW_TAG_member ]
!322 = metadata !{i32 458765, metadata !8, metadata !"R", metadata !7, i32 57, i64 8, i64 8, i64 16, i32 0, metadata !11} ; [ DW_TAG_member ]
!323 = metadata !{i32 458798, i32 0, metadata !8, metadata !"operator=", metadata !"operator=", metadata !"_ZN6ap_rgbILi8ELi8ELi8EEaSERKS0_", metadata !7, i32 54, metadata !324, i1 false, i1 true, i32 0, i32 0, null, i1 true} ; [ DW_TAG_subprogram ]
!324 = metadata !{i32 458773, metadata !2, metadata !"", metadata !2, i32 0, i64 0, i64 0, i64 0, i32 0, null, metadata !325, i32 0, null} ; [ DW_TAG_subroutine_type ]
!325 = metadata !{metadata !326, metadata !327, metadata !328}
!326 = metadata !{i32 458768, metadata !2, metadata !"ap_rgb<8,8,8>", metadata !2, i32 0, i64 32, i64 32, i64 0, i32 0, metadata !8} ; [ DW_TAG_reference_type ]
!327 = metadata !{i32 458767, metadata !2, metadata !"", metadata !2, i32 0, i64 32, i64 32, i64 0, i32 64, metadata !8} ; [ DW_TAG_pointer_type ]
!328 = metadata !{i32 458768, metadata !2, metadata !"", metadata !2, i32 0, i64 32, i64 32, i64 0, i32 0, metadata !329} ; [ DW_TAG_reference_type ]
!329 = metadata !{i32 458790, metadata !2, metadata !"", metadata !2, i32 0, i64 24, i64 8, i64 0, i32 0, metadata !8} ; [ DW_TAG_const_type ]
!330 = metadata !{i32 458798, i32 0, metadata !8, metadata !"ap_rgb", metadata !"ap_rgb", metadata !"", metadata !7, i32 54, metadata !331, i1 false, i1 false, i32 0, i32 0, null, i1 true} ; [ DW_TAG_subprogram ]
!331 = metadata !{i32 458773, metadata !2, metadata !"", metadata !2, i32 0, i64 0, i64 0, i64 0, i32 0, null, metadata !332, i32 0, null} ; [ DW_TAG_subroutine_type ]
!332 = metadata !{null, metadata !327}
!333 = metadata !{i32 458767, metadata !2, metadata !"", metadata !2, i32 0, i64 32, i64 32, i64 0, i32 0, metadata !334} ; [ DW_TAG_pointer_type ]
!334 = metadata !{i32 458774, metadata !2, metadata !"WINDOW", metadata !335, i32 70, i64 0, i64 0, i64 0, i32 0, metadata !336} ; [ DW_TAG_typedef ]
!335 = metadata !{i32 458769, i32 0, i32 4, metadata !"sobel.h", metadata !"C:\5CWORK\5Csobel_variable\5Caxi_sobel\5Caxi_sobel/", metadata !"4.2.1 (Based on Apple Inc. build 5658) (LLVM build)", i1 false, i1 false, metadata !"", i32 0} ; [ DW_TAG_compile_unit ]
!336 = metadata !{i32 458771, metadata !2, metadata !"ap_window<unsigned char,3,3>", metadata !7, i32 176, i64 72, i64 8, i64 0, i32 0, null, metadata !337, i32 0, null} ; [ DW_TAG_structure_type ]
!337 = metadata !{metadata !338, metadata !342, metadata !346, metadata !349, metadata !350, metadata !351, metadata !352, metadata !353, metadata !356, metadata !357}
!338 = metadata !{i32 458765, metadata !336, metadata !"M", metadata !7, i32 178, i64 72, i64 8, i64 0, i32 0, metadata !339} ; [ DW_TAG_member ]
!339 = metadata !{i32 458753, metadata !2, metadata !"", metadata !2, i32 0, i64 72, i64 8, i64 0, i32 0, metadata !58, metadata !340, i32 0, null} ; [ DW_TAG_array_type ]
!340 = metadata !{metadata !341, metadata !341}
!341 = metadata !{i32 458785, i64 0, i64 2}       ; [ DW_TAG_subrange_type ]
!342 = metadata !{i32 458798, i32 0, metadata !336, metadata !"ap_window", metadata !"ap_window", metadata !"", metadata !7, i32 180, metadata !343, i1 false, i1 false, i32 0, i32 0, null, i1 false} ; [ DW_TAG_subprogram ]
!343 = metadata !{i32 458773, metadata !2, metadata !"", metadata !2, i32 0, i64 0, i64 0, i64 0, i32 0, null, metadata !344, i32 0, null} ; [ DW_TAG_subroutine_type ]
!344 = metadata !{null, metadata !345}
!345 = metadata !{i32 458767, metadata !2, metadata !"", metadata !2, i32 0, i64 32, i64 32, i64 0, i32 64, metadata !336} ; [ DW_TAG_pointer_type ]
!346 = metadata !{i32 458798, i32 0, metadata !336, metadata !"~ap_window", metadata !"~ap_window", metadata !"", metadata !7, i32 184, metadata !347, i1 false, i1 false, i32 0, i32 0, null, i1 false} ; [ DW_TAG_subprogram ]
!347 = metadata !{i32 458773, metadata !2, metadata !"", metadata !2, i32 0, i64 0, i64 0, i64 0, i32 0, null, metadata !348, i32 0, null} ; [ DW_TAG_subroutine_type ]
!348 = metadata !{null, metadata !345, metadata !70}
!349 = metadata !{i32 458798, i32 0, metadata !336, metadata !"shift_right", metadata !"shift_right", metadata !"_ZN9ap_windowIhLi3ELi3EE11shift_rightEv", metadata !7, i32 222, metadata !343, i1 false, i1 true, i32 0, i32 0, null, i1 false} ; [ DW_TAG_subprogram ]
!350 = metadata !{i32 458798, i32 0, metadata !336, metadata !"shift_left", metadata !"shift_left", metadata !"_ZN9ap_windowIhLi3ELi3EE10shift_leftEv", metadata !7, i32 240, metadata !343, i1 false, i1 false, i32 0, i32 0, null, i1 false} ; [ DW_TAG_subprogram ]
!351 = metadata !{i32 458798, i32 0, metadata !336, metadata !"shift_up", metadata !"shift_up", metadata !"_ZN9ap_windowIhLi3ELi3EE8shift_upEv", metadata !7, i32 258, metadata !343, i1 false, i1 false, i32 0, i32 0, null, i1 false} ; [ DW_TAG_subprogram ]
!352 = metadata !{i32 458798, i32 0, metadata !336, metadata !"shift_down", metadata !"shift_down", metadata !"_ZN9ap_windowIhLi3ELi3EE10shift_downEv", metadata !7, i32 276, metadata !343, i1 false, i1 false, i32 0, i32 0, null, i1 false} ; [ DW_TAG_subprogram ]
!353 = metadata !{i32 458798, i32 0, metadata !336, metadata !"insert", metadata !"insert", metadata !"_ZN9ap_windowIhLi3ELi3EE6insertEhii", metadata !7, i32 293, metadata !354, i1 false, i1 true, i32 0, i32 0, null, i1 false} ; [ DW_TAG_subprogram ]
!354 = metadata !{i32 458773, metadata !2, metadata !"", metadata !2, i32 0, i64 0, i64 0, i64 0, i32 0, null, metadata !355, i32 0, null} ; [ DW_TAG_subroutine_type ]
!355 = metadata !{null, metadata !345, metadata !58, metadata !70, metadata !70}
!356 = metadata !{i32 458798, i32 0, metadata !336, metadata !"print", metadata !"print", metadata !"_ZN9ap_windowIhLi3ELi3EE5printEv", metadata !7, i32 198, metadata !343, i1 false, i1 false, i32 0, i32 0, null, i1 false} ; [ DW_TAG_subprogram ]
!357 = metadata !{i32 458798, i32 0, metadata !336, metadata !"getval", metadata !"getval", metadata !"_ZN9ap_windowIhLi3ELi3EE6getvalEii", metadata !7, i32 303, metadata !358, i1 false, i1 true, i32 0, i32 0, null, i1 false} ; [ DW_TAG_subprogram ]
!358 = metadata !{i32 458773, metadata !2, metadata !"", metadata !2, i32 0, i64 0, i64 0, i64 0, i32 0, null, metadata !359, i32 0, null} ; [ DW_TAG_subroutine_type ]
!359 = metadata !{metadata !58, metadata !345, metadata !70, metadata !70}
!360 = metadata !{i32 458753, metadata !2, metadata !"", metadata !2, i32 0, i64 72, i64 8, i64 0, i32 0, metadata !103, metadata !340, i32 0, null} ; [ DW_TAG_array_type ]
!361 = metadata !{i32 458804, i32 0, metadata !1, metadata !"x_op", metadata !"x_op", metadata !"", metadata !3, i32 74, metadata !360, i1 true, i1 true, null} ; [ DW_TAG_variable ]
!362 = metadata !{i32 459008, metadata !363, metadata !"temp", metadata !3, i32 138, metadata !58} ; [ DW_TAG_auto_variable ]
!363 = metadata !{i32 458763, metadata !364, i32 132, i32 0} ; [ DW_TAG_lexical_block ]
!364 = metadata !{i32 458763, metadata !365, i32 111, i32 0} ; [ DW_TAG_lexical_block ]
!365 = metadata !{i32 458763, metadata !366, i32 111, i32 0} ; [ DW_TAG_lexical_block ]
!366 = metadata !{i32 458798, i32 0, metadata !2, metadata !"sobel_filter", metadata !"sobel_filter", metadata !"_Z12sobel_filterPA1920_7ap_axiuILi32ELi1ELi1ELi1EES2_ii", metadata !3, i32 111, metadata !367, i1 false, i1 true, i32 0, i32 0, null, i1 false} ; [ DW_TAG_subprogram ]
!367 = metadata !{i32 458773, metadata !2, metadata !"", metadata !2, i32 0, i64 0, i64 0, i64 0, i32 0, null, metadata !368, i32 0, null} ; [ DW_TAG_subroutine_type ]
!368 = metadata !{null, metadata !369, metadata !369, metadata !70, metadata !70}
!369 = metadata !{i32 458767, metadata !2, metadata !"", metadata !2, i32 0, i64 32, i64 32, i64 0, i32 0, metadata !370} ; [ DW_TAG_pointer_type ]
!370 = metadata !{i32 458753, metadata !2, metadata !"", metadata !2, i32 0, i64 122880, i64 32, i64 0, i32 0, metadata !371, metadata !1282, i32 0, null} ; [ DW_TAG_array_type ]
!371 = metadata !{i32 458774, metadata !2, metadata !"AXI_PIXEL", metadata !335, i32 69, i64 0, i64 0, i64 0, i32 0, metadata !372} ; [ DW_TAG_typedef ]
!372 = metadata !{i32 458771, metadata !2, metadata !"ap_axiu<32,1,1,1>", metadata !373, i32 62, i64 64, i64 32, i64 0, i32 0, null, metadata !374, i32 0, null} ; [ DW_TAG_structure_type ]
!373 = metadata !{i32 458769, i32 0, i32 4, metadata !"ap_axi_sdata.h", metadata !"C:\5CWORK\5Csobel_variable\5Caxi_sobel\5Caxi_sobel/", metadata !"4.2.1 (Based on Apple Inc. build 5658) (LLVM build)", i1 false, i1 false, metadata !"", i32 0} ; [ DW_TAG_compile_unit ]
!374 = metadata !{metadata !375, metadata !708, metadata !989, metadata !1270, metadata !1271, metadata !1272, metadata !1279}
!375 = metadata !{i32 458765, metadata !372, metadata !"data", metadata !373, i32 63, i64 32, i64 32, i64 0, i32 0, metadata !376} ; [ DW_TAG_member ]
!376 = metadata !{i32 458771, metadata !2, metadata !"ap_uint<32>", metadata !12, i32 134, i64 32, i64 32, i64 0, i32 0, null, metadata !377, i32 0, null} ; [ DW_TAG_structure_type ]
!377 = metadata !{metadata !378, metadata !640, metadata !644, metadata !647, metadata !650, metadata !653, metadata !656, metadata !659, metadata !662, metadata !665, metadata !668, metadata !671, metadata !674, metadata !677, metadata !680, metadata !683, metadata !686, metadata !689, metadata !696, metadata !701, metadata !705}
!378 = metadata !{i32 458780, metadata !2, metadata !"", null, i32 0, i64 0, i64 0, i64 0, i32 0, metadata !379} ; [ DW_TAG_inheritance ]
!379 = metadata !{i32 458771, metadata !2, metadata !"ap_int_base<32,false>", metadata !16, i32 1306, i64 32, i64 32, i64 0, i32 0, null, metadata !380, i32 0, null} ; [ DW_TAG_structure_type ]
!380 = metadata !{metadata !381, metadata !402, metadata !406, metadata !409, metadata !412, metadata !415, metadata !418, metadata !421, metadata !424, metadata !427, metadata !430, metadata !433, metadata !436, metadata !439, metadata !442, metadata !445, metadata !448, metadata !451, metadata !456, metadata !461, metadata !466, metadata !467, metadata !471, metadata !474, metadata !477, metadata !480, metadata !483, metadata !486, metadata !490, metadata !493, metadata !496, metadata !499, metadata !502, metadata !505, metadata !508, metadata !509, metadata !513, metadata !516, metadata !519, metadata !520, metadata !521, metadata !522, metadata !523, metadata !526, metadata !527, metadata !530, metadata !531, metadata !532, metadata !533, metadata !534, metadata !535, metadata !536, metadata !537, metadata !540, metadata !541, metadata !544, metadata !548, metadata !549, metadata !550, metadata !605, metadata !606, metadata !609, metadata !610, metadata !614, metadata !615, metadata !616, metadata !617, metadata !620, metadata !621, metadata !622, metadata !623, metadata !624, metadata !625, metadata !626, metadata !627, metadata !628, metadata !629, metadata !630, metadata !631, metadata !634, metadata !637}
!381 = metadata !{i32 458780, metadata !2, metadata !"", null, i32 0, i64 0, i64 0, i64 0, i32 0, metadata !382} ; [ DW_TAG_inheritance ]
!382 = metadata !{i32 458771, metadata !2, metadata !"conv_cint<32,false,true>", metadata !16, i32 1269, i64 32, i64 32, i64 0, i32 0, null, metadata !383, i32 0, null} ; [ DW_TAG_structure_type ]
!383 = metadata !{metadata !384, metadata !393, metadata !397}
!384 = metadata !{i32 458780, metadata !2, metadata !"", null, i32 0, i64 0, i64 0, i64 0, i32 0, metadata !385} ; [ DW_TAG_inheritance ]
!385 = metadata !{i32 458771, metadata !2, metadata !"ssdm_int<32,false>", metadata !23, i32 34, i64 32, i64 32, i64 0, i32 0, null, metadata !386, i32 0, null} ; [ DW_TAG_structure_type ]
!386 = metadata !{metadata !387, metadata !389}
!387 = metadata !{i32 458765, metadata !385, metadata !"V", metadata !23, i32 34, i64 32, i64 32, i64 0, i32 0, metadata !388} ; [ DW_TAG_member ]
!388 = metadata !{i32 458788, metadata !2, metadata !"", metadata !2, i32 0, i64 32, i64 32, i64 0, i32 0, i32 7} ; [ DW_TAG_base_type ]
!389 = metadata !{i32 458798, i32 0, metadata !385, metadata !"ssdm_int", metadata !"ssdm_int", metadata !"", metadata !23, i32 34, metadata !390, i1 false, i1 false, i32 0, i32 0, null, i1 false} ; [ DW_TAG_subprogram ]
!390 = metadata !{i32 458773, metadata !2, metadata !"", metadata !2, i32 0, i64 0, i64 0, i64 0, i32 0, null, metadata !391, i32 0, null} ; [ DW_TAG_subroutine_type ]
!391 = metadata !{null, metadata !392}
!392 = metadata !{i32 458767, metadata !2, metadata !"", metadata !2, i32 0, i64 32, i64 32, i64 0, i32 64, metadata !385} ; [ DW_TAG_pointer_type ]
!393 = metadata !{i32 458798, i32 0, metadata !382, metadata !"conv_cint", metadata !"conv_cint", metadata !"", metadata !16, i32 1275, metadata !394, i1 false, i1 false, i32 0, i32 0, null, i1 false} ; [ DW_TAG_subprogram ]
!394 = metadata !{i32 458773, metadata !2, metadata !"", metadata !2, i32 0, i64 0, i64 0, i64 0, i32 0, null, metadata !395, i32 0, null} ; [ DW_TAG_subroutine_type ]
!395 = metadata !{null, metadata !396}
!396 = metadata !{i32 458767, metadata !2, metadata !"", metadata !2, i32 0, i64 32, i64 32, i64 0, i32 64, metadata !382} ; [ DW_TAG_pointer_type ]
!397 = metadata !{i32 458798, i32 0, metadata !382, metadata !"operator ap_ulong", metadata !"operator ap_ulong", metadata !"_ZNK9conv_cintILi32ELb0ELb1EEcvyEv", metadata !16, i32 1276, metadata !398, i1 false, i1 false, i32 0, i32 0, null, i1 false} ; [ DW_TAG_subprogram ]
!398 = metadata !{i32 458773, metadata !2, metadata !"", metadata !2, i32 0, i64 0, i64 0, i64 0, i32 0, null, metadata !399, i32 0, null} ; [ DW_TAG_subroutine_type ]
!399 = metadata !{metadata !38, metadata !400}
!400 = metadata !{i32 458767, metadata !2, metadata !"", metadata !2, i32 0, i64 32, i64 32, i64 0, i32 64, metadata !401} ; [ DW_TAG_pointer_type ]
!401 = metadata !{i32 458790, metadata !2, metadata !"", metadata !2, i32 0, i64 32, i64 32, i64 0, i32 0, metadata !382} ; [ DW_TAG_const_type ]
!402 = metadata !{i32 458798, i32 0, metadata !379, metadata !"ap_int_base", metadata !"ap_int_base", metadata !"", metadata !16, i32 1341, metadata !403, i1 false, i1 false, i32 0, i32 0, null, i1 false} ; [ DW_TAG_subprogram ]
!403 = metadata !{i32 458773, metadata !2, metadata !"", metadata !2, i32 0, i64 0, i64 0, i64 0, i32 0, null, metadata !404, i32 0, null} ; [ DW_TAG_subroutine_type ]
!404 = metadata !{null, metadata !405}
!405 = metadata !{i32 458767, metadata !2, metadata !"", metadata !2, i32 0, i64 32, i64 32, i64 0, i32 64, metadata !379} ; [ DW_TAG_pointer_type ]
!406 = metadata !{i32 458798, i32 0, metadata !379, metadata !"ap_int_base", metadata !"ap_int_base", metadata !"", metadata !16, i32 1363, metadata !407, i1 false, i1 false, i32 0, i32 0, null, i1 false} ; [ DW_TAG_subprogram ]
!407 = metadata !{i32 458773, metadata !2, metadata !"", metadata !2, i32 0, i64 0, i64 0, i64 0, i32 0, null, metadata !408, i32 0, null} ; [ DW_TAG_subroutine_type ]
!408 = metadata !{null, metadata !405, metadata !50}
!409 = metadata !{i32 458798, i32 0, metadata !379, metadata !"ap_int_base", metadata !"ap_int_base", metadata !"", metadata !16, i32 1364, metadata !410, i1 false, i1 false, i32 0, i32 0, null, i1 false} ; [ DW_TAG_subprogram ]
!410 = metadata !{i32 458773, metadata !2, metadata !"", metadata !2, i32 0, i64 0, i64 0, i64 0, i32 0, null, metadata !411, i32 0, null} ; [ DW_TAG_subroutine_type ]
!411 = metadata !{null, metadata !405, metadata !54}
!412 = metadata !{i32 458798, i32 0, metadata !379, metadata !"ap_int_base", metadata !"ap_int_base", metadata !"", metadata !16, i32 1365, metadata !413, i1 false, i1 false, i32 0, i32 0, null, i1 false} ; [ DW_TAG_subprogram ]
!413 = metadata !{i32 458773, metadata !2, metadata !"", metadata !2, i32 0, i64 0, i64 0, i64 0, i32 0, null, metadata !414, i32 0, null} ; [ DW_TAG_subroutine_type ]
!414 = metadata !{null, metadata !405, metadata !58}
!415 = metadata !{i32 458798, i32 0, metadata !379, metadata !"ap_int_base", metadata !"ap_int_base", metadata !"", metadata !16, i32 1366, metadata !416, i1 false, i1 false, i32 0, i32 0, null, i1 false} ; [ DW_TAG_subprogram ]
!416 = metadata !{i32 458773, metadata !2, metadata !"", metadata !2, i32 0, i64 0, i64 0, i64 0, i32 0, null, metadata !417, i32 0, null} ; [ DW_TAG_subroutine_type ]
!417 = metadata !{null, metadata !405, metadata !62}
!418 = metadata !{i32 458798, i32 0, metadata !379, metadata !"ap_int_base", metadata !"ap_int_base", metadata !"", metadata !16, i32 1367, metadata !419, i1 false, i1 false, i32 0, i32 0, null, i1 false} ; [ DW_TAG_subprogram ]
!419 = metadata !{i32 458773, metadata !2, metadata !"", metadata !2, i32 0, i64 0, i64 0, i64 0, i32 0, null, metadata !420, i32 0, null} ; [ DW_TAG_subroutine_type ]
!420 = metadata !{null, metadata !405, metadata !66}
!421 = metadata !{i32 458798, i32 0, metadata !379, metadata !"ap_int_base", metadata !"ap_int_base", metadata !"", metadata !16, i32 1368, metadata !422, i1 false, i1 false, i32 0, i32 0, null, i1 false} ; [ DW_TAG_subprogram ]
!422 = metadata !{i32 458773, metadata !2, metadata !"", metadata !2, i32 0, i64 0, i64 0, i64 0, i32 0, null, metadata !423, i32 0, null} ; [ DW_TAG_subroutine_type ]
!423 = metadata !{null, metadata !405, metadata !70}
!424 = metadata !{i32 458798, i32 0, metadata !379, metadata !"ap_int_base", metadata !"ap_int_base", metadata !"", metadata !16, i32 1369, metadata !425, i1 false, i1 false, i32 0, i32 0, null, i1 false} ; [ DW_TAG_subprogram ]
!425 = metadata !{i32 458773, metadata !2, metadata !"", metadata !2, i32 0, i64 0, i64 0, i64 0, i32 0, null, metadata !426, i32 0, null} ; [ DW_TAG_subroutine_type ]
!426 = metadata !{null, metadata !405, metadata !74}
!427 = metadata !{i32 458798, i32 0, metadata !379, metadata !"ap_int_base", metadata !"ap_int_base", metadata !"", metadata !16, i32 1370, metadata !428, i1 false, i1 false, i32 0, i32 0, null, i1 false} ; [ DW_TAG_subprogram ]
!428 = metadata !{i32 458773, metadata !2, metadata !"", metadata !2, i32 0, i64 0, i64 0, i64 0, i32 0, null, metadata !429, i32 0, null} ; [ DW_TAG_subroutine_type ]
!429 = metadata !{null, metadata !405, metadata !78}
!430 = metadata !{i32 458798, i32 0, metadata !379, metadata !"ap_int_base", metadata !"ap_int_base", metadata !"", metadata !16, i32 1371, metadata !431, i1 false, i1 false, i32 0, i32 0, null, i1 false} ; [ DW_TAG_subprogram ]
!431 = metadata !{i32 458773, metadata !2, metadata !"", metadata !2, i32 0, i64 0, i64 0, i64 0, i32 0, null, metadata !432, i32 0, null} ; [ DW_TAG_subroutine_type ]
!432 = metadata !{null, metadata !405, metadata !82}
!433 = metadata !{i32 458798, i32 0, metadata !379, metadata !"ap_int_base", metadata !"ap_int_base", metadata !"", metadata !16, i32 1372, metadata !434, i1 false, i1 false, i32 0, i32 0, null, i1 false} ; [ DW_TAG_subprogram ]
!434 = metadata !{i32 458773, metadata !2, metadata !"", metadata !2, i32 0, i64 0, i64 0, i64 0, i32 0, null, metadata !435, i32 0, null} ; [ DW_TAG_subroutine_type ]
!435 = metadata !{null, metadata !405, metadata !86}
!436 = metadata !{i32 458798, i32 0, metadata !379, metadata !"ap_int_base", metadata !"ap_int_base", metadata !"", metadata !16, i32 1373, metadata !437, i1 false, i1 false, i32 0, i32 0, null, i1 false} ; [ DW_TAG_subprogram ]
!437 = metadata !{i32 458773, metadata !2, metadata !"", metadata !2, i32 0, i64 0, i64 0, i64 0, i32 0, null, metadata !438, i32 0, null} ; [ DW_TAG_subroutine_type ]
!438 = metadata !{null, metadata !405, metadata !40}
!439 = metadata !{i32 458798, i32 0, metadata !379, metadata !"ap_int_base", metadata !"ap_int_base", metadata !"", metadata !16, i32 1374, metadata !440, i1 false, i1 false, i32 0, i32 0, null, i1 false} ; [ DW_TAG_subprogram ]
!440 = metadata !{i32 458773, metadata !2, metadata !"", metadata !2, i32 0, i64 0, i64 0, i64 0, i32 0, null, metadata !441, i32 0, null} ; [ DW_TAG_subroutine_type ]
!441 = metadata !{null, metadata !405, metadata !93}
!442 = metadata !{i32 458798, i32 0, metadata !379, metadata !"ap_int_base", metadata !"ap_int_base", metadata !"", metadata !16, i32 1375, metadata !443, i1 false, i1 false, i32 0, i32 0, null, i1 false} ; [ DW_TAG_subprogram ]
!443 = metadata !{i32 458773, metadata !2, metadata !"", metadata !2, i32 0, i64 0, i64 0, i64 0, i32 0, null, metadata !444, i32 0, null} ; [ DW_TAG_subroutine_type ]
!444 = metadata !{null, metadata !405, metadata !97}
!445 = metadata !{i32 458798, i32 0, metadata !379, metadata !"ap_int_base", metadata !"ap_int_base", metadata !"", metadata !16, i32 1402, metadata !446, i1 false, i1 false, i32 0, i32 0, null, i1 false} ; [ DW_TAG_subprogram ]
!446 = metadata !{i32 458773, metadata !2, metadata !"", metadata !2, i32 0, i64 0, i64 0, i64 0, i32 0, null, metadata !447, i32 0, null} ; [ DW_TAG_subroutine_type ]
!447 = metadata !{null, metadata !405, metadata !101}
!448 = metadata !{i32 458798, i32 0, metadata !379, metadata !"ap_int_base", metadata !"ap_int_base", metadata !"", metadata !16, i32 1408, metadata !449, i1 false, i1 false, i32 0, i32 0, null, i1 false} ; [ DW_TAG_subprogram ]
!449 = metadata !{i32 458773, metadata !2, metadata !"", metadata !2, i32 0, i64 0, i64 0, i64 0, i32 0, null, metadata !450, i32 0, null} ; [ DW_TAG_subroutine_type ]
!450 = metadata !{null, metadata !405, metadata !101, metadata !54}
!451 = metadata !{i32 458798, i32 0, metadata !379, metadata !"read", metadata !"read", metadata !"_ZNV11ap_int_baseILi32ELb0EE4readEv", metadata !16, i32 1428, metadata !452, i1 false, i1 false, i32 0, i32 0, null, i1 false} ; [ DW_TAG_subprogram ]
!452 = metadata !{i32 458773, metadata !2, metadata !"", metadata !2, i32 0, i64 0, i64 0, i64 0, i32 0, null, metadata !453, i32 0, null} ; [ DW_TAG_subroutine_type ]
!453 = metadata !{metadata !379, metadata !454}
!454 = metadata !{i32 458767, metadata !2, metadata !"", metadata !2, i32 0, i64 32, i64 32, i64 0, i32 64, metadata !455} ; [ DW_TAG_pointer_type ]
!455 = metadata !{i32 458805, metadata !2, metadata !"", metadata !2, i32 0, i64 32, i64 32, i64 0, i32 0, metadata !379} ; [ DW_TAG_volatile_type ]
!456 = metadata !{i32 458798, i32 0, metadata !379, metadata !"write", metadata !"write", metadata !"_ZNV11ap_int_baseILi32ELb0EE5writeERKS0_", metadata !16, i32 1434, metadata !457, i1 false, i1 false, i32 0, i32 0, null, i1 false} ; [ DW_TAG_subprogram ]
!457 = metadata !{i32 458773, metadata !2, metadata !"", metadata !2, i32 0, i64 0, i64 0, i64 0, i32 0, null, metadata !458, i32 0, null} ; [ DW_TAG_subroutine_type ]
!458 = metadata !{null, metadata !454, metadata !459}
!459 = metadata !{i32 458768, metadata !2, metadata !"", metadata !2, i32 0, i64 32, i64 32, i64 0, i32 0, metadata !460} ; [ DW_TAG_reference_type ]
!460 = metadata !{i32 458790, metadata !2, metadata !"", metadata !2, i32 0, i64 32, i64 32, i64 0, i32 0, metadata !379} ; [ DW_TAG_const_type ]
!461 = metadata !{i32 458798, i32 0, metadata !379, metadata !"operator=", metadata !"operator=", metadata !"_ZNV11ap_int_baseILi32ELb0EEaSERVKS0_", metadata !16, i32 1446, metadata !462, i1 false, i1 false, i32 0, i32 0, null, i1 false} ; [ DW_TAG_subprogram ]
!462 = metadata !{i32 458773, metadata !2, metadata !"", metadata !2, i32 0, i64 0, i64 0, i64 0, i32 0, null, metadata !463, i32 0, null} ; [ DW_TAG_subroutine_type ]
!463 = metadata !{null, metadata !454, metadata !464}
!464 = metadata !{i32 458768, metadata !2, metadata !"", metadata !2, i32 0, i64 32, i64 32, i64 0, i32 0, metadata !465} ; [ DW_TAG_reference_type ]
!465 = metadata !{i32 458790, metadata !2, metadata !"", metadata !2, i32 0, i64 32, i64 32, i64 0, i32 0, metadata !455} ; [ DW_TAG_const_type ]
!466 = metadata !{i32 458798, i32 0, metadata !379, metadata !"operator=", metadata !"operator=", metadata !"_ZNV11ap_int_baseILi32ELb0EEaSERKS0_", metadata !16, i32 1455, metadata !457, i1 false, i1 false, i32 0, i32 0, null, i1 false} ; [ DW_TAG_subprogram ]
!467 = metadata !{i32 458798, i32 0, metadata !379, metadata !"operator=", metadata !"operator=", metadata !"_ZN11ap_int_baseILi32ELb0EEaSERVKS0_", metadata !16, i32 1478, metadata !468, i1 false, i1 false, i32 0, i32 0, null, i1 false} ; [ DW_TAG_subprogram ]
!468 = metadata !{i32 458773, metadata !2, metadata !"", metadata !2, i32 0, i64 0, i64 0, i64 0, i32 0, null, metadata !469, i32 0, null} ; [ DW_TAG_subroutine_type ]
!469 = metadata !{metadata !470, metadata !405, metadata !464}
!470 = metadata !{i32 458768, metadata !2, metadata !"ap_int_base<32,false>", metadata !2, i32 0, i64 32, i64 32, i64 0, i32 0, metadata !379} ; [ DW_TAG_reference_type ]
!471 = metadata !{i32 458798, i32 0, metadata !379, metadata !"operator=", metadata !"operator=", metadata !"_ZN11ap_int_baseILi32ELb0EEaSERKS0_", metadata !16, i32 1483, metadata !472, i1 false, i1 false, i32 0, i32 0, null, i1 false} ; [ DW_TAG_subprogram ]
!472 = metadata !{i32 458773, metadata !2, metadata !"", metadata !2, i32 0, i64 0, i64 0, i64 0, i32 0, null, metadata !473, i32 0, null} ; [ DW_TAG_subroutine_type ]
!473 = metadata !{metadata !470, metadata !405, metadata !459}
!474 = metadata !{i32 458798, i32 0, metadata !379, metadata !"operator=", metadata !"operator=", metadata !"_ZN11ap_int_baseILi32ELb0EEaSEPKc", metadata !16, i32 1487, metadata !475, i1 false, i1 false, i32 0, i32 0, null, i1 false} ; [ DW_TAG_subprogram ]
!475 = metadata !{i32 458773, metadata !2, metadata !"", metadata !2, i32 0, i64 0, i64 0, i64 0, i32 0, null, metadata !476, i32 0, null} ; [ DW_TAG_subroutine_type ]
!476 = metadata !{metadata !470, metadata !405, metadata !101}
!477 = metadata !{i32 458798, i32 0, metadata !379, metadata !"set", metadata !"set", metadata !"_ZN11ap_int_baseILi32ELb0EE3setEPKca", metadata !16, i32 1494, metadata !478, i1 false, i1 false, i32 0, i32 0, null, i1 false} ; [ DW_TAG_subprogram ]
!478 = metadata !{i32 458773, metadata !2, metadata !"", metadata !2, i32 0, i64 0, i64 0, i64 0, i32 0, null, metadata !479, i32 0, null} ; [ DW_TAG_subroutine_type ]
!479 = metadata !{metadata !470, metadata !405, metadata !101, metadata !54}
!480 = metadata !{i32 458798, i32 0, metadata !379, metadata !"operator=", metadata !"operator=", metadata !"_ZN11ap_int_baseILi32ELb0EEaSEy", metadata !16, i32 1502, metadata !481, i1 false, i1 false, i32 0, i32 0, null, i1 false} ; [ DW_TAG_subprogram ]
!481 = metadata !{i32 458773, metadata !2, metadata !"", metadata !2, i32 0, i64 0, i64 0, i64 0, i32 0, null, metadata !482, i32 0, null} ; [ DW_TAG_subroutine_type ]
!482 = metadata !{metadata !470, metadata !405, metadata !40}
!483 = metadata !{i32 458798, i32 0, metadata !379, metadata !"operator=", metadata !"operator=", metadata !"_ZN11ap_int_baseILi32ELb0EEaSEx", metadata !16, i32 1507, metadata !484, i1 false, i1 false, i32 0, i32 0, null, i1 false} ; [ DW_TAG_subprogram ]
!484 = metadata !{i32 458773, metadata !2, metadata !"", metadata !2, i32 0, i64 0, i64 0, i64 0, i32 0, null, metadata !485, i32 0, null} ; [ DW_TAG_subroutine_type ]
!485 = metadata !{metadata !470, metadata !405, metadata !86}
!486 = metadata !{i32 458798, i32 0, metadata !379, metadata !"to_int", metadata !"to_int", metadata !"_ZNK11ap_int_baseILi32ELb0EE6to_intEv", metadata !16, i32 1553, metadata !487, i1 false, i1 false, i32 0, i32 0, null, i1 false} ; [ DW_TAG_subprogram ]
!487 = metadata !{i32 458773, metadata !2, metadata !"", metadata !2, i32 0, i64 0, i64 0, i64 0, i32 0, null, metadata !488, i32 0, null} ; [ DW_TAG_subroutine_type ]
!488 = metadata !{metadata !70, metadata !489}
!489 = metadata !{i32 458767, metadata !2, metadata !"", metadata !2, i32 0, i64 32, i64 32, i64 0, i32 64, metadata !460} ; [ DW_TAG_pointer_type ]
!490 = metadata !{i32 458798, i32 0, metadata !379, metadata !"to_uint", metadata !"to_uint", metadata !"_ZNK11ap_int_baseILi32ELb0EE7to_uintEv", metadata !16, i32 1554, metadata !491, i1 false, i1 false, i32 0, i32 0, null, i1 false} ; [ DW_TAG_subprogram ]
!491 = metadata !{i32 458773, metadata !2, metadata !"", metadata !2, i32 0, i64 0, i64 0, i64 0, i32 0, null, metadata !492, i32 0, null} ; [ DW_TAG_subroutine_type ]
!492 = metadata !{metadata !74, metadata !489}
!493 = metadata !{i32 458798, i32 0, metadata !379, metadata !"to_long", metadata !"to_long", metadata !"_ZNK11ap_int_baseILi32ELb0EE7to_longEv", metadata !16, i32 1555, metadata !494, i1 false, i1 false, i32 0, i32 0, null, i1 false} ; [ DW_TAG_subprogram ]
!494 = metadata !{i32 458773, metadata !2, metadata !"", metadata !2, i32 0, i64 0, i64 0, i64 0, i32 0, null, metadata !495, i32 0, null} ; [ DW_TAG_subroutine_type ]
!495 = metadata !{metadata !78, metadata !489}
!496 = metadata !{i32 458798, i32 0, metadata !379, metadata !"to_ulong", metadata !"to_ulong", metadata !"_ZNK11ap_int_baseILi32ELb0EE8to_ulongEv", metadata !16, i32 1556, metadata !497, i1 false, i1 false, i32 0, i32 0, null, i1 false} ; [ DW_TAG_subprogram ]
!497 = metadata !{i32 458773, metadata !2, metadata !"", metadata !2, i32 0, i64 0, i64 0, i64 0, i32 0, null, metadata !498, i32 0, null} ; [ DW_TAG_subroutine_type ]
!498 = metadata !{metadata !82, metadata !489}
!499 = metadata !{i32 458798, i32 0, metadata !379, metadata !"to_int64", metadata !"to_int64", metadata !"_ZNK11ap_int_baseILi32ELb0EE8to_int64Ev", metadata !16, i32 1557, metadata !500, i1 false, i1 false, i32 0, i32 0, null, i1 false} ; [ DW_TAG_subprogram ]
!500 = metadata !{i32 458773, metadata !2, metadata !"", metadata !2, i32 0, i64 0, i64 0, i64 0, i32 0, null, metadata !501, i32 0, null} ; [ DW_TAG_subroutine_type ]
!501 = metadata !{metadata !158, metadata !489}
!502 = metadata !{i32 458798, i32 0, metadata !379, metadata !"to_uint64", metadata !"to_uint64", metadata !"_ZNK11ap_int_baseILi32ELb0EE9to_uint64Ev", metadata !16, i32 1558, metadata !503, i1 false, i1 false, i32 0, i32 0, null, i1 false} ; [ DW_TAG_subprogram ]
!503 = metadata !{i32 458773, metadata !2, metadata !"", metadata !2, i32 0, i64 0, i64 0, i64 0, i32 0, null, metadata !504, i32 0, null} ; [ DW_TAG_subroutine_type ]
!504 = metadata !{metadata !38, metadata !489}
!505 = metadata !{i32 458798, i32 0, metadata !379, metadata !"to_double", metadata !"to_double", metadata !"_ZNK11ap_int_baseILi32ELb0EE9to_doubleEv", metadata !16, i32 1559, metadata !506, i1 false, i1 false, i32 0, i32 0, null, i1 false} ; [ DW_TAG_subprogram ]
!506 = metadata !{i32 458773, metadata !2, metadata !"", metadata !2, i32 0, i64 0, i64 0, i64 0, i32 0, null, metadata !507, i32 0, null} ; [ DW_TAG_subroutine_type ]
!507 = metadata !{metadata !97, metadata !489}
!508 = metadata !{i32 458798, i32 0, metadata !379, metadata !"length", metadata !"length", metadata !"_ZNK11ap_int_baseILi32ELb0EE6lengthEv", metadata !16, i32 1572, metadata !487, i1 false, i1 true, i32 0, i32 0, null, i1 false} ; [ DW_TAG_subprogram ]
!509 = metadata !{i32 458798, i32 0, metadata !379, metadata !"length", metadata !"length", metadata !"_ZNVK11ap_int_baseILi32ELb0EE6lengthEv", metadata !16, i32 1573, metadata !510, i1 false, i1 false, i32 0, i32 0, null, i1 false} ; [ DW_TAG_subprogram ]
!510 = metadata !{i32 458773, metadata !2, metadata !"", metadata !2, i32 0, i64 0, i64 0, i64 0, i32 0, null, metadata !511, i32 0, null} ; [ DW_TAG_subroutine_type ]
!511 = metadata !{metadata !70, metadata !512}
!512 = metadata !{i32 458767, metadata !2, metadata !"", metadata !2, i32 0, i64 32, i64 32, i64 0, i32 64, metadata !465} ; [ DW_TAG_pointer_type ]
!513 = metadata !{i32 458798, i32 0, metadata !379, metadata !"reverse", metadata !"reverse", metadata !"_ZN11ap_int_baseILi32ELb0EE7reverseEv", metadata !16, i32 1578, metadata !514, i1 false, i1 false, i32 0, i32 0, null, i1 false} ; [ DW_TAG_subprogram ]
!514 = metadata !{i32 458773, metadata !2, metadata !"", metadata !2, i32 0, i64 0, i64 0, i64 0, i32 0, null, metadata !515, i32 0, null} ; [ DW_TAG_subroutine_type ]
!515 = metadata !{metadata !470, metadata !405}
!516 = metadata !{i32 458798, i32 0, metadata !379, metadata !"iszero", metadata !"iszero", metadata !"_ZNK11ap_int_baseILi32ELb0EE6iszeroEv", metadata !16, i32 1584, metadata !517, i1 false, i1 false, i32 0, i32 0, null, i1 false} ; [ DW_TAG_subprogram ]
!517 = metadata !{i32 458773, metadata !2, metadata !"", metadata !2, i32 0, i64 0, i64 0, i64 0, i32 0, null, metadata !518, i32 0, null} ; [ DW_TAG_subroutine_type ]
!518 = metadata !{metadata !50, metadata !489}
!519 = metadata !{i32 458798, i32 0, metadata !379, metadata !"is_zero", metadata !"is_zero", metadata !"_ZNK11ap_int_baseILi32ELb0EE7is_zeroEv", metadata !16, i32 1589, metadata !517, i1 false, i1 false, i32 0, i32 0, null, i1 false} ; [ DW_TAG_subprogram ]
!520 = metadata !{i32 458798, i32 0, metadata !379, metadata !"sign", metadata !"sign", metadata !"_ZNK11ap_int_baseILi32ELb0EE4signEv", metadata !16, i32 1594, metadata !517, i1 false, i1 false, i32 0, i32 0, null, i1 false} ; [ DW_TAG_subprogram ]
!521 = metadata !{i32 458798, i32 0, metadata !379, metadata !"clear", metadata !"clear", metadata !"_ZN11ap_int_baseILi32ELb0EE5clearEi", metadata !16, i32 1602, metadata !422, i1 false, i1 false, i32 0, i32 0, null, i1 false} ; [ DW_TAG_subprogram ]
!522 = metadata !{i32 458798, i32 0, metadata !379, metadata !"invert", metadata !"invert", metadata !"_ZN11ap_int_baseILi32ELb0EE6invertEi", metadata !16, i32 1608, metadata !422, i1 false, i1 false, i32 0, i32 0, null, i1 false} ; [ DW_TAG_subprogram ]
!523 = metadata !{i32 458798, i32 0, metadata !379, metadata !"test", metadata !"test", metadata !"_ZNK11ap_int_baseILi32ELb0EE4testEi", metadata !16, i32 1616, metadata !524, i1 false, i1 false, i32 0, i32 0, null, i1 false} ; [ DW_TAG_subprogram ]
!524 = metadata !{i32 458773, metadata !2, metadata !"", metadata !2, i32 0, i64 0, i64 0, i64 0, i32 0, null, metadata !525, i32 0, null} ; [ DW_TAG_subroutine_type ]
!525 = metadata !{metadata !50, metadata !489, metadata !70}
!526 = metadata !{i32 458798, i32 0, metadata !379, metadata !"set", metadata !"set", metadata !"_ZN11ap_int_baseILi32ELb0EE3setEi", metadata !16, i32 1622, metadata !422, i1 false, i1 false, i32 0, i32 0, null, i1 false} ; [ DW_TAG_subprogram ]
!527 = metadata !{i32 458798, i32 0, metadata !379, metadata !"set", metadata !"set", metadata !"_ZN11ap_int_baseILi32ELb0EE3setEib", metadata !16, i32 1628, metadata !528, i1 false, i1 false, i32 0, i32 0, null, i1 false} ; [ DW_TAG_subprogram ]
!528 = metadata !{i32 458773, metadata !2, metadata !"", metadata !2, i32 0, i64 0, i64 0, i64 0, i32 0, null, metadata !529, i32 0, null} ; [ DW_TAG_subroutine_type ]
!529 = metadata !{null, metadata !405, metadata !70, metadata !50}
!530 = metadata !{i32 458798, i32 0, metadata !379, metadata !"lrotate", metadata !"lrotate", metadata !"_ZN11ap_int_baseILi32ELb0EE7lrotateEi", metadata !16, i32 1635, metadata !422, i1 false, i1 false, i32 0, i32 0, null, i1 false} ; [ DW_TAG_subprogram ]
!531 = metadata !{i32 458798, i32 0, metadata !379, metadata !"rrotate", metadata !"rrotate", metadata !"_ZN11ap_int_baseILi32ELb0EE7rrotateEi", metadata !16, i32 1644, metadata !422, i1 false, i1 false, i32 0, i32 0, null, i1 false} ; [ DW_TAG_subprogram ]
!532 = metadata !{i32 458798, i32 0, metadata !379, metadata !"set_bit", metadata !"set_bit", metadata !"_ZN11ap_int_baseILi32ELb0EE7set_bitEib", metadata !16, i32 1652, metadata !528, i1 false, i1 false, i32 0, i32 0, null, i1 false} ; [ DW_TAG_subprogram ]
!533 = metadata !{i32 458798, i32 0, metadata !379, metadata !"get_bit", metadata !"get_bit", metadata !"_ZNK11ap_int_baseILi32ELb0EE7get_bitEi", metadata !16, i32 1657, metadata !524, i1 false, i1 false, i32 0, i32 0, null, i1 false} ; [ DW_TAG_subprogram ]
!534 = metadata !{i32 458798, i32 0, metadata !379, metadata !"b_not", metadata !"b_not", metadata !"_ZN11ap_int_baseILi32ELb0EE5b_notEv", metadata !16, i32 1662, metadata !403, i1 false, i1 false, i32 0, i32 0, null, i1 false} ; [ DW_TAG_subprogram ]
!535 = metadata !{i32 458798, i32 0, metadata !379, metadata !"operator++", metadata !"operator++", metadata !"_ZN11ap_int_baseILi32ELb0EEppEv", metadata !16, i32 1733, metadata !514, i1 false, i1 false, i32 0, i32 0, null, i1 false} ; [ DW_TAG_subprogram ]
!536 = metadata !{i32 458798, i32 0, metadata !379, metadata !"operator--", metadata !"operator--", metadata !"_ZN11ap_int_baseILi32ELb0EEmmEv", metadata !16, i32 1737, metadata !514, i1 false, i1 false, i32 0, i32 0, null, i1 false} ; [ DW_TAG_subprogram ]
!537 = metadata !{i32 458798, i32 0, metadata !379, metadata !"operator++", metadata !"operator++", metadata !"_ZN11ap_int_baseILi32ELb0EEppEi", metadata !16, i32 1745, metadata !538, i1 false, i1 false, i32 0, i32 0, null, i1 false} ; [ DW_TAG_subprogram ]
!538 = metadata !{i32 458773, metadata !2, metadata !"", metadata !2, i32 0, i64 0, i64 0, i64 0, i32 0, null, metadata !539, i32 0, null} ; [ DW_TAG_subroutine_type ]
!539 = metadata !{metadata !460, metadata !405, metadata !70}
!540 = metadata !{i32 458798, i32 0, metadata !379, metadata !"operator--", metadata !"operator--", metadata !"_ZN11ap_int_baseILi32ELb0EEmmEi", metadata !16, i32 1750, metadata !538, i1 false, i1 false, i32 0, i32 0, null, i1 false} ; [ DW_TAG_subprogram ]
!541 = metadata !{i32 458798, i32 0, metadata !379, metadata !"operator+", metadata !"operator+", metadata !"_ZN11ap_int_baseILi32ELb0EEpsEv", metadata !16, i32 1759, metadata !542, i1 false, i1 false, i32 0, i32 0, null, i1 false} ; [ DW_TAG_subprogram ]
!542 = metadata !{i32 458773, metadata !2, metadata !"", metadata !2, i32 0, i64 0, i64 0, i64 0, i32 0, null, metadata !543, i32 0, null} ; [ DW_TAG_subroutine_type ]
!543 = metadata !{metadata !379, metadata !405}
!544 = metadata !{i32 458798, i32 0, metadata !379, metadata !"operator-", metadata !"operator-", metadata !"_ZNK11ap_int_baseILi32ELb0EEngEv", metadata !16, i32 1762, metadata !545, i1 false, i1 false, i32 0, i32 0, null, i1 false} ; [ DW_TAG_subprogram ]
!545 = metadata !{i32 458773, metadata !2, metadata !"", metadata !2, i32 0, i64 0, i64 0, i64 0, i32 0, null, metadata !546, i32 0, null} ; [ DW_TAG_subroutine_type ]
!546 = metadata !{metadata !547, metadata !489}
!547 = metadata !{i32 458771, metadata !2, metadata !"ap_int_base<33,true>", metadata !16, i32 1306, i64 0, i64 0, i64 0, i32 4, null, null, i32 0, null} ; [ DW_TAG_structure_type ]
!548 = metadata !{i32 458798, i32 0, metadata !379, metadata !"operator!", metadata !"operator!", metadata !"_ZNK11ap_int_baseILi32ELb0EEntEv", metadata !16, i32 1769, metadata !517, i1 false, i1 false, i32 0, i32 0, null, i1 false} ; [ DW_TAG_subprogram ]
!549 = metadata !{i32 458798, i32 0, metadata !379, metadata !"operator~", metadata !"operator~", metadata !"_ZNK11ap_int_baseILi32ELb0EEcoEv", metadata !16, i32 1776, metadata !545, i1 false, i1 false, i32 0, i32 0, null, i1 false} ; [ DW_TAG_subprogram ]
!550 = metadata !{i32 458798, i32 0, metadata !379, metadata !"range", metadata !"range", metadata !"_ZN11ap_int_baseILi32ELb0EE5rangeEii", metadata !16, i32 1901, metadata !551, i1 false, i1 true, i32 0, i32 0, null, i1 false} ; [ DW_TAG_subprogram ]
!551 = metadata !{i32 458773, metadata !2, metadata !"", metadata !2, i32 0, i64 0, i64 0, i64 0, i32 0, null, metadata !552, i32 0, null} ; [ DW_TAG_subroutine_type ]
!552 = metadata !{metadata !553, metadata !405, metadata !70, metadata !70}
!553 = metadata !{i32 458771, metadata !2, metadata !"ap_range_ref<32,false>", metadata !16, i32 871, i64 96, i64 32, i64 0, i32 0, null, metadata !554, i32 0, null} ; [ DW_TAG_structure_type ]
!554 = metadata !{metadata !555, metadata !556, metadata !557, metadata !558, metadata !564, metadata !568, metadata !572, metadata !575, metadata !579, metadata !582, metadata !586, metadata !589, metadata !590, metadata !593, metadata !596, metadata !599, metadata !602}
!555 = metadata !{i32 458765, metadata !553, metadata !"d_bv", metadata !16, i32 872, i64 32, i64 32, i64 0, i32 0, metadata !470} ; [ DW_TAG_member ]
!556 = metadata !{i32 458765, metadata !553, metadata !"l_index", metadata !16, i32 873, i64 32, i64 32, i64 32, i32 0, metadata !70} ; [ DW_TAG_member ]
!557 = metadata !{i32 458765, metadata !553, metadata !"h_index", metadata !16, i32 874, i64 32, i64 32, i64 64, i32 0, metadata !70} ; [ DW_TAG_member ]
!558 = metadata !{i32 458798, i32 0, metadata !553, metadata !"ap_range_ref", metadata !"ap_range_ref", metadata !"", metadata !16, i32 877, metadata !559, i1 false, i1 false, i32 0, i32 0, null, i1 false} ; [ DW_TAG_subprogram ]
!559 = metadata !{i32 458773, metadata !2, metadata !"", metadata !2, i32 0, i64 0, i64 0, i64 0, i32 0, null, metadata !560, i32 0, null} ; [ DW_TAG_subroutine_type ]
!560 = metadata !{null, metadata !561, metadata !562}
!561 = metadata !{i32 458767, metadata !2, metadata !"", metadata !2, i32 0, i64 32, i64 32, i64 0, i32 64, metadata !553} ; [ DW_TAG_pointer_type ]
!562 = metadata !{i32 458768, metadata !2, metadata !"", metadata !2, i32 0, i64 32, i64 32, i64 0, i32 0, metadata !563} ; [ DW_TAG_reference_type ]
!563 = metadata !{i32 458790, metadata !2, metadata !"", metadata !2, i32 0, i64 96, i64 32, i64 0, i32 0, metadata !553} ; [ DW_TAG_const_type ]
!564 = metadata !{i32 458798, i32 0, metadata !553, metadata !"ap_range_ref", metadata !"ap_range_ref", metadata !"", metadata !16, i32 880, metadata !565, i1 false, i1 false, i32 0, i32 0, null, i1 false} ; [ DW_TAG_subprogram ]
!565 = metadata !{i32 458773, metadata !2, metadata !"", metadata !2, i32 0, i64 0, i64 0, i64 0, i32 0, null, metadata !566, i32 0, null} ; [ DW_TAG_subroutine_type ]
!566 = metadata !{null, metadata !561, metadata !567, metadata !70, metadata !70}
!567 = metadata !{i32 458767, metadata !2, metadata !"", metadata !2, i32 0, i64 32, i64 32, i64 0, i32 0, metadata !379} ; [ DW_TAG_pointer_type ]
!568 = metadata !{i32 458798, i32 0, metadata !553, metadata !"operator ap_int_base<32, false>", metadata !"operator ap_int_base<32, false>", metadata !"_ZNK12ap_range_refILi32ELb0EEcv11ap_int_baseILi32ELb0EEEv", metadata !16, i32 885, metadata !569, i1 false, i1 true, i32 0, i32 0, null, i1 false} ; [ DW_TAG_subprogram ]
!569 = metadata !{i32 458773, metadata !2, metadata !"", metadata !2, i32 0, i64 0, i64 0, i64 0, i32 0, null, metadata !570, i32 0, null} ; [ DW_TAG_subroutine_type ]
!570 = metadata !{metadata !379, metadata !571}
!571 = metadata !{i32 458767, metadata !2, metadata !"", metadata !2, i32 0, i64 32, i64 32, i64 0, i32 64, metadata !563} ; [ DW_TAG_pointer_type ]
!572 = metadata !{i32 458798, i32 0, metadata !553, metadata !"operator long long unsigned int", metadata !"operator long long unsigned int", metadata !"_ZNK12ap_range_refILi32ELb0EEcvyEv", metadata !16, i32 891, metadata !573, i1 false, i1 false, i32 0, i32 0, null, i1 false} ; [ DW_TAG_subprogram ]
!573 = metadata !{i32 458773, metadata !2, metadata !"", metadata !2, i32 0, i64 0, i64 0, i64 0, i32 0, null, metadata !574, i32 0, null} ; [ DW_TAG_subroutine_type ]
!574 = metadata !{metadata !40, metadata !571}
!575 = metadata !{i32 458798, i32 0, metadata !553, metadata !"operator=", metadata !"operator=", metadata !"_ZN12ap_range_refILi32ELb0EEaSEy", metadata !16, i32 895, metadata !576, i1 false, i1 false, i32 0, i32 0, null, i1 false} ; [ DW_TAG_subprogram ]
!576 = metadata !{i32 458773, metadata !2, metadata !"", metadata !2, i32 0, i64 0, i64 0, i64 0, i32 0, null, metadata !577, i32 0, null} ; [ DW_TAG_subroutine_type ]
!577 = metadata !{metadata !578, metadata !561, metadata !40}
!578 = metadata !{i32 458768, metadata !2, metadata !"ap_range_ref<32,false>", metadata !2, i32 0, i64 32, i64 32, i64 0, i32 0, metadata !553} ; [ DW_TAG_reference_type ]
!579 = metadata !{i32 458798, i32 0, metadata !553, metadata !"operator=", metadata !"operator=", metadata !"_ZN12ap_range_refILi32ELb0EEaSERKS0_", metadata !16, i32 913, metadata !580, i1 false, i1 false, i32 0, i32 0, null, i1 false} ; [ DW_TAG_subprogram ]
!580 = metadata !{i32 458773, metadata !2, metadata !"", metadata !2, i32 0, i64 0, i64 0, i64 0, i32 0, null, metadata !581, i32 0, null} ; [ DW_TAG_subroutine_type ]
!581 = metadata !{metadata !578, metadata !561, metadata !562}
!582 = metadata !{i32 458798, i32 0, metadata !553, metadata !"operator,", metadata !"operator,", metadata !"_ZN12ap_range_refILi32ELb0EEcmER11ap_int_baseILi32ELb0EE", metadata !16, i32 968, metadata !583, i1 false, i1 false, i32 0, i32 0, null, i1 false} ; [ DW_TAG_subprogram ]
!583 = metadata !{i32 458773, metadata !2, metadata !"", metadata !2, i32 0, i64 0, i64 0, i64 0, i32 0, null, metadata !584, i32 0, null} ; [ DW_TAG_subroutine_type ]
!584 = metadata !{metadata !585, metadata !561, metadata !470}
!585 = metadata !{i32 458771, metadata !2, metadata !"ap_concat_ref<32,ap_range_ref<32, false>,32,ap_int_base<32, false> >", metadata !16, i32 634, i64 0, i64 0, i64 0, i32 4, null, null, i32 0, null} ; [ DW_TAG_structure_type ]
!586 = metadata !{i32 458798, i32 0, metadata !553, metadata !"length", metadata !"length", metadata !"_ZNK12ap_range_refILi32ELb0EE6lengthEv", metadata !16, i32 1077, metadata !587, i1 false, i1 false, i32 0, i32 0, null, i1 false} ; [ DW_TAG_subprogram ]
!587 = metadata !{i32 458773, metadata !2, metadata !"", metadata !2, i32 0, i64 0, i64 0, i64 0, i32 0, null, metadata !588, i32 0, null} ; [ DW_TAG_subroutine_type ]
!588 = metadata !{metadata !70, metadata !571}
!589 = metadata !{i32 458798, i32 0, metadata !553, metadata !"to_int", metadata !"to_int", metadata !"_ZNK12ap_range_refILi32ELb0EE6to_intEv", metadata !16, i32 1081, metadata !587, i1 false, i1 false, i32 0, i32 0, null, i1 false} ; [ DW_TAG_subprogram ]
!590 = metadata !{i32 458798, i32 0, metadata !553, metadata !"to_uint", metadata !"to_uint", metadata !"_ZNK12ap_range_refILi32ELb0EE7to_uintEv", metadata !16, i32 1084, metadata !591, i1 false, i1 false, i32 0, i32 0, null, i1 false} ; [ DW_TAG_subprogram ]
!591 = metadata !{i32 458773, metadata !2, metadata !"", metadata !2, i32 0, i64 0, i64 0, i64 0, i32 0, null, metadata !592, i32 0, null} ; [ DW_TAG_subroutine_type ]
!592 = metadata !{metadata !74, metadata !571}
!593 = metadata !{i32 458798, i32 0, metadata !553, metadata !"to_long", metadata !"to_long", metadata !"_ZNK12ap_range_refILi32ELb0EE7to_longEv", metadata !16, i32 1087, metadata !594, i1 false, i1 false, i32 0, i32 0, null, i1 false} ; [ DW_TAG_subprogram ]
!594 = metadata !{i32 458773, metadata !2, metadata !"", metadata !2, i32 0, i64 0, i64 0, i64 0, i32 0, null, metadata !595, i32 0, null} ; [ DW_TAG_subroutine_type ]
!595 = metadata !{metadata !78, metadata !571}
!596 = metadata !{i32 458798, i32 0, metadata !553, metadata !"to_ulong", metadata !"to_ulong", metadata !"_ZNK12ap_range_refILi32ELb0EE8to_ulongEv", metadata !16, i32 1090, metadata !597, i1 false, i1 false, i32 0, i32 0, null, i1 false} ; [ DW_TAG_subprogram ]
!597 = metadata !{i32 458773, metadata !2, metadata !"", metadata !2, i32 0, i64 0, i64 0, i64 0, i32 0, null, metadata !598, i32 0, null} ; [ DW_TAG_subroutine_type ]
!598 = metadata !{metadata !82, metadata !571}
!599 = metadata !{i32 458798, i32 0, metadata !553, metadata !"to_int64", metadata !"to_int64", metadata !"_ZNK12ap_range_refILi32ELb0EE8to_int64Ev", metadata !16, i32 1093, metadata !600, i1 false, i1 false, i32 0, i32 0, null, i1 false} ; [ DW_TAG_subprogram ]
!600 = metadata !{i32 458773, metadata !2, metadata !"", metadata !2, i32 0, i64 0, i64 0, i64 0, i32 0, null, metadata !601, i32 0, null} ; [ DW_TAG_subroutine_type ]
!601 = metadata !{metadata !158, metadata !571}
!602 = metadata !{i32 458798, i32 0, metadata !553, metadata !"to_uint64", metadata !"to_uint64", metadata !"_ZNK12ap_range_refILi32ELb0EE9to_uint64Ev", metadata !16, i32 1096, metadata !603, i1 false, i1 false, i32 0, i32 0, null, i1 false} ; [ DW_TAG_subprogram ]
!603 = metadata !{i32 458773, metadata !2, metadata !"", metadata !2, i32 0, i64 0, i64 0, i64 0, i32 0, null, metadata !604, i32 0, null} ; [ DW_TAG_subroutine_type ]
!604 = metadata !{metadata !38, metadata !571}
!605 = metadata !{i32 458798, i32 0, metadata !379, metadata !"operator()", metadata !"operator()", metadata !"_ZN11ap_int_baseILi32ELb0EEclEii", metadata !16, i32 1907, metadata !551, i1 false, i1 false, i32 0, i32 0, null, i1 false} ; [ DW_TAG_subprogram ]
!606 = metadata !{i32 458798, i32 0, metadata !379, metadata !"range", metadata !"range", metadata !"_ZNK11ap_int_baseILi32ELb0EE5rangeEii", metadata !16, i32 1913, metadata !607, i1 false, i1 false, i32 0, i32 0, null, i1 false} ; [ DW_TAG_subprogram ]
!607 = metadata !{i32 458773, metadata !2, metadata !"", metadata !2, i32 0, i64 0, i64 0, i64 0, i32 0, null, metadata !608, i32 0, null} ; [ DW_TAG_subroutine_type ]
!608 = metadata !{metadata !553, metadata !489, metadata !70, metadata !70}
!609 = metadata !{i32 458798, i32 0, metadata !379, metadata !"operator()", metadata !"operator()", metadata !"_ZNK11ap_int_baseILi32ELb0EEclEii", metadata !16, i32 1919, metadata !607, i1 false, i1 false, i32 0, i32 0, null, i1 false} ; [ DW_TAG_subprogram ]
!610 = metadata !{i32 458798, i32 0, metadata !379, metadata !"operator[]", metadata !"operator[]", metadata !"_ZN11ap_int_baseILi32ELb0EEixEi", metadata !16, i32 1978, metadata !611, i1 false, i1 false, i32 0, i32 0, null, i1 false} ; [ DW_TAG_subprogram ]
!611 = metadata !{i32 458773, metadata !2, metadata !"", metadata !2, i32 0, i64 0, i64 0, i64 0, i32 0, null, metadata !612, i32 0, null} ; [ DW_TAG_subroutine_type ]
!612 = metadata !{metadata !613, metadata !405, metadata !70}
!613 = metadata !{i32 458771, metadata !2, metadata !"ap_bit_ref<32,false>", metadata !16, i32 1106, i64 0, i64 0, i64 0, i32 4, null, null, i32 0, null} ; [ DW_TAG_structure_type ]
!614 = metadata !{i32 458798, i32 0, metadata !379, metadata !"operator[]", metadata !"operator[]", metadata !"_ZNK11ap_int_baseILi32ELb0EEixEi", metadata !16, i32 1992, metadata !524, i1 false, i1 false, i32 0, i32 0, null, i1 false} ; [ DW_TAG_subprogram ]
!615 = metadata !{i32 458798, i32 0, metadata !379, metadata !"bit", metadata !"bit", metadata !"_ZN11ap_int_baseILi32ELb0EE3bitEi", metadata !16, i32 2006, metadata !611, i1 false, i1 false, i32 0, i32 0, null, i1 false} ; [ DW_TAG_subprogram ]
!616 = metadata !{i32 458798, i32 0, metadata !379, metadata !"bit", metadata !"bit", metadata !"_ZNK11ap_int_baseILi32ELb0EE3bitEi", metadata !16, i32 2020, metadata !524, i1 false, i1 false, i32 0, i32 0, null, i1 false} ; [ DW_TAG_subprogram ]
!617 = metadata !{i32 458798, i32 0, metadata !379, metadata !"and_reduce", metadata !"and_reduce", metadata !"_ZN11ap_int_baseILi32ELb0EE10and_reduceEv", metadata !16, i32 2200, metadata !618, i1 false, i1 false, i32 0, i32 0, null, i1 false} ; [ DW_TAG_subprogram ]
!618 = metadata !{i32 458773, metadata !2, metadata !"", metadata !2, i32 0, i64 0, i64 0, i64 0, i32 0, null, metadata !619, i32 0, null} ; [ DW_TAG_subroutine_type ]
!619 = metadata !{metadata !50, metadata !405}
!620 = metadata !{i32 458798, i32 0, metadata !379, metadata !"nand_reduce", metadata !"nand_reduce", metadata !"_ZN11ap_int_baseILi32ELb0EE11nand_reduceEv", metadata !16, i32 2203, metadata !618, i1 false, i1 false, i32 0, i32 0, null, i1 false} ; [ DW_TAG_subprogram ]
!621 = metadata !{i32 458798, i32 0, metadata !379, metadata !"or_reduce", metadata !"or_reduce", metadata !"_ZN11ap_int_baseILi32ELb0EE9or_reduceEv", metadata !16, i32 2206, metadata !618, i1 false, i1 false, i32 0, i32 0, null, i1 false} ; [ DW_TAG_subprogram ]
!622 = metadata !{i32 458798, i32 0, metadata !379, metadata !"nor_reduce", metadata !"nor_reduce", metadata !"_ZN11ap_int_baseILi32ELb0EE10nor_reduceEv", metadata !16, i32 2209, metadata !618, i1 false, i1 false, i32 0, i32 0, null, i1 false} ; [ DW_TAG_subprogram ]
!623 = metadata !{i32 458798, i32 0, metadata !379, metadata !"xor_reduce", metadata !"xor_reduce", metadata !"_ZN11ap_int_baseILi32ELb0EE10xor_reduceEv", metadata !16, i32 2212, metadata !618, i1 false, i1 false, i32 0, i32 0, null, i1 false} ; [ DW_TAG_subprogram ]
!624 = metadata !{i32 458798, i32 0, metadata !379, metadata !"xnor_reduce", metadata !"xnor_reduce", metadata !"_ZN11ap_int_baseILi32ELb0EE11xnor_reduceEv", metadata !16, i32 2215, metadata !618, i1 false, i1 false, i32 0, i32 0, null, i1 false} ; [ DW_TAG_subprogram ]
!625 = metadata !{i32 458798, i32 0, metadata !379, metadata !"and_reduce", metadata !"and_reduce", metadata !"_ZNK11ap_int_baseILi32ELb0EE10and_reduceEv", metadata !16, i32 2219, metadata !517, i1 false, i1 false, i32 0, i32 0, null, i1 false} ; [ DW_TAG_subprogram ]
!626 = metadata !{i32 458798, i32 0, metadata !379, metadata !"nand_reduce", metadata !"nand_reduce", metadata !"_ZNK11ap_int_baseILi32ELb0EE11nand_reduceEv", metadata !16, i32 2222, metadata !517, i1 false, i1 false, i32 0, i32 0, null, i1 false} ; [ DW_TAG_subprogram ]
!627 = metadata !{i32 458798, i32 0, metadata !379, metadata !"or_reduce", metadata !"or_reduce", metadata !"_ZNK11ap_int_baseILi32ELb0EE9or_reduceEv", metadata !16, i32 2225, metadata !517, i1 false, i1 false, i32 0, i32 0, null, i1 false} ; [ DW_TAG_subprogram ]
!628 = metadata !{i32 458798, i32 0, metadata !379, metadata !"nor_reduce", metadata !"nor_reduce", metadata !"_ZNK11ap_int_baseILi32ELb0EE10nor_reduceEv", metadata !16, i32 2228, metadata !517, i1 false, i1 false, i32 0, i32 0, null, i1 false} ; [ DW_TAG_subprogram ]
!629 = metadata !{i32 458798, i32 0, metadata !379, metadata !"xor_reduce", metadata !"xor_reduce", metadata !"_ZNK11ap_int_baseILi32ELb0EE10xor_reduceEv", metadata !16, i32 2231, metadata !517, i1 false, i1 false, i32 0, i32 0, null, i1 false} ; [ DW_TAG_subprogram ]
!630 = metadata !{i32 458798, i32 0, metadata !379, metadata !"xnor_reduce", metadata !"xnor_reduce", metadata !"_ZNK11ap_int_baseILi32ELb0EE11xnor_reduceEv", metadata !16, i32 2234, metadata !517, i1 false, i1 false, i32 0, i32 0, null, i1 false} ; [ DW_TAG_subprogram ]
!631 = metadata !{i32 458798, i32 0, metadata !379, metadata !"to_string", metadata !"to_string", metadata !"_ZNK11ap_int_baseILi32ELb0EE9to_stringEPci8BaseModeb", metadata !16, i32 2241, metadata !632, i1 false, i1 false, i32 0, i32 0, null, i1 false} ; [ DW_TAG_subprogram ]
!632 = metadata !{i32 458773, metadata !2, metadata !"", metadata !2, i32 0, i64 0, i64 0, i64 0, i32 0, null, metadata !633, i32 0, null} ; [ DW_TAG_subroutine_type ]
!633 = metadata !{null, metadata !489, metadata !240, metadata !70, metadata !241, metadata !50}
!634 = metadata !{i32 458798, i32 0, metadata !379, metadata !"to_string", metadata !"to_string", metadata !"_ZNK11ap_int_baseILi32ELb0EE9to_stringE8BaseModeb", metadata !16, i32 2268, metadata !635, i1 false, i1 false, i32 0, i32 0, null, i1 false} ; [ DW_TAG_subprogram ]
!635 = metadata !{i32 458773, metadata !2, metadata !"", metadata !2, i32 0, i64 0, i64 0, i64 0, i32 0, null, metadata !636, i32 0, null} ; [ DW_TAG_subroutine_type ]
!636 = metadata !{metadata !240, metadata !489, metadata !241, metadata !50}
!637 = metadata !{i32 458798, i32 0, metadata !379, metadata !"to_string", metadata !"to_string", metadata !"_ZNK11ap_int_baseILi32ELb0EE9to_stringEab", metadata !16, i32 2272, metadata !638, i1 false, i1 false, i32 0, i32 0, null, i1 false} ; [ DW_TAG_subprogram ]
!638 = metadata !{i32 458773, metadata !2, metadata !"", metadata !2, i32 0, i64 0, i64 0, i64 0, i32 0, null, metadata !639, i32 0, null} ; [ DW_TAG_subroutine_type ]
!639 = metadata !{metadata !240, metadata !489, metadata !54, metadata !50}
!640 = metadata !{i32 458798, i32 0, metadata !376, metadata !"ap_uint", metadata !"ap_uint", metadata !"", metadata !12, i32 137, metadata !641, i1 false, i1 false, i32 0, i32 0, null, i1 false} ; [ DW_TAG_subprogram ]
!641 = metadata !{i32 458773, metadata !2, metadata !"", metadata !2, i32 0, i64 0, i64 0, i64 0, i32 0, null, metadata !642, i32 0, null} ; [ DW_TAG_subroutine_type ]
!642 = metadata !{null, metadata !643}
!643 = metadata !{i32 458767, metadata !2, metadata !"", metadata !2, i32 0, i64 32, i64 32, i64 0, i32 64, metadata !376} ; [ DW_TAG_pointer_type ]
!644 = metadata !{i32 458798, i32 0, metadata !376, metadata !"ap_uint", metadata !"ap_uint", metadata !"", metadata !12, i32 199, metadata !645, i1 false, i1 false, i32 0, i32 0, null, i1 false} ; [ DW_TAG_subprogram ]
!645 = metadata !{i32 458773, metadata !2, metadata !"", metadata !2, i32 0, i64 0, i64 0, i64 0, i32 0, null, metadata !646, i32 0, null} ; [ DW_TAG_subroutine_type ]
!646 = metadata !{null, metadata !643, metadata !50}
!647 = metadata !{i32 458798, i32 0, metadata !376, metadata !"ap_uint", metadata !"ap_uint", metadata !"", metadata !12, i32 200, metadata !648, i1 false, i1 false, i32 0, i32 0, null, i1 false} ; [ DW_TAG_subprogram ]
!648 = metadata !{i32 458773, metadata !2, metadata !"", metadata !2, i32 0, i64 0, i64 0, i64 0, i32 0, null, metadata !649, i32 0, null} ; [ DW_TAG_subroutine_type ]
!649 = metadata !{null, metadata !643, metadata !54}
!650 = metadata !{i32 458798, i32 0, metadata !376, metadata !"ap_uint", metadata !"ap_uint", metadata !"", metadata !12, i32 201, metadata !651, i1 false, i1 false, i32 0, i32 0, null, i1 false} ; [ DW_TAG_subprogram ]
!651 = metadata !{i32 458773, metadata !2, metadata !"", metadata !2, i32 0, i64 0, i64 0, i64 0, i32 0, null, metadata !652, i32 0, null} ; [ DW_TAG_subroutine_type ]
!652 = metadata !{null, metadata !643, metadata !58}
!653 = metadata !{i32 458798, i32 0, metadata !376, metadata !"ap_uint", metadata !"ap_uint", metadata !"", metadata !12, i32 202, metadata !654, i1 false, i1 false, i32 0, i32 0, null, i1 false} ; [ DW_TAG_subprogram ]
!654 = metadata !{i32 458773, metadata !2, metadata !"", metadata !2, i32 0, i64 0, i64 0, i64 0, i32 0, null, metadata !655, i32 0, null} ; [ DW_TAG_subroutine_type ]
!655 = metadata !{null, metadata !643, metadata !62}
!656 = metadata !{i32 458798, i32 0, metadata !376, metadata !"ap_uint", metadata !"ap_uint", metadata !"", metadata !12, i32 203, metadata !657, i1 false, i1 false, i32 0, i32 0, null, i1 false} ; [ DW_TAG_subprogram ]
!657 = metadata !{i32 458773, metadata !2, metadata !"", metadata !2, i32 0, i64 0, i64 0, i64 0, i32 0, null, metadata !658, i32 0, null} ; [ DW_TAG_subroutine_type ]
!658 = metadata !{null, metadata !643, metadata !66}
!659 = metadata !{i32 458798, i32 0, metadata !376, metadata !"ap_uint", metadata !"ap_uint", metadata !"", metadata !12, i32 204, metadata !660, i1 false, i1 false, i32 0, i32 0, null, i1 false} ; [ DW_TAG_subprogram ]
!660 = metadata !{i32 458773, metadata !2, metadata !"", metadata !2, i32 0, i64 0, i64 0, i64 0, i32 0, null, metadata !661, i32 0, null} ; [ DW_TAG_subroutine_type ]
!661 = metadata !{null, metadata !643, metadata !70}
!662 = metadata !{i32 458798, i32 0, metadata !376, metadata !"ap_uint", metadata !"ap_uint", metadata !"", metadata !12, i32 205, metadata !663, i1 false, i1 false, i32 0, i32 0, null, i1 false} ; [ DW_TAG_subprogram ]
!663 = metadata !{i32 458773, metadata !2, metadata !"", metadata !2, i32 0, i64 0, i64 0, i64 0, i32 0, null, metadata !664, i32 0, null} ; [ DW_TAG_subroutine_type ]
!664 = metadata !{null, metadata !643, metadata !74}
!665 = metadata !{i32 458798, i32 0, metadata !376, metadata !"ap_uint", metadata !"ap_uint", metadata !"", metadata !12, i32 206, metadata !666, i1 false, i1 false, i32 0, i32 0, null, i1 false} ; [ DW_TAG_subprogram ]
!666 = metadata !{i32 458773, metadata !2, metadata !"", metadata !2, i32 0, i64 0, i64 0, i64 0, i32 0, null, metadata !667, i32 0, null} ; [ DW_TAG_subroutine_type ]
!667 = metadata !{null, metadata !643, metadata !78}
!668 = metadata !{i32 458798, i32 0, metadata !376, metadata !"ap_uint", metadata !"ap_uint", metadata !"", metadata !12, i32 207, metadata !669, i1 false, i1 false, i32 0, i32 0, null, i1 false} ; [ DW_TAG_subprogram ]
!669 = metadata !{i32 458773, metadata !2, metadata !"", metadata !2, i32 0, i64 0, i64 0, i64 0, i32 0, null, metadata !670, i32 0, null} ; [ DW_TAG_subroutine_type ]
!670 = metadata !{null, metadata !643, metadata !82}
!671 = metadata !{i32 458798, i32 0, metadata !376, metadata !"ap_uint", metadata !"ap_uint", metadata !"", metadata !12, i32 208, metadata !672, i1 false, i1 false, i32 0, i32 0, null, i1 false} ; [ DW_TAG_subprogram ]
!672 = metadata !{i32 458773, metadata !2, metadata !"", metadata !2, i32 0, i64 0, i64 0, i64 0, i32 0, null, metadata !673, i32 0, null} ; [ DW_TAG_subroutine_type ]
!673 = metadata !{null, metadata !643, metadata !40}
!674 = metadata !{i32 458798, i32 0, metadata !376, metadata !"ap_uint", metadata !"ap_uint", metadata !"", metadata !12, i32 209, metadata !675, i1 false, i1 false, i32 0, i32 0, null, i1 false} ; [ DW_TAG_subprogram ]
!675 = metadata !{i32 458773, metadata !2, metadata !"", metadata !2, i32 0, i64 0, i64 0, i64 0, i32 0, null, metadata !676, i32 0, null} ; [ DW_TAG_subroutine_type ]
!676 = metadata !{null, metadata !643, metadata !86}
!677 = metadata !{i32 458798, i32 0, metadata !376, metadata !"ap_uint", metadata !"ap_uint", metadata !"", metadata !12, i32 210, metadata !678, i1 false, i1 false, i32 0, i32 0, null, i1 false} ; [ DW_TAG_subprogram ]
!678 = metadata !{i32 458773, metadata !2, metadata !"", metadata !2, i32 0, i64 0, i64 0, i64 0, i32 0, null, metadata !679, i32 0, null} ; [ DW_TAG_subroutine_type ]
!679 = metadata !{null, metadata !643, metadata !93}
!680 = metadata !{i32 458798, i32 0, metadata !376, metadata !"ap_uint", metadata !"ap_uint", metadata !"", metadata !12, i32 211, metadata !681, i1 false, i1 false, i32 0, i32 0, null, i1 false} ; [ DW_TAG_subprogram ]
!681 = metadata !{i32 458773, metadata !2, metadata !"", metadata !2, i32 0, i64 0, i64 0, i64 0, i32 0, null, metadata !682, i32 0, null} ; [ DW_TAG_subroutine_type ]
!682 = metadata !{null, metadata !643, metadata !97}
!683 = metadata !{i32 458798, i32 0, metadata !376, metadata !"ap_uint", metadata !"ap_uint", metadata !"", metadata !12, i32 213, metadata !684, i1 false, i1 false, i32 0, i32 0, null, i1 false} ; [ DW_TAG_subprogram ]
!684 = metadata !{i32 458773, metadata !2, metadata !"", metadata !2, i32 0, i64 0, i64 0, i64 0, i32 0, null, metadata !685, i32 0, null} ; [ DW_TAG_subroutine_type ]
!685 = metadata !{null, metadata !643, metadata !101}
!686 = metadata !{i32 458798, i32 0, metadata !376, metadata !"ap_uint", metadata !"ap_uint", metadata !"", metadata !12, i32 214, metadata !687, i1 false, i1 false, i32 0, i32 0, null, i1 false} ; [ DW_TAG_subprogram ]
!687 = metadata !{i32 458773, metadata !2, metadata !"", metadata !2, i32 0, i64 0, i64 0, i64 0, i32 0, null, metadata !688, i32 0, null} ; [ DW_TAG_subroutine_type ]
!688 = metadata !{null, metadata !643, metadata !101, metadata !54}
!689 = metadata !{i32 458798, i32 0, metadata !376, metadata !"operator=", metadata !"operator=", metadata !"_ZNV7ap_uintILi32EEaSERKS0_", metadata !12, i32 217, metadata !690, i1 false, i1 false, i32 0, i32 0, null, i1 false} ; [ DW_TAG_subprogram ]
!690 = metadata !{i32 458773, metadata !2, metadata !"", metadata !2, i32 0, i64 0, i64 0, i64 0, i32 0, null, metadata !691, i32 0, null} ; [ DW_TAG_subroutine_type ]
!691 = metadata !{null, metadata !692, metadata !694}
!692 = metadata !{i32 458767, metadata !2, metadata !"", metadata !2, i32 0, i64 32, i64 32, i64 0, i32 64, metadata !693} ; [ DW_TAG_pointer_type ]
!693 = metadata !{i32 458805, metadata !2, metadata !"", metadata !2, i32 0, i64 32, i64 32, i64 0, i32 0, metadata !376} ; [ DW_TAG_volatile_type ]
!694 = metadata !{i32 458768, metadata !2, metadata !"", metadata !2, i32 0, i64 32, i64 32, i64 0, i32 0, metadata !695} ; [ DW_TAG_reference_type ]
!695 = metadata !{i32 458790, metadata !2, metadata !"", metadata !2, i32 0, i64 32, i64 32, i64 0, i32 0, metadata !376} ; [ DW_TAG_const_type ]
!696 = metadata !{i32 458798, i32 0, metadata !376, metadata !"operator=", metadata !"operator=", metadata !"_ZNV7ap_uintILi32EEaSERVKS0_", metadata !12, i32 221, metadata !697, i1 false, i1 false, i32 0, i32 0, null, i1 false} ; [ DW_TAG_subprogram ]
!697 = metadata !{i32 458773, metadata !2, metadata !"", metadata !2, i32 0, i64 0, i64 0, i64 0, i32 0, null, metadata !698, i32 0, null} ; [ DW_TAG_subroutine_type ]
!698 = metadata !{null, metadata !692, metadata !699}
!699 = metadata !{i32 458768, metadata !2, metadata !"", metadata !2, i32 0, i64 32, i64 32, i64 0, i32 0, metadata !700} ; [ DW_TAG_reference_type ]
!700 = metadata !{i32 458790, metadata !2, metadata !"", metadata !2, i32 0, i64 32, i64 32, i64 0, i32 0, metadata !693} ; [ DW_TAG_const_type ]
!701 = metadata !{i32 458798, i32 0, metadata !376, metadata !"operator=", metadata !"operator=", metadata !"_ZN7ap_uintILi32EEaSERVKS0_", metadata !12, i32 225, metadata !702, i1 false, i1 false, i32 0, i32 0, null, i1 false} ; [ DW_TAG_subprogram ]
!702 = metadata !{i32 458773, metadata !2, metadata !"", metadata !2, i32 0, i64 0, i64 0, i64 0, i32 0, null, metadata !703, i32 0, null} ; [ DW_TAG_subroutine_type ]
!703 = metadata !{metadata !704, metadata !643, metadata !699}
!704 = metadata !{i32 458768, metadata !2, metadata !"ap_uint<32>", metadata !2, i32 0, i64 32, i64 32, i64 0, i32 0, metadata !376} ; [ DW_TAG_reference_type ]
!705 = metadata !{i32 458798, i32 0, metadata !376, metadata !"operator=", metadata !"operator=", metadata !"_ZN7ap_uintILi32EEaSERKS0_", metadata !12, i32 230, metadata !706, i1 false, i1 true, i32 0, i32 0, null, i1 false} ; [ DW_TAG_subprogram ]
!706 = metadata !{i32 458773, metadata !2, metadata !"", metadata !2, i32 0, i64 0, i64 0, i64 0, i32 0, null, metadata !707, i32 0, null} ; [ DW_TAG_subroutine_type ]
!707 = metadata !{metadata !704, metadata !643, metadata !694}
!708 = metadata !{i32 458765, metadata !372, metadata !"strb", metadata !373, i32 64, i64 8, i64 8, i64 32, i32 0, metadata !709} ; [ DW_TAG_member ]
!709 = metadata !{i32 458771, metadata !2, metadata !"ap_uint<4>", metadata !12, i32 134, i64 8, i64 8, i64 0, i32 0, null, metadata !710, i32 0, null} ; [ DW_TAG_structure_type ]
!710 = metadata !{metadata !711, metadata !921, metadata !925, metadata !928, metadata !931, metadata !934, metadata !937, metadata !940, metadata !943, metadata !946, metadata !949, metadata !952, metadata !955, metadata !958, metadata !961, metadata !964, metadata !967, metadata !970, metadata !977, metadata !982, metadata !986}
!711 = metadata !{i32 458780, metadata !2, metadata !"", null, i32 0, i64 0, i64 0, i64 0, i32 0, metadata !712} ; [ DW_TAG_inheritance ]
!712 = metadata !{i32 458771, metadata !2, metadata !"ap_int_base<4,false>", metadata !16, i32 1306, i64 8, i64 8, i64 0, i32 0, null, metadata !713, i32 0, null} ; [ DW_TAG_structure_type ]
!713 = metadata !{metadata !714, metadata !734, metadata !738, metadata !741, metadata !744, metadata !747, metadata !750, metadata !753, metadata !756, metadata !759, metadata !762, metadata !765, metadata !768, metadata !771, metadata !774, metadata !777, metadata !780, metadata !783, metadata !788, metadata !793, metadata !798, metadata !799, metadata !803, metadata !806, metadata !809, metadata !812, metadata !815, metadata !818, metadata !822, metadata !825, metadata !828, metadata !831, metadata !834, metadata !837, metadata !840, metadata !841, metadata !845, metadata !848, metadata !851, metadata !852, metadata !853, metadata !854, metadata !855, metadata !858, metadata !859, metadata !862, metadata !863, metadata !864, metadata !865, metadata !866, metadata !867, metadata !868, metadata !869, metadata !872, metadata !873, metadata !876, metadata !880, metadata !881, metadata !882, metadata !886, metadata !887, metadata !890, metadata !891, metadata !895, metadata !896, metadata !897, metadata !898, metadata !901, metadata !902, metadata !903, metadata !904, metadata !905, metadata !906, metadata !907, metadata !908, metadata !909, metadata !910, metadata !911, metadata !912, metadata !915, metadata !918}
!714 = metadata !{i32 458780, metadata !2, metadata !"", null, i32 0, i64 0, i64 0, i64 0, i32 0, metadata !715} ; [ DW_TAG_inheritance ]
!715 = metadata !{i32 458771, metadata !2, metadata !"conv_cint<4,false,true>", metadata !16, i32 1269, i64 8, i64 8, i64 0, i32 0, null, metadata !716, i32 0, null} ; [ DW_TAG_structure_type ]
!716 = metadata !{metadata !717, metadata !725, metadata !729}
!717 = metadata !{i32 458780, metadata !2, metadata !"", null, i32 0, i64 0, i64 0, i64 0, i32 0, metadata !718} ; [ DW_TAG_inheritance ]
!718 = metadata !{i32 458771, metadata !2, metadata !"ssdm_int<4,false>", metadata !23, i32 6, i64 8, i64 8, i64 0, i32 0, null, metadata !719, i32 0, null} ; [ DW_TAG_structure_type ]
!719 = metadata !{metadata !720, metadata !721}
!720 = metadata !{i32 458765, metadata !718, metadata !"V", metadata !23, i32 6, i64 8, i64 8, i64 0, i32 0, metadata !26} ; [ DW_TAG_member ]
!721 = metadata !{i32 458798, i32 0, metadata !718, metadata !"ssdm_int", metadata !"ssdm_int", metadata !"", metadata !23, i32 6, metadata !722, i1 false, i1 false, i32 0, i32 0, null, i1 false} ; [ DW_TAG_subprogram ]
!722 = metadata !{i32 458773, metadata !2, metadata !"", metadata !2, i32 0, i64 0, i64 0, i64 0, i32 0, null, metadata !723, i32 0, null} ; [ DW_TAG_subroutine_type ]
!723 = metadata !{null, metadata !724}
!724 = metadata !{i32 458767, metadata !2, metadata !"", metadata !2, i32 0, i64 32, i64 32, i64 0, i32 64, metadata !718} ; [ DW_TAG_pointer_type ]
!725 = metadata !{i32 458798, i32 0, metadata !715, metadata !"conv_cint", metadata !"conv_cint", metadata !"", metadata !16, i32 1275, metadata !726, i1 false, i1 false, i32 0, i32 0, null, i1 false} ; [ DW_TAG_subprogram ]
!726 = metadata !{i32 458773, metadata !2, metadata !"", metadata !2, i32 0, i64 0, i64 0, i64 0, i32 0, null, metadata !727, i32 0, null} ; [ DW_TAG_subroutine_type ]
!727 = metadata !{null, metadata !728}
!728 = metadata !{i32 458767, metadata !2, metadata !"", metadata !2, i32 0, i64 32, i64 32, i64 0, i32 64, metadata !715} ; [ DW_TAG_pointer_type ]
!729 = metadata !{i32 458798, i32 0, metadata !715, metadata !"operator ap_ulong", metadata !"operator ap_ulong", metadata !"_ZNK9conv_cintILi4ELb0ELb1EEcvyEv", metadata !16, i32 1276, metadata !730, i1 false, i1 false, i32 0, i32 0, null, i1 false} ; [ DW_TAG_subprogram ]
!730 = metadata !{i32 458773, metadata !2, metadata !"", metadata !2, i32 0, i64 0, i64 0, i64 0, i32 0, null, metadata !731, i32 0, null} ; [ DW_TAG_subroutine_type ]
!731 = metadata !{metadata !38, metadata !732}
!732 = metadata !{i32 458767, metadata !2, metadata !"", metadata !2, i32 0, i64 32, i64 32, i64 0, i32 64, metadata !733} ; [ DW_TAG_pointer_type ]
!733 = metadata !{i32 458790, metadata !2, metadata !"", metadata !2, i32 0, i64 8, i64 8, i64 0, i32 0, metadata !715} ; [ DW_TAG_const_type ]
!734 = metadata !{i32 458798, i32 0, metadata !712, metadata !"ap_int_base", metadata !"ap_int_base", metadata !"", metadata !16, i32 1341, metadata !735, i1 false, i1 false, i32 0, i32 0, null, i1 false} ; [ DW_TAG_subprogram ]
!735 = metadata !{i32 458773, metadata !2, metadata !"", metadata !2, i32 0, i64 0, i64 0, i64 0, i32 0, null, metadata !736, i32 0, null} ; [ DW_TAG_subroutine_type ]
!736 = metadata !{null, metadata !737}
!737 = metadata !{i32 458767, metadata !2, metadata !"", metadata !2, i32 0, i64 32, i64 32, i64 0, i32 64, metadata !712} ; [ DW_TAG_pointer_type ]
!738 = metadata !{i32 458798, i32 0, metadata !712, metadata !"ap_int_base", metadata !"ap_int_base", metadata !"", metadata !16, i32 1363, metadata !739, i1 false, i1 false, i32 0, i32 0, null, i1 false} ; [ DW_TAG_subprogram ]
!739 = metadata !{i32 458773, metadata !2, metadata !"", metadata !2, i32 0, i64 0, i64 0, i64 0, i32 0, null, metadata !740, i32 0, null} ; [ DW_TAG_subroutine_type ]
!740 = metadata !{null, metadata !737, metadata !50}
!741 = metadata !{i32 458798, i32 0, metadata !712, metadata !"ap_int_base", metadata !"ap_int_base", metadata !"", metadata !16, i32 1364, metadata !742, i1 false, i1 false, i32 0, i32 0, null, i1 false} ; [ DW_TAG_subprogram ]
!742 = metadata !{i32 458773, metadata !2, metadata !"", metadata !2, i32 0, i64 0, i64 0, i64 0, i32 0, null, metadata !743, i32 0, null} ; [ DW_TAG_subroutine_type ]
!743 = metadata !{null, metadata !737, metadata !54}
!744 = metadata !{i32 458798, i32 0, metadata !712, metadata !"ap_int_base", metadata !"ap_int_base", metadata !"", metadata !16, i32 1365, metadata !745, i1 false, i1 false, i32 0, i32 0, null, i1 false} ; [ DW_TAG_subprogram ]
!745 = metadata !{i32 458773, metadata !2, metadata !"", metadata !2, i32 0, i64 0, i64 0, i64 0, i32 0, null, metadata !746, i32 0, null} ; [ DW_TAG_subroutine_type ]
!746 = metadata !{null, metadata !737, metadata !58}
!747 = metadata !{i32 458798, i32 0, metadata !712, metadata !"ap_int_base", metadata !"ap_int_base", metadata !"", metadata !16, i32 1366, metadata !748, i1 false, i1 false, i32 0, i32 0, null, i1 false} ; [ DW_TAG_subprogram ]
!748 = metadata !{i32 458773, metadata !2, metadata !"", metadata !2, i32 0, i64 0, i64 0, i64 0, i32 0, null, metadata !749, i32 0, null} ; [ DW_TAG_subroutine_type ]
!749 = metadata !{null, metadata !737, metadata !62}
!750 = metadata !{i32 458798, i32 0, metadata !712, metadata !"ap_int_base", metadata !"ap_int_base", metadata !"", metadata !16, i32 1367, metadata !751, i1 false, i1 false, i32 0, i32 0, null, i1 false} ; [ DW_TAG_subprogram ]
!751 = metadata !{i32 458773, metadata !2, metadata !"", metadata !2, i32 0, i64 0, i64 0, i64 0, i32 0, null, metadata !752, i32 0, null} ; [ DW_TAG_subroutine_type ]
!752 = metadata !{null, metadata !737, metadata !66}
!753 = metadata !{i32 458798, i32 0, metadata !712, metadata !"ap_int_base", metadata !"ap_int_base", metadata !"", metadata !16, i32 1368, metadata !754, i1 false, i1 false, i32 0, i32 0, null, i1 false} ; [ DW_TAG_subprogram ]
!754 = metadata !{i32 458773, metadata !2, metadata !"", metadata !2, i32 0, i64 0, i64 0, i64 0, i32 0, null, metadata !755, i32 0, null} ; [ DW_TAG_subroutine_type ]
!755 = metadata !{null, metadata !737, metadata !70}
!756 = metadata !{i32 458798, i32 0, metadata !712, metadata !"ap_int_base", metadata !"ap_int_base", metadata !"", metadata !16, i32 1369, metadata !757, i1 false, i1 false, i32 0, i32 0, null, i1 false} ; [ DW_TAG_subprogram ]
!757 = metadata !{i32 458773, metadata !2, metadata !"", metadata !2, i32 0, i64 0, i64 0, i64 0, i32 0, null, metadata !758, i32 0, null} ; [ DW_TAG_subroutine_type ]
!758 = metadata !{null, metadata !737, metadata !74}
!759 = metadata !{i32 458798, i32 0, metadata !712, metadata !"ap_int_base", metadata !"ap_int_base", metadata !"", metadata !16, i32 1370, metadata !760, i1 false, i1 false, i32 0, i32 0, null, i1 false} ; [ DW_TAG_subprogram ]
!760 = metadata !{i32 458773, metadata !2, metadata !"", metadata !2, i32 0, i64 0, i64 0, i64 0, i32 0, null, metadata !761, i32 0, null} ; [ DW_TAG_subroutine_type ]
!761 = metadata !{null, metadata !737, metadata !78}
!762 = metadata !{i32 458798, i32 0, metadata !712, metadata !"ap_int_base", metadata !"ap_int_base", metadata !"", metadata !16, i32 1371, metadata !763, i1 false, i1 false, i32 0, i32 0, null, i1 false} ; [ DW_TAG_subprogram ]
!763 = metadata !{i32 458773, metadata !2, metadata !"", metadata !2, i32 0, i64 0, i64 0, i64 0, i32 0, null, metadata !764, i32 0, null} ; [ DW_TAG_subroutine_type ]
!764 = metadata !{null, metadata !737, metadata !82}
!765 = metadata !{i32 458798, i32 0, metadata !712, metadata !"ap_int_base", metadata !"ap_int_base", metadata !"", metadata !16, i32 1372, metadata !766, i1 false, i1 false, i32 0, i32 0, null, i1 false} ; [ DW_TAG_subprogram ]
!766 = metadata !{i32 458773, metadata !2, metadata !"", metadata !2, i32 0, i64 0, i64 0, i64 0, i32 0, null, metadata !767, i32 0, null} ; [ DW_TAG_subroutine_type ]
!767 = metadata !{null, metadata !737, metadata !86}
!768 = metadata !{i32 458798, i32 0, metadata !712, metadata !"ap_int_base", metadata !"ap_int_base", metadata !"", metadata !16, i32 1373, metadata !769, i1 false, i1 false, i32 0, i32 0, null, i1 false} ; [ DW_TAG_subprogram ]
!769 = metadata !{i32 458773, metadata !2, metadata !"", metadata !2, i32 0, i64 0, i64 0, i64 0, i32 0, null, metadata !770, i32 0, null} ; [ DW_TAG_subroutine_type ]
!770 = metadata !{null, metadata !737, metadata !40}
!771 = metadata !{i32 458798, i32 0, metadata !712, metadata !"ap_int_base", metadata !"ap_int_base", metadata !"", metadata !16, i32 1374, metadata !772, i1 false, i1 false, i32 0, i32 0, null, i1 false} ; [ DW_TAG_subprogram ]
!772 = metadata !{i32 458773, metadata !2, metadata !"", metadata !2, i32 0, i64 0, i64 0, i64 0, i32 0, null, metadata !773, i32 0, null} ; [ DW_TAG_subroutine_type ]
!773 = metadata !{null, metadata !737, metadata !93}
!774 = metadata !{i32 458798, i32 0, metadata !712, metadata !"ap_int_base", metadata !"ap_int_base", metadata !"", metadata !16, i32 1375, metadata !775, i1 false, i1 false, i32 0, i32 0, null, i1 false} ; [ DW_TAG_subprogram ]
!775 = metadata !{i32 458773, metadata !2, metadata !"", metadata !2, i32 0, i64 0, i64 0, i64 0, i32 0, null, metadata !776, i32 0, null} ; [ DW_TAG_subroutine_type ]
!776 = metadata !{null, metadata !737, metadata !97}
!777 = metadata !{i32 458798, i32 0, metadata !712, metadata !"ap_int_base", metadata !"ap_int_base", metadata !"", metadata !16, i32 1402, metadata !778, i1 false, i1 false, i32 0, i32 0, null, i1 false} ; [ DW_TAG_subprogram ]
!778 = metadata !{i32 458773, metadata !2, metadata !"", metadata !2, i32 0, i64 0, i64 0, i64 0, i32 0, null, metadata !779, i32 0, null} ; [ DW_TAG_subroutine_type ]
!779 = metadata !{null, metadata !737, metadata !101}
!780 = metadata !{i32 458798, i32 0, metadata !712, metadata !"ap_int_base", metadata !"ap_int_base", metadata !"", metadata !16, i32 1408, metadata !781, i1 false, i1 false, i32 0, i32 0, null, i1 false} ; [ DW_TAG_subprogram ]
!781 = metadata !{i32 458773, metadata !2, metadata !"", metadata !2, i32 0, i64 0, i64 0, i64 0, i32 0, null, metadata !782, i32 0, null} ; [ DW_TAG_subroutine_type ]
!782 = metadata !{null, metadata !737, metadata !101, metadata !54}
!783 = metadata !{i32 458798, i32 0, metadata !712, metadata !"read", metadata !"read", metadata !"_ZNV11ap_int_baseILi4ELb0EE4readEv", metadata !16, i32 1428, metadata !784, i1 false, i1 false, i32 0, i32 0, null, i1 false} ; [ DW_TAG_subprogram ]
!784 = metadata !{i32 458773, metadata !2, metadata !"", metadata !2, i32 0, i64 0, i64 0, i64 0, i32 0, null, metadata !785, i32 0, null} ; [ DW_TAG_subroutine_type ]
!785 = metadata !{metadata !712, metadata !786}
!786 = metadata !{i32 458767, metadata !2, metadata !"", metadata !2, i32 0, i64 32, i64 32, i64 0, i32 64, metadata !787} ; [ DW_TAG_pointer_type ]
!787 = metadata !{i32 458805, metadata !2, metadata !"", metadata !2, i32 0, i64 8, i64 8, i64 0, i32 0, metadata !712} ; [ DW_TAG_volatile_type ]
!788 = metadata !{i32 458798, i32 0, metadata !712, metadata !"write", metadata !"write", metadata !"_ZNV11ap_int_baseILi4ELb0EE5writeERKS0_", metadata !16, i32 1434, metadata !789, i1 false, i1 false, i32 0, i32 0, null, i1 false} ; [ DW_TAG_subprogram ]
!789 = metadata !{i32 458773, metadata !2, metadata !"", metadata !2, i32 0, i64 0, i64 0, i64 0, i32 0, null, metadata !790, i32 0, null} ; [ DW_TAG_subroutine_type ]
!790 = metadata !{null, metadata !786, metadata !791}
!791 = metadata !{i32 458768, metadata !2, metadata !"", metadata !2, i32 0, i64 32, i64 32, i64 0, i32 0, metadata !792} ; [ DW_TAG_reference_type ]
!792 = metadata !{i32 458790, metadata !2, metadata !"", metadata !2, i32 0, i64 8, i64 8, i64 0, i32 0, metadata !712} ; [ DW_TAG_const_type ]
!793 = metadata !{i32 458798, i32 0, metadata !712, metadata !"operator=", metadata !"operator=", metadata !"_ZNV11ap_int_baseILi4ELb0EEaSERVKS0_", metadata !16, i32 1446, metadata !794, i1 false, i1 false, i32 0, i32 0, null, i1 false} ; [ DW_TAG_subprogram ]
!794 = metadata !{i32 458773, metadata !2, metadata !"", metadata !2, i32 0, i64 0, i64 0, i64 0, i32 0, null, metadata !795, i32 0, null} ; [ DW_TAG_subroutine_type ]
!795 = metadata !{null, metadata !786, metadata !796}
!796 = metadata !{i32 458768, metadata !2, metadata !"", metadata !2, i32 0, i64 32, i64 32, i64 0, i32 0, metadata !797} ; [ DW_TAG_reference_type ]
!797 = metadata !{i32 458790, metadata !2, metadata !"", metadata !2, i32 0, i64 8, i64 8, i64 0, i32 0, metadata !787} ; [ DW_TAG_const_type ]
!798 = metadata !{i32 458798, i32 0, metadata !712, metadata !"operator=", metadata !"operator=", metadata !"_ZNV11ap_int_baseILi4ELb0EEaSERKS0_", metadata !16, i32 1455, metadata !789, i1 false, i1 false, i32 0, i32 0, null, i1 false} ; [ DW_TAG_subprogram ]
!799 = metadata !{i32 458798, i32 0, metadata !712, metadata !"operator=", metadata !"operator=", metadata !"_ZN11ap_int_baseILi4ELb0EEaSERVKS0_", metadata !16, i32 1478, metadata !800, i1 false, i1 false, i32 0, i32 0, null, i1 false} ; [ DW_TAG_subprogram ]
!800 = metadata !{i32 458773, metadata !2, metadata !"", metadata !2, i32 0, i64 0, i64 0, i64 0, i32 0, null, metadata !801, i32 0, null} ; [ DW_TAG_subroutine_type ]
!801 = metadata !{metadata !802, metadata !737, metadata !796}
!802 = metadata !{i32 458768, metadata !2, metadata !"ap_int_base<4,false>", metadata !2, i32 0, i64 32, i64 32, i64 0, i32 0, metadata !712} ; [ DW_TAG_reference_type ]
!803 = metadata !{i32 458798, i32 0, metadata !712, metadata !"operator=", metadata !"operator=", metadata !"_ZN11ap_int_baseILi4ELb0EEaSERKS0_", metadata !16, i32 1483, metadata !804, i1 false, i1 false, i32 0, i32 0, null, i1 false} ; [ DW_TAG_subprogram ]
!804 = metadata !{i32 458773, metadata !2, metadata !"", metadata !2, i32 0, i64 0, i64 0, i64 0, i32 0, null, metadata !805, i32 0, null} ; [ DW_TAG_subroutine_type ]
!805 = metadata !{metadata !802, metadata !737, metadata !791}
!806 = metadata !{i32 458798, i32 0, metadata !712, metadata !"operator=", metadata !"operator=", metadata !"_ZN11ap_int_baseILi4ELb0EEaSEPKc", metadata !16, i32 1487, metadata !807, i1 false, i1 false, i32 0, i32 0, null, i1 false} ; [ DW_TAG_subprogram ]
!807 = metadata !{i32 458773, metadata !2, metadata !"", metadata !2, i32 0, i64 0, i64 0, i64 0, i32 0, null, metadata !808, i32 0, null} ; [ DW_TAG_subroutine_type ]
!808 = metadata !{metadata !802, metadata !737, metadata !101}
!809 = metadata !{i32 458798, i32 0, metadata !712, metadata !"set", metadata !"set", metadata !"_ZN11ap_int_baseILi4ELb0EE3setEPKca", metadata !16, i32 1494, metadata !810, i1 false, i1 false, i32 0, i32 0, null, i1 false} ; [ DW_TAG_subprogram ]
!810 = metadata !{i32 458773, metadata !2, metadata !"", metadata !2, i32 0, i64 0, i64 0, i64 0, i32 0, null, metadata !811, i32 0, null} ; [ DW_TAG_subroutine_type ]
!811 = metadata !{metadata !802, metadata !737, metadata !101, metadata !54}
!812 = metadata !{i32 458798, i32 0, metadata !712, metadata !"operator=", metadata !"operator=", metadata !"_ZN11ap_int_baseILi4ELb0EEaSEy", metadata !16, i32 1502, metadata !813, i1 false, i1 false, i32 0, i32 0, null, i1 false} ; [ DW_TAG_subprogram ]
!813 = metadata !{i32 458773, metadata !2, metadata !"", metadata !2, i32 0, i64 0, i64 0, i64 0, i32 0, null, metadata !814, i32 0, null} ; [ DW_TAG_subroutine_type ]
!814 = metadata !{metadata !802, metadata !737, metadata !40}
!815 = metadata !{i32 458798, i32 0, metadata !712, metadata !"operator=", metadata !"operator=", metadata !"_ZN11ap_int_baseILi4ELb0EEaSEx", metadata !16, i32 1507, metadata !816, i1 false, i1 false, i32 0, i32 0, null, i1 false} ; [ DW_TAG_subprogram ]
!816 = metadata !{i32 458773, metadata !2, metadata !"", metadata !2, i32 0, i64 0, i64 0, i64 0, i32 0, null, metadata !817, i32 0, null} ; [ DW_TAG_subroutine_type ]
!817 = metadata !{metadata !802, metadata !737, metadata !86}
!818 = metadata !{i32 458798, i32 0, metadata !712, metadata !"to_int", metadata !"to_int", metadata !"_ZNK11ap_int_baseILi4ELb0EE6to_intEv", metadata !16, i32 1553, metadata !819, i1 false, i1 false, i32 0, i32 0, null, i1 false} ; [ DW_TAG_subprogram ]
!819 = metadata !{i32 458773, metadata !2, metadata !"", metadata !2, i32 0, i64 0, i64 0, i64 0, i32 0, null, metadata !820, i32 0, null} ; [ DW_TAG_subroutine_type ]
!820 = metadata !{metadata !70, metadata !821}
!821 = metadata !{i32 458767, metadata !2, metadata !"", metadata !2, i32 0, i64 32, i64 32, i64 0, i32 64, metadata !792} ; [ DW_TAG_pointer_type ]
!822 = metadata !{i32 458798, i32 0, metadata !712, metadata !"to_uint", metadata !"to_uint", metadata !"_ZNK11ap_int_baseILi4ELb0EE7to_uintEv", metadata !16, i32 1554, metadata !823, i1 false, i1 false, i32 0, i32 0, null, i1 false} ; [ DW_TAG_subprogram ]
!823 = metadata !{i32 458773, metadata !2, metadata !"", metadata !2, i32 0, i64 0, i64 0, i64 0, i32 0, null, metadata !824, i32 0, null} ; [ DW_TAG_subroutine_type ]
!824 = metadata !{metadata !74, metadata !821}
!825 = metadata !{i32 458798, i32 0, metadata !712, metadata !"to_long", metadata !"to_long", metadata !"_ZNK11ap_int_baseILi4ELb0EE7to_longEv", metadata !16, i32 1555, metadata !826, i1 false, i1 false, i32 0, i32 0, null, i1 false} ; [ DW_TAG_subprogram ]
!826 = metadata !{i32 458773, metadata !2, metadata !"", metadata !2, i32 0, i64 0, i64 0, i64 0, i32 0, null, metadata !827, i32 0, null} ; [ DW_TAG_subroutine_type ]
!827 = metadata !{metadata !78, metadata !821}
!828 = metadata !{i32 458798, i32 0, metadata !712, metadata !"to_ulong", metadata !"to_ulong", metadata !"_ZNK11ap_int_baseILi4ELb0EE8to_ulongEv", metadata !16, i32 1556, metadata !829, i1 false, i1 false, i32 0, i32 0, null, i1 false} ; [ DW_TAG_subprogram ]
!829 = metadata !{i32 458773, metadata !2, metadata !"", metadata !2, i32 0, i64 0, i64 0, i64 0, i32 0, null, metadata !830, i32 0, null} ; [ DW_TAG_subroutine_type ]
!830 = metadata !{metadata !82, metadata !821}
!831 = metadata !{i32 458798, i32 0, metadata !712, metadata !"to_int64", metadata !"to_int64", metadata !"_ZNK11ap_int_baseILi4ELb0EE8to_int64Ev", metadata !16, i32 1557, metadata !832, i1 false, i1 false, i32 0, i32 0, null, i1 false} ; [ DW_TAG_subprogram ]
!832 = metadata !{i32 458773, metadata !2, metadata !"", metadata !2, i32 0, i64 0, i64 0, i64 0, i32 0, null, metadata !833, i32 0, null} ; [ DW_TAG_subroutine_type ]
!833 = metadata !{metadata !158, metadata !821}
!834 = metadata !{i32 458798, i32 0, metadata !712, metadata !"to_uint64", metadata !"to_uint64", metadata !"_ZNK11ap_int_baseILi4ELb0EE9to_uint64Ev", metadata !16, i32 1558, metadata !835, i1 false, i1 false, i32 0, i32 0, null, i1 false} ; [ DW_TAG_subprogram ]
!835 = metadata !{i32 458773, metadata !2, metadata !"", metadata !2, i32 0, i64 0, i64 0, i64 0, i32 0, null, metadata !836, i32 0, null} ; [ DW_TAG_subroutine_type ]
!836 = metadata !{metadata !38, metadata !821}
!837 = metadata !{i32 458798, i32 0, metadata !712, metadata !"to_double", metadata !"to_double", metadata !"_ZNK11ap_int_baseILi4ELb0EE9to_doubleEv", metadata !16, i32 1559, metadata !838, i1 false, i1 false, i32 0, i32 0, null, i1 false} ; [ DW_TAG_subprogram ]
!838 = metadata !{i32 458773, metadata !2, metadata !"", metadata !2, i32 0, i64 0, i64 0, i64 0, i32 0, null, metadata !839, i32 0, null} ; [ DW_TAG_subroutine_type ]
!839 = metadata !{metadata !97, metadata !821}
!840 = metadata !{i32 458798, i32 0, metadata !712, metadata !"length", metadata !"length", metadata !"_ZNK11ap_int_baseILi4ELb0EE6lengthEv", metadata !16, i32 1572, metadata !819, i1 false, i1 false, i32 0, i32 0, null, i1 false} ; [ DW_TAG_subprogram ]
!841 = metadata !{i32 458798, i32 0, metadata !712, metadata !"length", metadata !"length", metadata !"_ZNVK11ap_int_baseILi4ELb0EE6lengthEv", metadata !16, i32 1573, metadata !842, i1 false, i1 false, i32 0, i32 0, null, i1 false} ; [ DW_TAG_subprogram ]
!842 = metadata !{i32 458773, metadata !2, metadata !"", metadata !2, i32 0, i64 0, i64 0, i64 0, i32 0, null, metadata !843, i32 0, null} ; [ DW_TAG_subroutine_type ]
!843 = metadata !{metadata !70, metadata !844}
!844 = metadata !{i32 458767, metadata !2, metadata !"", metadata !2, i32 0, i64 32, i64 32, i64 0, i32 64, metadata !797} ; [ DW_TAG_pointer_type ]
!845 = metadata !{i32 458798, i32 0, metadata !712, metadata !"reverse", metadata !"reverse", metadata !"_ZN11ap_int_baseILi4ELb0EE7reverseEv", metadata !16, i32 1578, metadata !846, i1 false, i1 false, i32 0, i32 0, null, i1 false} ; [ DW_TAG_subprogram ]
!846 = metadata !{i32 458773, metadata !2, metadata !"", metadata !2, i32 0, i64 0, i64 0, i64 0, i32 0, null, metadata !847, i32 0, null} ; [ DW_TAG_subroutine_type ]
!847 = metadata !{metadata !802, metadata !737}
!848 = metadata !{i32 458798, i32 0, metadata !712, metadata !"iszero", metadata !"iszero", metadata !"_ZNK11ap_int_baseILi4ELb0EE6iszeroEv", metadata !16, i32 1584, metadata !849, i1 false, i1 false, i32 0, i32 0, null, i1 false} ; [ DW_TAG_subprogram ]
!849 = metadata !{i32 458773, metadata !2, metadata !"", metadata !2, i32 0, i64 0, i64 0, i64 0, i32 0, null, metadata !850, i32 0, null} ; [ DW_TAG_subroutine_type ]
!850 = metadata !{metadata !50, metadata !821}
!851 = metadata !{i32 458798, i32 0, metadata !712, metadata !"is_zero", metadata !"is_zero", metadata !"_ZNK11ap_int_baseILi4ELb0EE7is_zeroEv", metadata !16, i32 1589, metadata !849, i1 false, i1 false, i32 0, i32 0, null, i1 false} ; [ DW_TAG_subprogram ]
!852 = metadata !{i32 458798, i32 0, metadata !712, metadata !"sign", metadata !"sign", metadata !"_ZNK11ap_int_baseILi4ELb0EE4signEv", metadata !16, i32 1594, metadata !849, i1 false, i1 false, i32 0, i32 0, null, i1 false} ; [ DW_TAG_subprogram ]
!853 = metadata !{i32 458798, i32 0, metadata !712, metadata !"clear", metadata !"clear", metadata !"_ZN11ap_int_baseILi4ELb0EE5clearEi", metadata !16, i32 1602, metadata !754, i1 false, i1 false, i32 0, i32 0, null, i1 false} ; [ DW_TAG_subprogram ]
!854 = metadata !{i32 458798, i32 0, metadata !712, metadata !"invert", metadata !"invert", metadata !"_ZN11ap_int_baseILi4ELb0EE6invertEi", metadata !16, i32 1608, metadata !754, i1 false, i1 false, i32 0, i32 0, null, i1 false} ; [ DW_TAG_subprogram ]
!855 = metadata !{i32 458798, i32 0, metadata !712, metadata !"test", metadata !"test", metadata !"_ZNK11ap_int_baseILi4ELb0EE4testEi", metadata !16, i32 1616, metadata !856, i1 false, i1 false, i32 0, i32 0, null, i1 false} ; [ DW_TAG_subprogram ]
!856 = metadata !{i32 458773, metadata !2, metadata !"", metadata !2, i32 0, i64 0, i64 0, i64 0, i32 0, null, metadata !857, i32 0, null} ; [ DW_TAG_subroutine_type ]
!857 = metadata !{metadata !50, metadata !821, metadata !70}
!858 = metadata !{i32 458798, i32 0, metadata !712, metadata !"set", metadata !"set", metadata !"_ZN11ap_int_baseILi4ELb0EE3setEi", metadata !16, i32 1622, metadata !754, i1 false, i1 false, i32 0, i32 0, null, i1 false} ; [ DW_TAG_subprogram ]
!859 = metadata !{i32 458798, i32 0, metadata !712, metadata !"set", metadata !"set", metadata !"_ZN11ap_int_baseILi4ELb0EE3setEib", metadata !16, i32 1628, metadata !860, i1 false, i1 false, i32 0, i32 0, null, i1 false} ; [ DW_TAG_subprogram ]
!860 = metadata !{i32 458773, metadata !2, metadata !"", metadata !2, i32 0, i64 0, i64 0, i64 0, i32 0, null, metadata !861, i32 0, null} ; [ DW_TAG_subroutine_type ]
!861 = metadata !{null, metadata !737, metadata !70, metadata !50}
!862 = metadata !{i32 458798, i32 0, metadata !712, metadata !"lrotate", metadata !"lrotate", metadata !"_ZN11ap_int_baseILi4ELb0EE7lrotateEi", metadata !16, i32 1635, metadata !754, i1 false, i1 false, i32 0, i32 0, null, i1 false} ; [ DW_TAG_subprogram ]
!863 = metadata !{i32 458798, i32 0, metadata !712, metadata !"rrotate", metadata !"rrotate", metadata !"_ZN11ap_int_baseILi4ELb0EE7rrotateEi", metadata !16, i32 1644, metadata !754, i1 false, i1 false, i32 0, i32 0, null, i1 false} ; [ DW_TAG_subprogram ]
!864 = metadata !{i32 458798, i32 0, metadata !712, metadata !"set_bit", metadata !"set_bit", metadata !"_ZN11ap_int_baseILi4ELb0EE7set_bitEib", metadata !16, i32 1652, metadata !860, i1 false, i1 false, i32 0, i32 0, null, i1 false} ; [ DW_TAG_subprogram ]
!865 = metadata !{i32 458798, i32 0, metadata !712, metadata !"get_bit", metadata !"get_bit", metadata !"_ZNK11ap_int_baseILi4ELb0EE7get_bitEi", metadata !16, i32 1657, metadata !856, i1 false, i1 false, i32 0, i32 0, null, i1 false} ; [ DW_TAG_subprogram ]
!866 = metadata !{i32 458798, i32 0, metadata !712, metadata !"b_not", metadata !"b_not", metadata !"_ZN11ap_int_baseILi4ELb0EE5b_notEv", metadata !16, i32 1662, metadata !735, i1 false, i1 false, i32 0, i32 0, null, i1 false} ; [ DW_TAG_subprogram ]
!867 = metadata !{i32 458798, i32 0, metadata !712, metadata !"operator++", metadata !"operator++", metadata !"_ZN11ap_int_baseILi4ELb0EEppEv", metadata !16, i32 1733, metadata !846, i1 false, i1 false, i32 0, i32 0, null, i1 false} ; [ DW_TAG_subprogram ]
!868 = metadata !{i32 458798, i32 0, metadata !712, metadata !"operator--", metadata !"operator--", metadata !"_ZN11ap_int_baseILi4ELb0EEmmEv", metadata !16, i32 1737, metadata !846, i1 false, i1 false, i32 0, i32 0, null, i1 false} ; [ DW_TAG_subprogram ]
!869 = metadata !{i32 458798, i32 0, metadata !712, metadata !"operator++", metadata !"operator++", metadata !"_ZN11ap_int_baseILi4ELb0EEppEi", metadata !16, i32 1745, metadata !870, i1 false, i1 false, i32 0, i32 0, null, i1 false} ; [ DW_TAG_subprogram ]
!870 = metadata !{i32 458773, metadata !2, metadata !"", metadata !2, i32 0, i64 0, i64 0, i64 0, i32 0, null, metadata !871, i32 0, null} ; [ DW_TAG_subroutine_type ]
!871 = metadata !{metadata !792, metadata !737, metadata !70}
!872 = metadata !{i32 458798, i32 0, metadata !712, metadata !"operator--", metadata !"operator--", metadata !"_ZN11ap_int_baseILi4ELb0EEmmEi", metadata !16, i32 1750, metadata !870, i1 false, i1 false, i32 0, i32 0, null, i1 false} ; [ DW_TAG_subprogram ]
!873 = metadata !{i32 458798, i32 0, metadata !712, metadata !"operator+", metadata !"operator+", metadata !"_ZN11ap_int_baseILi4ELb0EEpsEv", metadata !16, i32 1759, metadata !874, i1 false, i1 false, i32 0, i32 0, null, i1 false} ; [ DW_TAG_subprogram ]
!874 = metadata !{i32 458773, metadata !2, metadata !"", metadata !2, i32 0, i64 0, i64 0, i64 0, i32 0, null, metadata !875, i32 0, null} ; [ DW_TAG_subroutine_type ]
!875 = metadata !{metadata !712, metadata !737}
!876 = metadata !{i32 458798, i32 0, metadata !712, metadata !"operator-", metadata !"operator-", metadata !"_ZNK11ap_int_baseILi4ELb0EEngEv", metadata !16, i32 1762, metadata !877, i1 false, i1 false, i32 0, i32 0, null, i1 false} ; [ DW_TAG_subprogram ]
!877 = metadata !{i32 458773, metadata !2, metadata !"", metadata !2, i32 0, i64 0, i64 0, i64 0, i32 0, null, metadata !878, i32 0, null} ; [ DW_TAG_subroutine_type ]
!878 = metadata !{metadata !879, metadata !821}
!879 = metadata !{i32 458771, metadata !2, metadata !"ap_int_base<5,true>", metadata !16, i32 1306, i64 0, i64 0, i64 0, i32 4, null, null, i32 0, null} ; [ DW_TAG_structure_type ]
!880 = metadata !{i32 458798, i32 0, metadata !712, metadata !"operator!", metadata !"operator!", metadata !"_ZNK11ap_int_baseILi4ELb0EEntEv", metadata !16, i32 1769, metadata !849, i1 false, i1 false, i32 0, i32 0, null, i1 false} ; [ DW_TAG_subprogram ]
!881 = metadata !{i32 458798, i32 0, metadata !712, metadata !"operator~", metadata !"operator~", metadata !"_ZNK11ap_int_baseILi4ELb0EEcoEv", metadata !16, i32 1776, metadata !877, i1 false, i1 false, i32 0, i32 0, null, i1 false} ; [ DW_TAG_subprogram ]
!882 = metadata !{i32 458798, i32 0, metadata !712, metadata !"range", metadata !"range", metadata !"_ZN11ap_int_baseILi4ELb0EE5rangeEii", metadata !16, i32 1901, metadata !883, i1 false, i1 false, i32 0, i32 0, null, i1 false} ; [ DW_TAG_subprogram ]
!883 = metadata !{i32 458773, metadata !2, metadata !"", metadata !2, i32 0, i64 0, i64 0, i64 0, i32 0, null, metadata !884, i32 0, null} ; [ DW_TAG_subroutine_type ]
!884 = metadata !{metadata !885, metadata !737, metadata !70, metadata !70}
!885 = metadata !{i32 458771, metadata !2, metadata !"ap_range_ref<4,false>", metadata !16, i32 871, i64 0, i64 0, i64 0, i32 4, null, null, i32 0, null} ; [ DW_TAG_structure_type ]
!886 = metadata !{i32 458798, i32 0, metadata !712, metadata !"operator()", metadata !"operator()", metadata !"_ZN11ap_int_baseILi4ELb0EEclEii", metadata !16, i32 1907, metadata !883, i1 false, i1 false, i32 0, i32 0, null, i1 false} ; [ DW_TAG_subprogram ]
!887 = metadata !{i32 458798, i32 0, metadata !712, metadata !"range", metadata !"range", metadata !"_ZNK11ap_int_baseILi4ELb0EE5rangeEii", metadata !16, i32 1913, metadata !888, i1 false, i1 false, i32 0, i32 0, null, i1 false} ; [ DW_TAG_subprogram ]
!888 = metadata !{i32 458773, metadata !2, metadata !"", metadata !2, i32 0, i64 0, i64 0, i64 0, i32 0, null, metadata !889, i32 0, null} ; [ DW_TAG_subroutine_type ]
!889 = metadata !{metadata !885, metadata !821, metadata !70, metadata !70}
!890 = metadata !{i32 458798, i32 0, metadata !712, metadata !"operator()", metadata !"operator()", metadata !"_ZNK11ap_int_baseILi4ELb0EEclEii", metadata !16, i32 1919, metadata !888, i1 false, i1 false, i32 0, i32 0, null, i1 false} ; [ DW_TAG_subprogram ]
!891 = metadata !{i32 458798, i32 0, metadata !712, metadata !"operator[]", metadata !"operator[]", metadata !"_ZN11ap_int_baseILi4ELb0EEixEi", metadata !16, i32 1978, metadata !892, i1 false, i1 false, i32 0, i32 0, null, i1 false} ; [ DW_TAG_subprogram ]
!892 = metadata !{i32 458773, metadata !2, metadata !"", metadata !2, i32 0, i64 0, i64 0, i64 0, i32 0, null, metadata !893, i32 0, null} ; [ DW_TAG_subroutine_type ]
!893 = metadata !{metadata !894, metadata !737, metadata !70}
!894 = metadata !{i32 458771, metadata !2, metadata !"ap_bit_ref<4,false>", metadata !16, i32 1106, i64 0, i64 0, i64 0, i32 4, null, null, i32 0, null} ; [ DW_TAG_structure_type ]
!895 = metadata !{i32 458798, i32 0, metadata !712, metadata !"operator[]", metadata !"operator[]", metadata !"_ZNK11ap_int_baseILi4ELb0EEixEi", metadata !16, i32 1992, metadata !856, i1 false, i1 false, i32 0, i32 0, null, i1 false} ; [ DW_TAG_subprogram ]
!896 = metadata !{i32 458798, i32 0, metadata !712, metadata !"bit", metadata !"bit", metadata !"_ZN11ap_int_baseILi4ELb0EE3bitEi", metadata !16, i32 2006, metadata !892, i1 false, i1 false, i32 0, i32 0, null, i1 false} ; [ DW_TAG_subprogram ]
!897 = metadata !{i32 458798, i32 0, metadata !712, metadata !"bit", metadata !"bit", metadata !"_ZNK11ap_int_baseILi4ELb0EE3bitEi", metadata !16, i32 2020, metadata !856, i1 false, i1 false, i32 0, i32 0, null, i1 false} ; [ DW_TAG_subprogram ]
!898 = metadata !{i32 458798, i32 0, metadata !712, metadata !"and_reduce", metadata !"and_reduce", metadata !"_ZN11ap_int_baseILi4ELb0EE10and_reduceEv", metadata !16, i32 2200, metadata !899, i1 false, i1 false, i32 0, i32 0, null, i1 false} ; [ DW_TAG_subprogram ]
!899 = metadata !{i32 458773, metadata !2, metadata !"", metadata !2, i32 0, i64 0, i64 0, i64 0, i32 0, null, metadata !900, i32 0, null} ; [ DW_TAG_subroutine_type ]
!900 = metadata !{metadata !50, metadata !737}
!901 = metadata !{i32 458798, i32 0, metadata !712, metadata !"nand_reduce", metadata !"nand_reduce", metadata !"_ZN11ap_int_baseILi4ELb0EE11nand_reduceEv", metadata !16, i32 2203, metadata !899, i1 false, i1 false, i32 0, i32 0, null, i1 false} ; [ DW_TAG_subprogram ]
!902 = metadata !{i32 458798, i32 0, metadata !712, metadata !"or_reduce", metadata !"or_reduce", metadata !"_ZN11ap_int_baseILi4ELb0EE9or_reduceEv", metadata !16, i32 2206, metadata !899, i1 false, i1 false, i32 0, i32 0, null, i1 false} ; [ DW_TAG_subprogram ]
!903 = metadata !{i32 458798, i32 0, metadata !712, metadata !"nor_reduce", metadata !"nor_reduce", metadata !"_ZN11ap_int_baseILi4ELb0EE10nor_reduceEv", metadata !16, i32 2209, metadata !899, i1 false, i1 false, i32 0, i32 0, null, i1 false} ; [ DW_TAG_subprogram ]
!904 = metadata !{i32 458798, i32 0, metadata !712, metadata !"xor_reduce", metadata !"xor_reduce", metadata !"_ZN11ap_int_baseILi4ELb0EE10xor_reduceEv", metadata !16, i32 2212, metadata !899, i1 false, i1 false, i32 0, i32 0, null, i1 false} ; [ DW_TAG_subprogram ]
!905 = metadata !{i32 458798, i32 0, metadata !712, metadata !"xnor_reduce", metadata !"xnor_reduce", metadata !"_ZN11ap_int_baseILi4ELb0EE11xnor_reduceEv", metadata !16, i32 2215, metadata !899, i1 false, i1 false, i32 0, i32 0, null, i1 false} ; [ DW_TAG_subprogram ]
!906 = metadata !{i32 458798, i32 0, metadata !712, metadata !"and_reduce", metadata !"and_reduce", metadata !"_ZNK11ap_int_baseILi4ELb0EE10and_reduceEv", metadata !16, i32 2219, metadata !849, i1 false, i1 false, i32 0, i32 0, null, i1 false} ; [ DW_TAG_subprogram ]
!907 = metadata !{i32 458798, i32 0, metadata !712, metadata !"nand_reduce", metadata !"nand_reduce", metadata !"_ZNK11ap_int_baseILi4ELb0EE11nand_reduceEv", metadata !16, i32 2222, metadata !849, i1 false, i1 false, i32 0, i32 0, null, i1 false} ; [ DW_TAG_subprogram ]
!908 = metadata !{i32 458798, i32 0, metadata !712, metadata !"or_reduce", metadata !"or_reduce", metadata !"_ZNK11ap_int_baseILi4ELb0EE9or_reduceEv", metadata !16, i32 2225, metadata !849, i1 false, i1 false, i32 0, i32 0, null, i1 false} ; [ DW_TAG_subprogram ]
!909 = metadata !{i32 458798, i32 0, metadata !712, metadata !"nor_reduce", metadata !"nor_reduce", metadata !"_ZNK11ap_int_baseILi4ELb0EE10nor_reduceEv", metadata !16, i32 2228, metadata !849, i1 false, i1 false, i32 0, i32 0, null, i1 false} ; [ DW_TAG_subprogram ]
!910 = metadata !{i32 458798, i32 0, metadata !712, metadata !"xor_reduce", metadata !"xor_reduce", metadata !"_ZNK11ap_int_baseILi4ELb0EE10xor_reduceEv", metadata !16, i32 2231, metadata !849, i1 false, i1 false, i32 0, i32 0, null, i1 false} ; [ DW_TAG_subprogram ]
!911 = metadata !{i32 458798, i32 0, metadata !712, metadata !"xnor_reduce", metadata !"xnor_reduce", metadata !"_ZNK11ap_int_baseILi4ELb0EE11xnor_reduceEv", metadata !16, i32 2234, metadata !849, i1 false, i1 false, i32 0, i32 0, null, i1 false} ; [ DW_TAG_subprogram ]
!912 = metadata !{i32 458798, i32 0, metadata !712, metadata !"to_string", metadata !"to_string", metadata !"_ZNK11ap_int_baseILi4ELb0EE9to_stringEPci8BaseModeb", metadata !16, i32 2241, metadata !913, i1 false, i1 false, i32 0, i32 0, null, i1 false} ; [ DW_TAG_subprogram ]
!913 = metadata !{i32 458773, metadata !2, metadata !"", metadata !2, i32 0, i64 0, i64 0, i64 0, i32 0, null, metadata !914, i32 0, null} ; [ DW_TAG_subroutine_type ]
!914 = metadata !{null, metadata !821, metadata !240, metadata !70, metadata !241, metadata !50}
!915 = metadata !{i32 458798, i32 0, metadata !712, metadata !"to_string", metadata !"to_string", metadata !"_ZNK11ap_int_baseILi4ELb0EE9to_stringE8BaseModeb", metadata !16, i32 2268, metadata !916, i1 false, i1 false, i32 0, i32 0, null, i1 false} ; [ DW_TAG_subprogram ]
!916 = metadata !{i32 458773, metadata !2, metadata !"", metadata !2, i32 0, i64 0, i64 0, i64 0, i32 0, null, metadata !917, i32 0, null} ; [ DW_TAG_subroutine_type ]
!917 = metadata !{metadata !240, metadata !821, metadata !241, metadata !50}
!918 = metadata !{i32 458798, i32 0, metadata !712, metadata !"to_string", metadata !"to_string", metadata !"_ZNK11ap_int_baseILi4ELb0EE9to_stringEab", metadata !16, i32 2272, metadata !919, i1 false, i1 false, i32 0, i32 0, null, i1 false} ; [ DW_TAG_subprogram ]
!919 = metadata !{i32 458773, metadata !2, metadata !"", metadata !2, i32 0, i64 0, i64 0, i64 0, i32 0, null, metadata !920, i32 0, null} ; [ DW_TAG_subroutine_type ]
!920 = metadata !{metadata !240, metadata !821, metadata !54, metadata !50}
!921 = metadata !{i32 458798, i32 0, metadata !709, metadata !"ap_uint", metadata !"ap_uint", metadata !"", metadata !12, i32 137, metadata !922, i1 false, i1 false, i32 0, i32 0, null, i1 false} ; [ DW_TAG_subprogram ]
!922 = metadata !{i32 458773, metadata !2, metadata !"", metadata !2, i32 0, i64 0, i64 0, i64 0, i32 0, null, metadata !923, i32 0, null} ; [ DW_TAG_subroutine_type ]
!923 = metadata !{null, metadata !924}
!924 = metadata !{i32 458767, metadata !2, metadata !"", metadata !2, i32 0, i64 32, i64 32, i64 0, i32 64, metadata !709} ; [ DW_TAG_pointer_type ]
!925 = metadata !{i32 458798, i32 0, metadata !709, metadata !"ap_uint", metadata !"ap_uint", metadata !"", metadata !12, i32 199, metadata !926, i1 false, i1 false, i32 0, i32 0, null, i1 false} ; [ DW_TAG_subprogram ]
!926 = metadata !{i32 458773, metadata !2, metadata !"", metadata !2, i32 0, i64 0, i64 0, i64 0, i32 0, null, metadata !927, i32 0, null} ; [ DW_TAG_subroutine_type ]
!927 = metadata !{null, metadata !924, metadata !50}
!928 = metadata !{i32 458798, i32 0, metadata !709, metadata !"ap_uint", metadata !"ap_uint", metadata !"", metadata !12, i32 200, metadata !929, i1 false, i1 false, i32 0, i32 0, null, i1 false} ; [ DW_TAG_subprogram ]
!929 = metadata !{i32 458773, metadata !2, metadata !"", metadata !2, i32 0, i64 0, i64 0, i64 0, i32 0, null, metadata !930, i32 0, null} ; [ DW_TAG_subroutine_type ]
!930 = metadata !{null, metadata !924, metadata !54}
!931 = metadata !{i32 458798, i32 0, metadata !709, metadata !"ap_uint", metadata !"ap_uint", metadata !"", metadata !12, i32 201, metadata !932, i1 false, i1 false, i32 0, i32 0, null, i1 false} ; [ DW_TAG_subprogram ]
!932 = metadata !{i32 458773, metadata !2, metadata !"", metadata !2, i32 0, i64 0, i64 0, i64 0, i32 0, null, metadata !933, i32 0, null} ; [ DW_TAG_subroutine_type ]
!933 = metadata !{null, metadata !924, metadata !58}
!934 = metadata !{i32 458798, i32 0, metadata !709, metadata !"ap_uint", metadata !"ap_uint", metadata !"", metadata !12, i32 202, metadata !935, i1 false, i1 false, i32 0, i32 0, null, i1 false} ; [ DW_TAG_subprogram ]
!935 = metadata !{i32 458773, metadata !2, metadata !"", metadata !2, i32 0, i64 0, i64 0, i64 0, i32 0, null, metadata !936, i32 0, null} ; [ DW_TAG_subroutine_type ]
!936 = metadata !{null, metadata !924, metadata !62}
!937 = metadata !{i32 458798, i32 0, metadata !709, metadata !"ap_uint", metadata !"ap_uint", metadata !"", metadata !12, i32 203, metadata !938, i1 false, i1 false, i32 0, i32 0, null, i1 false} ; [ DW_TAG_subprogram ]
!938 = metadata !{i32 458773, metadata !2, metadata !"", metadata !2, i32 0, i64 0, i64 0, i64 0, i32 0, null, metadata !939, i32 0, null} ; [ DW_TAG_subroutine_type ]
!939 = metadata !{null, metadata !924, metadata !66}
!940 = metadata !{i32 458798, i32 0, metadata !709, metadata !"ap_uint", metadata !"ap_uint", metadata !"", metadata !12, i32 204, metadata !941, i1 false, i1 false, i32 0, i32 0, null, i1 false} ; [ DW_TAG_subprogram ]
!941 = metadata !{i32 458773, metadata !2, metadata !"", metadata !2, i32 0, i64 0, i64 0, i64 0, i32 0, null, metadata !942, i32 0, null} ; [ DW_TAG_subroutine_type ]
!942 = metadata !{null, metadata !924, metadata !70}
!943 = metadata !{i32 458798, i32 0, metadata !709, metadata !"ap_uint", metadata !"ap_uint", metadata !"", metadata !12, i32 205, metadata !944, i1 false, i1 false, i32 0, i32 0, null, i1 false} ; [ DW_TAG_subprogram ]
!944 = metadata !{i32 458773, metadata !2, metadata !"", metadata !2, i32 0, i64 0, i64 0, i64 0, i32 0, null, metadata !945, i32 0, null} ; [ DW_TAG_subroutine_type ]
!945 = metadata !{null, metadata !924, metadata !74}
!946 = metadata !{i32 458798, i32 0, metadata !709, metadata !"ap_uint", metadata !"ap_uint", metadata !"", metadata !12, i32 206, metadata !947, i1 false, i1 false, i32 0, i32 0, null, i1 false} ; [ DW_TAG_subprogram ]
!947 = metadata !{i32 458773, metadata !2, metadata !"", metadata !2, i32 0, i64 0, i64 0, i64 0, i32 0, null, metadata !948, i32 0, null} ; [ DW_TAG_subroutine_type ]
!948 = metadata !{null, metadata !924, metadata !78}
!949 = metadata !{i32 458798, i32 0, metadata !709, metadata !"ap_uint", metadata !"ap_uint", metadata !"", metadata !12, i32 207, metadata !950, i1 false, i1 false, i32 0, i32 0, null, i1 false} ; [ DW_TAG_subprogram ]
!950 = metadata !{i32 458773, metadata !2, metadata !"", metadata !2, i32 0, i64 0, i64 0, i64 0, i32 0, null, metadata !951, i32 0, null} ; [ DW_TAG_subroutine_type ]
!951 = metadata !{null, metadata !924, metadata !82}
!952 = metadata !{i32 458798, i32 0, metadata !709, metadata !"ap_uint", metadata !"ap_uint", metadata !"", metadata !12, i32 208, metadata !953, i1 false, i1 false, i32 0, i32 0, null, i1 false} ; [ DW_TAG_subprogram ]
!953 = metadata !{i32 458773, metadata !2, metadata !"", metadata !2, i32 0, i64 0, i64 0, i64 0, i32 0, null, metadata !954, i32 0, null} ; [ DW_TAG_subroutine_type ]
!954 = metadata !{null, metadata !924, metadata !40}
!955 = metadata !{i32 458798, i32 0, metadata !709, metadata !"ap_uint", metadata !"ap_uint", metadata !"", metadata !12, i32 209, metadata !956, i1 false, i1 false, i32 0, i32 0, null, i1 false} ; [ DW_TAG_subprogram ]
!956 = metadata !{i32 458773, metadata !2, metadata !"", metadata !2, i32 0, i64 0, i64 0, i64 0, i32 0, null, metadata !957, i32 0, null} ; [ DW_TAG_subroutine_type ]
!957 = metadata !{null, metadata !924, metadata !86}
!958 = metadata !{i32 458798, i32 0, metadata !709, metadata !"ap_uint", metadata !"ap_uint", metadata !"", metadata !12, i32 210, metadata !959, i1 false, i1 false, i32 0, i32 0, null, i1 false} ; [ DW_TAG_subprogram ]
!959 = metadata !{i32 458773, metadata !2, metadata !"", metadata !2, i32 0, i64 0, i64 0, i64 0, i32 0, null, metadata !960, i32 0, null} ; [ DW_TAG_subroutine_type ]
!960 = metadata !{null, metadata !924, metadata !93}
!961 = metadata !{i32 458798, i32 0, metadata !709, metadata !"ap_uint", metadata !"ap_uint", metadata !"", metadata !12, i32 211, metadata !962, i1 false, i1 false, i32 0, i32 0, null, i1 false} ; [ DW_TAG_subprogram ]
!962 = metadata !{i32 458773, metadata !2, metadata !"", metadata !2, i32 0, i64 0, i64 0, i64 0, i32 0, null, metadata !963, i32 0, null} ; [ DW_TAG_subroutine_type ]
!963 = metadata !{null, metadata !924, metadata !97}
!964 = metadata !{i32 458798, i32 0, metadata !709, metadata !"ap_uint", metadata !"ap_uint", metadata !"", metadata !12, i32 213, metadata !965, i1 false, i1 false, i32 0, i32 0, null, i1 false} ; [ DW_TAG_subprogram ]
!965 = metadata !{i32 458773, metadata !2, metadata !"", metadata !2, i32 0, i64 0, i64 0, i64 0, i32 0, null, metadata !966, i32 0, null} ; [ DW_TAG_subroutine_type ]
!966 = metadata !{null, metadata !924, metadata !101}
!967 = metadata !{i32 458798, i32 0, metadata !709, metadata !"ap_uint", metadata !"ap_uint", metadata !"", metadata !12, i32 214, metadata !968, i1 false, i1 false, i32 0, i32 0, null, i1 false} ; [ DW_TAG_subprogram ]
!968 = metadata !{i32 458773, metadata !2, metadata !"", metadata !2, i32 0, i64 0, i64 0, i64 0, i32 0, null, metadata !969, i32 0, null} ; [ DW_TAG_subroutine_type ]
!969 = metadata !{null, metadata !924, metadata !101, metadata !54}
!970 = metadata !{i32 458798, i32 0, metadata !709, metadata !"operator=", metadata !"operator=", metadata !"_ZNV7ap_uintILi4EEaSERKS0_", metadata !12, i32 217, metadata !971, i1 false, i1 false, i32 0, i32 0, null, i1 false} ; [ DW_TAG_subprogram ]
!971 = metadata !{i32 458773, metadata !2, metadata !"", metadata !2, i32 0, i64 0, i64 0, i64 0, i32 0, null, metadata !972, i32 0, null} ; [ DW_TAG_subroutine_type ]
!972 = metadata !{null, metadata !973, metadata !975}
!973 = metadata !{i32 458767, metadata !2, metadata !"", metadata !2, i32 0, i64 32, i64 32, i64 0, i32 64, metadata !974} ; [ DW_TAG_pointer_type ]
!974 = metadata !{i32 458805, metadata !2, metadata !"", metadata !2, i32 0, i64 8, i64 8, i64 0, i32 0, metadata !709} ; [ DW_TAG_volatile_type ]
!975 = metadata !{i32 458768, metadata !2, metadata !"", metadata !2, i32 0, i64 32, i64 32, i64 0, i32 0, metadata !976} ; [ DW_TAG_reference_type ]
!976 = metadata !{i32 458790, metadata !2, metadata !"", metadata !2, i32 0, i64 8, i64 8, i64 0, i32 0, metadata !709} ; [ DW_TAG_const_type ]
!977 = metadata !{i32 458798, i32 0, metadata !709, metadata !"operator=", metadata !"operator=", metadata !"_ZNV7ap_uintILi4EEaSERVKS0_", metadata !12, i32 221, metadata !978, i1 false, i1 false, i32 0, i32 0, null, i1 false} ; [ DW_TAG_subprogram ]
!978 = metadata !{i32 458773, metadata !2, metadata !"", metadata !2, i32 0, i64 0, i64 0, i64 0, i32 0, null, metadata !979, i32 0, null} ; [ DW_TAG_subroutine_type ]
!979 = metadata !{null, metadata !973, metadata !980}
!980 = metadata !{i32 458768, metadata !2, metadata !"", metadata !2, i32 0, i64 32, i64 32, i64 0, i32 0, metadata !981} ; [ DW_TAG_reference_type ]
!981 = metadata !{i32 458790, metadata !2, metadata !"", metadata !2, i32 0, i64 8, i64 8, i64 0, i32 0, metadata !974} ; [ DW_TAG_const_type ]
!982 = metadata !{i32 458798, i32 0, metadata !709, metadata !"operator=", metadata !"operator=", metadata !"_ZN7ap_uintILi4EEaSERVKS0_", metadata !12, i32 225, metadata !983, i1 false, i1 false, i32 0, i32 0, null, i1 false} ; [ DW_TAG_subprogram ]
!983 = metadata !{i32 458773, metadata !2, metadata !"", metadata !2, i32 0, i64 0, i64 0, i64 0, i32 0, null, metadata !984, i32 0, null} ; [ DW_TAG_subroutine_type ]
!984 = metadata !{metadata !985, metadata !924, metadata !980}
!985 = metadata !{i32 458768, metadata !2, metadata !"ap_uint<4>", metadata !2, i32 0, i64 32, i64 32, i64 0, i32 0, metadata !709} ; [ DW_TAG_reference_type ]
!986 = metadata !{i32 458798, i32 0, metadata !709, metadata !"operator=", metadata !"operator=", metadata !"_ZN7ap_uintILi4EEaSERKS0_", metadata !12, i32 230, metadata !987, i1 false, i1 true, i32 0, i32 0, null, i1 false} ; [ DW_TAG_subprogram ]
!987 = metadata !{i32 458773, metadata !2, metadata !"", metadata !2, i32 0, i64 0, i64 0, i64 0, i32 0, null, metadata !988, i32 0, null} ; [ DW_TAG_subroutine_type ]
!988 = metadata !{metadata !985, metadata !924, metadata !975}
!989 = metadata !{i32 458765, metadata !372, metadata !"user", metadata !373, i32 65, i64 8, i64 8, i64 40, i32 0, metadata !990} ; [ DW_TAG_member ]
!990 = metadata !{i32 458771, metadata !2, metadata !"ap_uint<1>", metadata !12, i32 134, i64 8, i64 8, i64 0, i32 0, null, metadata !991, i32 0, null} ; [ DW_TAG_structure_type ]
!991 = metadata !{metadata !992, metadata !1202, metadata !1206, metadata !1209, metadata !1212, metadata !1215, metadata !1218, metadata !1221, metadata !1224, metadata !1227, metadata !1230, metadata !1233, metadata !1236, metadata !1239, metadata !1242, metadata !1245, metadata !1248, metadata !1251, metadata !1258, metadata !1263, metadata !1267}
!992 = metadata !{i32 458780, metadata !2, metadata !"", null, i32 0, i64 0, i64 0, i64 0, i32 0, metadata !993} ; [ DW_TAG_inheritance ]
!993 = metadata !{i32 458771, metadata !2, metadata !"ap_int_base<1,false>", metadata !16, i32 1306, i64 8, i64 8, i64 0, i32 0, null, metadata !994, i32 0, null} ; [ DW_TAG_structure_type ]
!994 = metadata !{metadata !995, metadata !1015, metadata !1019, metadata !1022, metadata !1025, metadata !1028, metadata !1031, metadata !1034, metadata !1037, metadata !1040, metadata !1043, metadata !1046, metadata !1049, metadata !1052, metadata !1055, metadata !1058, metadata !1061, metadata !1064, metadata !1069, metadata !1074, metadata !1079, metadata !1080, metadata !1084, metadata !1087, metadata !1090, metadata !1093, metadata !1096, metadata !1099, metadata !1103, metadata !1106, metadata !1109, metadata !1112, metadata !1115, metadata !1118, metadata !1121, metadata !1122, metadata !1126, metadata !1129, metadata !1132, metadata !1133, metadata !1134, metadata !1135, metadata !1136, metadata !1139, metadata !1140, metadata !1143, metadata !1144, metadata !1145, metadata !1146, metadata !1147, metadata !1148, metadata !1149, metadata !1150, metadata !1153, metadata !1154, metadata !1157, metadata !1161, metadata !1162, metadata !1163, metadata !1167, metadata !1168, metadata !1171, metadata !1172, metadata !1176, metadata !1177, metadata !1178, metadata !1179, metadata !1182, metadata !1183, metadata !1184, metadata !1185, metadata !1186, metadata !1187, metadata !1188, metadata !1189, metadata !1190, metadata !1191, metadata !1192, metadata !1193, metadata !1196, metadata !1199}
!995 = metadata !{i32 458780, metadata !2, metadata !"", null, i32 0, i64 0, i64 0, i64 0, i32 0, metadata !996} ; [ DW_TAG_inheritance ]
!996 = metadata !{i32 458771, metadata !2, metadata !"conv_cint<1,false,true>", metadata !16, i32 1269, i64 8, i64 8, i64 0, i32 0, null, metadata !997, i32 0, null} ; [ DW_TAG_structure_type ]
!997 = metadata !{metadata !998, metadata !1006, metadata !1010}
!998 = metadata !{i32 458780, metadata !2, metadata !"", null, i32 0, i64 0, i64 0, i64 0, i32 0, metadata !999} ; [ DW_TAG_inheritance ]
!999 = metadata !{i32 458771, metadata !2, metadata !"ssdm_int<1,false>", metadata !23, i32 3, i64 8, i64 8, i64 0, i32 0, null, metadata !1000, i32 0, null} ; [ DW_TAG_structure_type ]
!1000 = metadata !{metadata !1001, metadata !1002}
!1001 = metadata !{i32 458765, metadata !999, metadata !"V", metadata !23, i32 3, i64 8, i64 8, i64 0, i32 0, metadata !26} ; [ DW_TAG_member ]
!1002 = metadata !{i32 458798, i32 0, metadata !999, metadata !"ssdm_int", metadata !"ssdm_int", metadata !"", metadata !23, i32 3, metadata !1003, i1 false, i1 false, i32 0, i32 0, null, i1 false} ; [ DW_TAG_subprogram ]
!1003 = metadata !{i32 458773, metadata !2, metadata !"", metadata !2, i32 0, i64 0, i64 0, i64 0, i32 0, null, metadata !1004, i32 0, null} ; [ DW_TAG_subroutine_type ]
!1004 = metadata !{null, metadata !1005}
!1005 = metadata !{i32 458767, metadata !2, metadata !"", metadata !2, i32 0, i64 32, i64 32, i64 0, i32 64, metadata !999} ; [ DW_TAG_pointer_type ]
!1006 = metadata !{i32 458798, i32 0, metadata !996, metadata !"conv_cint", metadata !"conv_cint", metadata !"", metadata !16, i32 1275, metadata !1007, i1 false, i1 false, i32 0, i32 0, null, i1 false} ; [ DW_TAG_subprogram ]
!1007 = metadata !{i32 458773, metadata !2, metadata !"", metadata !2, i32 0, i64 0, i64 0, i64 0, i32 0, null, metadata !1008, i32 0, null} ; [ DW_TAG_subroutine_type ]
!1008 = metadata !{null, metadata !1009}
!1009 = metadata !{i32 458767, metadata !2, metadata !"", metadata !2, i32 0, i64 32, i64 32, i64 0, i32 64, metadata !996} ; [ DW_TAG_pointer_type ]
!1010 = metadata !{i32 458798, i32 0, metadata !996, metadata !"operator ap_ulong", metadata !"operator ap_ulong", metadata !"_ZNK9conv_cintILi1ELb0ELb1EEcvyEv", metadata !16, i32 1276, metadata !1011, i1 false, i1 false, i32 0, i32 0, null, i1 false} ; [ DW_TAG_subprogram ]
!1011 = metadata !{i32 458773, metadata !2, metadata !"", metadata !2, i32 0, i64 0, i64 0, i64 0, i32 0, null, metadata !1012, i32 0, null} ; [ DW_TAG_subroutine_type ]
!1012 = metadata !{metadata !38, metadata !1013}
!1013 = metadata !{i32 458767, metadata !2, metadata !"", metadata !2, i32 0, i64 32, i64 32, i64 0, i32 64, metadata !1014} ; [ DW_TAG_pointer_type ]
!1014 = metadata !{i32 458790, metadata !2, metadata !"", metadata !2, i32 0, i64 8, i64 8, i64 0, i32 0, metadata !996} ; [ DW_TAG_const_type ]
!1015 = metadata !{i32 458798, i32 0, metadata !993, metadata !"ap_int_base", metadata !"ap_int_base", metadata !"", metadata !16, i32 1341, metadata !1016, i1 false, i1 false, i32 0, i32 0, null, i1 false} ; [ DW_TAG_subprogram ]
!1016 = metadata !{i32 458773, metadata !2, metadata !"", metadata !2, i32 0, i64 0, i64 0, i64 0, i32 0, null, metadata !1017, i32 0, null} ; [ DW_TAG_subroutine_type ]
!1017 = metadata !{null, metadata !1018}
!1018 = metadata !{i32 458767, metadata !2, metadata !"", metadata !2, i32 0, i64 32, i64 32, i64 0, i32 64, metadata !993} ; [ DW_TAG_pointer_type ]
!1019 = metadata !{i32 458798, i32 0, metadata !993, metadata !"ap_int_base", metadata !"ap_int_base", metadata !"", metadata !16, i32 1363, metadata !1020, i1 false, i1 false, i32 0, i32 0, null, i1 false} ; [ DW_TAG_subprogram ]
!1020 = metadata !{i32 458773, metadata !2, metadata !"", metadata !2, i32 0, i64 0, i64 0, i64 0, i32 0, null, metadata !1021, i32 0, null} ; [ DW_TAG_subroutine_type ]
!1021 = metadata !{null, metadata !1018, metadata !50}
!1022 = metadata !{i32 458798, i32 0, metadata !993, metadata !"ap_int_base", metadata !"ap_int_base", metadata !"", metadata !16, i32 1364, metadata !1023, i1 false, i1 false, i32 0, i32 0, null, i1 false} ; [ DW_TAG_subprogram ]
!1023 = metadata !{i32 458773, metadata !2, metadata !"", metadata !2, i32 0, i64 0, i64 0, i64 0, i32 0, null, metadata !1024, i32 0, null} ; [ DW_TAG_subroutine_type ]
!1024 = metadata !{null, metadata !1018, metadata !54}
!1025 = metadata !{i32 458798, i32 0, metadata !993, metadata !"ap_int_base", metadata !"ap_int_base", metadata !"", metadata !16, i32 1365, metadata !1026, i1 false, i1 false, i32 0, i32 0, null, i1 false} ; [ DW_TAG_subprogram ]
!1026 = metadata !{i32 458773, metadata !2, metadata !"", metadata !2, i32 0, i64 0, i64 0, i64 0, i32 0, null, metadata !1027, i32 0, null} ; [ DW_TAG_subroutine_type ]
!1027 = metadata !{null, metadata !1018, metadata !58}
!1028 = metadata !{i32 458798, i32 0, metadata !993, metadata !"ap_int_base", metadata !"ap_int_base", metadata !"", metadata !16, i32 1366, metadata !1029, i1 false, i1 false, i32 0, i32 0, null, i1 false} ; [ DW_TAG_subprogram ]
!1029 = metadata !{i32 458773, metadata !2, metadata !"", metadata !2, i32 0, i64 0, i64 0, i64 0, i32 0, null, metadata !1030, i32 0, null} ; [ DW_TAG_subroutine_type ]
!1030 = metadata !{null, metadata !1018, metadata !62}
!1031 = metadata !{i32 458798, i32 0, metadata !993, metadata !"ap_int_base", metadata !"ap_int_base", metadata !"", metadata !16, i32 1367, metadata !1032, i1 false, i1 false, i32 0, i32 0, null, i1 false} ; [ DW_TAG_subprogram ]
!1032 = metadata !{i32 458773, metadata !2, metadata !"", metadata !2, i32 0, i64 0, i64 0, i64 0, i32 0, null, metadata !1033, i32 0, null} ; [ DW_TAG_subroutine_type ]
!1033 = metadata !{null, metadata !1018, metadata !66}
!1034 = metadata !{i32 458798, i32 0, metadata !993, metadata !"ap_int_base", metadata !"ap_int_base", metadata !"", metadata !16, i32 1368, metadata !1035, i1 false, i1 false, i32 0, i32 0, null, i1 false} ; [ DW_TAG_subprogram ]
!1035 = metadata !{i32 458773, metadata !2, metadata !"", metadata !2, i32 0, i64 0, i64 0, i64 0, i32 0, null, metadata !1036, i32 0, null} ; [ DW_TAG_subroutine_type ]
!1036 = metadata !{null, metadata !1018, metadata !70}
!1037 = metadata !{i32 458798, i32 0, metadata !993, metadata !"ap_int_base", metadata !"ap_int_base", metadata !"", metadata !16, i32 1369, metadata !1038, i1 false, i1 false, i32 0, i32 0, null, i1 false} ; [ DW_TAG_subprogram ]
!1038 = metadata !{i32 458773, metadata !2, metadata !"", metadata !2, i32 0, i64 0, i64 0, i64 0, i32 0, null, metadata !1039, i32 0, null} ; [ DW_TAG_subroutine_type ]
!1039 = metadata !{null, metadata !1018, metadata !74}
!1040 = metadata !{i32 458798, i32 0, metadata !993, metadata !"ap_int_base", metadata !"ap_int_base", metadata !"", metadata !16, i32 1370, metadata !1041, i1 false, i1 false, i32 0, i32 0, null, i1 false} ; [ DW_TAG_subprogram ]
!1041 = metadata !{i32 458773, metadata !2, metadata !"", metadata !2, i32 0, i64 0, i64 0, i64 0, i32 0, null, metadata !1042, i32 0, null} ; [ DW_TAG_subroutine_type ]
!1042 = metadata !{null, metadata !1018, metadata !78}
!1043 = metadata !{i32 458798, i32 0, metadata !993, metadata !"ap_int_base", metadata !"ap_int_base", metadata !"", metadata !16, i32 1371, metadata !1044, i1 false, i1 false, i32 0, i32 0, null, i1 false} ; [ DW_TAG_subprogram ]
!1044 = metadata !{i32 458773, metadata !2, metadata !"", metadata !2, i32 0, i64 0, i64 0, i64 0, i32 0, null, metadata !1045, i32 0, null} ; [ DW_TAG_subroutine_type ]
!1045 = metadata !{null, metadata !1018, metadata !82}
!1046 = metadata !{i32 458798, i32 0, metadata !993, metadata !"ap_int_base", metadata !"ap_int_base", metadata !"", metadata !16, i32 1372, metadata !1047, i1 false, i1 false, i32 0, i32 0, null, i1 false} ; [ DW_TAG_subprogram ]
!1047 = metadata !{i32 458773, metadata !2, metadata !"", metadata !2, i32 0, i64 0, i64 0, i64 0, i32 0, null, metadata !1048, i32 0, null} ; [ DW_TAG_subroutine_type ]
!1048 = metadata !{null, metadata !1018, metadata !86}
!1049 = metadata !{i32 458798, i32 0, metadata !993, metadata !"ap_int_base", metadata !"ap_int_base", metadata !"", metadata !16, i32 1373, metadata !1050, i1 false, i1 false, i32 0, i32 0, null, i1 false} ; [ DW_TAG_subprogram ]
!1050 = metadata !{i32 458773, metadata !2, metadata !"", metadata !2, i32 0, i64 0, i64 0, i64 0, i32 0, null, metadata !1051, i32 0, null} ; [ DW_TAG_subroutine_type ]
!1051 = metadata !{null, metadata !1018, metadata !40}
!1052 = metadata !{i32 458798, i32 0, metadata !993, metadata !"ap_int_base", metadata !"ap_int_base", metadata !"", metadata !16, i32 1374, metadata !1053, i1 false, i1 false, i32 0, i32 0, null, i1 false} ; [ DW_TAG_subprogram ]
!1053 = metadata !{i32 458773, metadata !2, metadata !"", metadata !2, i32 0, i64 0, i64 0, i64 0, i32 0, null, metadata !1054, i32 0, null} ; [ DW_TAG_subroutine_type ]
!1054 = metadata !{null, metadata !1018, metadata !93}
!1055 = metadata !{i32 458798, i32 0, metadata !993, metadata !"ap_int_base", metadata !"ap_int_base", metadata !"", metadata !16, i32 1375, metadata !1056, i1 false, i1 false, i32 0, i32 0, null, i1 false} ; [ DW_TAG_subprogram ]
!1056 = metadata !{i32 458773, metadata !2, metadata !"", metadata !2, i32 0, i64 0, i64 0, i64 0, i32 0, null, metadata !1057, i32 0, null} ; [ DW_TAG_subroutine_type ]
!1057 = metadata !{null, metadata !1018, metadata !97}
!1058 = metadata !{i32 458798, i32 0, metadata !993, metadata !"ap_int_base", metadata !"ap_int_base", metadata !"", metadata !16, i32 1402, metadata !1059, i1 false, i1 false, i32 0, i32 0, null, i1 false} ; [ DW_TAG_subprogram ]
!1059 = metadata !{i32 458773, metadata !2, metadata !"", metadata !2, i32 0, i64 0, i64 0, i64 0, i32 0, null, metadata !1060, i32 0, null} ; [ DW_TAG_subroutine_type ]
!1060 = metadata !{null, metadata !1018, metadata !101}
!1061 = metadata !{i32 458798, i32 0, metadata !993, metadata !"ap_int_base", metadata !"ap_int_base", metadata !"", metadata !16, i32 1408, metadata !1062, i1 false, i1 false, i32 0, i32 0, null, i1 false} ; [ DW_TAG_subprogram ]
!1062 = metadata !{i32 458773, metadata !2, metadata !"", metadata !2, i32 0, i64 0, i64 0, i64 0, i32 0, null, metadata !1063, i32 0, null} ; [ DW_TAG_subroutine_type ]
!1063 = metadata !{null, metadata !1018, metadata !101, metadata !54}
!1064 = metadata !{i32 458798, i32 0, metadata !993, metadata !"read", metadata !"read", metadata !"_ZNV11ap_int_baseILi1ELb0EE4readEv", metadata !16, i32 1428, metadata !1065, i1 false, i1 false, i32 0, i32 0, null, i1 false} ; [ DW_TAG_subprogram ]
!1065 = metadata !{i32 458773, metadata !2, metadata !"", metadata !2, i32 0, i64 0, i64 0, i64 0, i32 0, null, metadata !1066, i32 0, null} ; [ DW_TAG_subroutine_type ]
!1066 = metadata !{metadata !993, metadata !1067}
!1067 = metadata !{i32 458767, metadata !2, metadata !"", metadata !2, i32 0, i64 32, i64 32, i64 0, i32 64, metadata !1068} ; [ DW_TAG_pointer_type ]
!1068 = metadata !{i32 458805, metadata !2, metadata !"", metadata !2, i32 0, i64 8, i64 8, i64 0, i32 0, metadata !993} ; [ DW_TAG_volatile_type ]
!1069 = metadata !{i32 458798, i32 0, metadata !993, metadata !"write", metadata !"write", metadata !"_ZNV11ap_int_baseILi1ELb0EE5writeERKS0_", metadata !16, i32 1434, metadata !1070, i1 false, i1 false, i32 0, i32 0, null, i1 false} ; [ DW_TAG_subprogram ]
!1070 = metadata !{i32 458773, metadata !2, metadata !"", metadata !2, i32 0, i64 0, i64 0, i64 0, i32 0, null, metadata !1071, i32 0, null} ; [ DW_TAG_subroutine_type ]
!1071 = metadata !{null, metadata !1067, metadata !1072}
!1072 = metadata !{i32 458768, metadata !2, metadata !"", metadata !2, i32 0, i64 32, i64 32, i64 0, i32 0, metadata !1073} ; [ DW_TAG_reference_type ]
!1073 = metadata !{i32 458790, metadata !2, metadata !"", metadata !2, i32 0, i64 8, i64 8, i64 0, i32 0, metadata !993} ; [ DW_TAG_const_type ]
!1074 = metadata !{i32 458798, i32 0, metadata !993, metadata !"operator=", metadata !"operator=", metadata !"_ZNV11ap_int_baseILi1ELb0EEaSERVKS0_", metadata !16, i32 1446, metadata !1075, i1 false, i1 false, i32 0, i32 0, null, i1 false} ; [ DW_TAG_subprogram ]
!1075 = metadata !{i32 458773, metadata !2, metadata !"", metadata !2, i32 0, i64 0, i64 0, i64 0, i32 0, null, metadata !1076, i32 0, null} ; [ DW_TAG_subroutine_type ]
!1076 = metadata !{null, metadata !1067, metadata !1077}
!1077 = metadata !{i32 458768, metadata !2, metadata !"", metadata !2, i32 0, i64 32, i64 32, i64 0, i32 0, metadata !1078} ; [ DW_TAG_reference_type ]
!1078 = metadata !{i32 458790, metadata !2, metadata !"", metadata !2, i32 0, i64 8, i64 8, i64 0, i32 0, metadata !1068} ; [ DW_TAG_const_type ]
!1079 = metadata !{i32 458798, i32 0, metadata !993, metadata !"operator=", metadata !"operator=", metadata !"_ZNV11ap_int_baseILi1ELb0EEaSERKS0_", metadata !16, i32 1455, metadata !1070, i1 false, i1 false, i32 0, i32 0, null, i1 false} ; [ DW_TAG_subprogram ]
!1080 = metadata !{i32 458798, i32 0, metadata !993, metadata !"operator=", metadata !"operator=", metadata !"_ZN11ap_int_baseILi1ELb0EEaSERVKS0_", metadata !16, i32 1478, metadata !1081, i1 false, i1 false, i32 0, i32 0, null, i1 false} ; [ DW_TAG_subprogram ]
!1081 = metadata !{i32 458773, metadata !2, metadata !"", metadata !2, i32 0, i64 0, i64 0, i64 0, i32 0, null, metadata !1082, i32 0, null} ; [ DW_TAG_subroutine_type ]
!1082 = metadata !{metadata !1083, metadata !1018, metadata !1077}
!1083 = metadata !{i32 458768, metadata !2, metadata !"ap_int_base<1,false>", metadata !2, i32 0, i64 32, i64 32, i64 0, i32 0, metadata !993} ; [ DW_TAG_reference_type ]
!1084 = metadata !{i32 458798, i32 0, metadata !993, metadata !"operator=", metadata !"operator=", metadata !"_ZN11ap_int_baseILi1ELb0EEaSERKS0_", metadata !16, i32 1483, metadata !1085, i1 false, i1 false, i32 0, i32 0, null, i1 false} ; [ DW_TAG_subprogram ]
!1085 = metadata !{i32 458773, metadata !2, metadata !"", metadata !2, i32 0, i64 0, i64 0, i64 0, i32 0, null, metadata !1086, i32 0, null} ; [ DW_TAG_subroutine_type ]
!1086 = metadata !{metadata !1083, metadata !1018, metadata !1072}
!1087 = metadata !{i32 458798, i32 0, metadata !993, metadata !"operator=", metadata !"operator=", metadata !"_ZN11ap_int_baseILi1ELb0EEaSEPKc", metadata !16, i32 1487, metadata !1088, i1 false, i1 false, i32 0, i32 0, null, i1 false} ; [ DW_TAG_subprogram ]
!1088 = metadata !{i32 458773, metadata !2, metadata !"", metadata !2, i32 0, i64 0, i64 0, i64 0, i32 0, null, metadata !1089, i32 0, null} ; [ DW_TAG_subroutine_type ]
!1089 = metadata !{metadata !1083, metadata !1018, metadata !101}
!1090 = metadata !{i32 458798, i32 0, metadata !993, metadata !"set", metadata !"set", metadata !"_ZN11ap_int_baseILi1ELb0EE3setEPKca", metadata !16, i32 1494, metadata !1091, i1 false, i1 false, i32 0, i32 0, null, i1 false} ; [ DW_TAG_subprogram ]
!1091 = metadata !{i32 458773, metadata !2, metadata !"", metadata !2, i32 0, i64 0, i64 0, i64 0, i32 0, null, metadata !1092, i32 0, null} ; [ DW_TAG_subroutine_type ]
!1092 = metadata !{metadata !1083, metadata !1018, metadata !101, metadata !54}
!1093 = metadata !{i32 458798, i32 0, metadata !993, metadata !"operator=", metadata !"operator=", metadata !"_ZN11ap_int_baseILi1ELb0EEaSEy", metadata !16, i32 1502, metadata !1094, i1 false, i1 false, i32 0, i32 0, null, i1 false} ; [ DW_TAG_subprogram ]
!1094 = metadata !{i32 458773, metadata !2, metadata !"", metadata !2, i32 0, i64 0, i64 0, i64 0, i32 0, null, metadata !1095, i32 0, null} ; [ DW_TAG_subroutine_type ]
!1095 = metadata !{metadata !1083, metadata !1018, metadata !40}
!1096 = metadata !{i32 458798, i32 0, metadata !993, metadata !"operator=", metadata !"operator=", metadata !"_ZN11ap_int_baseILi1ELb0EEaSEx", metadata !16, i32 1507, metadata !1097, i1 false, i1 false, i32 0, i32 0, null, i1 false} ; [ DW_TAG_subprogram ]
!1097 = metadata !{i32 458773, metadata !2, metadata !"", metadata !2, i32 0, i64 0, i64 0, i64 0, i32 0, null, metadata !1098, i32 0, null} ; [ DW_TAG_subroutine_type ]
!1098 = metadata !{metadata !1083, metadata !1018, metadata !86}
!1099 = metadata !{i32 458798, i32 0, metadata !993, metadata !"to_int", metadata !"to_int", metadata !"_ZNK11ap_int_baseILi1ELb0EE6to_intEv", metadata !16, i32 1553, metadata !1100, i1 false, i1 false, i32 0, i32 0, null, i1 false} ; [ DW_TAG_subprogram ]
!1100 = metadata !{i32 458773, metadata !2, metadata !"", metadata !2, i32 0, i64 0, i64 0, i64 0, i32 0, null, metadata !1101, i32 0, null} ; [ DW_TAG_subroutine_type ]
!1101 = metadata !{metadata !70, metadata !1102}
!1102 = metadata !{i32 458767, metadata !2, metadata !"", metadata !2, i32 0, i64 32, i64 32, i64 0, i32 64, metadata !1073} ; [ DW_TAG_pointer_type ]
!1103 = metadata !{i32 458798, i32 0, metadata !993, metadata !"to_uint", metadata !"to_uint", metadata !"_ZNK11ap_int_baseILi1ELb0EE7to_uintEv", metadata !16, i32 1554, metadata !1104, i1 false, i1 false, i32 0, i32 0, null, i1 false} ; [ DW_TAG_subprogram ]
!1104 = metadata !{i32 458773, metadata !2, metadata !"", metadata !2, i32 0, i64 0, i64 0, i64 0, i32 0, null, metadata !1105, i32 0, null} ; [ DW_TAG_subroutine_type ]
!1105 = metadata !{metadata !74, metadata !1102}
!1106 = metadata !{i32 458798, i32 0, metadata !993, metadata !"to_long", metadata !"to_long", metadata !"_ZNK11ap_int_baseILi1ELb0EE7to_longEv", metadata !16, i32 1555, metadata !1107, i1 false, i1 false, i32 0, i32 0, null, i1 false} ; [ DW_TAG_subprogram ]
!1107 = metadata !{i32 458773, metadata !2, metadata !"", metadata !2, i32 0, i64 0, i64 0, i64 0, i32 0, null, metadata !1108, i32 0, null} ; [ DW_TAG_subroutine_type ]
!1108 = metadata !{metadata !78, metadata !1102}
!1109 = metadata !{i32 458798, i32 0, metadata !993, metadata !"to_ulong", metadata !"to_ulong", metadata !"_ZNK11ap_int_baseILi1ELb0EE8to_ulongEv", metadata !16, i32 1556, metadata !1110, i1 false, i1 false, i32 0, i32 0, null, i1 false} ; [ DW_TAG_subprogram ]
!1110 = metadata !{i32 458773, metadata !2, metadata !"", metadata !2, i32 0, i64 0, i64 0, i64 0, i32 0, null, metadata !1111, i32 0, null} ; [ DW_TAG_subroutine_type ]
!1111 = metadata !{metadata !82, metadata !1102}
!1112 = metadata !{i32 458798, i32 0, metadata !993, metadata !"to_int64", metadata !"to_int64", metadata !"_ZNK11ap_int_baseILi1ELb0EE8to_int64Ev", metadata !16, i32 1557, metadata !1113, i1 false, i1 false, i32 0, i32 0, null, i1 false} ; [ DW_TAG_subprogram ]
!1113 = metadata !{i32 458773, metadata !2, metadata !"", metadata !2, i32 0, i64 0, i64 0, i64 0, i32 0, null, metadata !1114, i32 0, null} ; [ DW_TAG_subroutine_type ]
!1114 = metadata !{metadata !158, metadata !1102}
!1115 = metadata !{i32 458798, i32 0, metadata !993, metadata !"to_uint64", metadata !"to_uint64", metadata !"_ZNK11ap_int_baseILi1ELb0EE9to_uint64Ev", metadata !16, i32 1558, metadata !1116, i1 false, i1 false, i32 0, i32 0, null, i1 false} ; [ DW_TAG_subprogram ]
!1116 = metadata !{i32 458773, metadata !2, metadata !"", metadata !2, i32 0, i64 0, i64 0, i64 0, i32 0, null, metadata !1117, i32 0, null} ; [ DW_TAG_subroutine_type ]
!1117 = metadata !{metadata !38, metadata !1102}
!1118 = metadata !{i32 458798, i32 0, metadata !993, metadata !"to_double", metadata !"to_double", metadata !"_ZNK11ap_int_baseILi1ELb0EE9to_doubleEv", metadata !16, i32 1559, metadata !1119, i1 false, i1 false, i32 0, i32 0, null, i1 false} ; [ DW_TAG_subprogram ]
